Microchip Technology Inc, vv3.31.00 (z)

Tool Name:
  c:\program files\microchip\xc-dsc\v3.31\bin\bin\..\bin/elf-ld.exe

Command:
  -p33AK512MPS512 \
  --mdfp=C:/Users/i69379/.mchp_packs/Microchip/dsPIC33AK-MP_DFP/1.3.185/xc16 \
  -o \
  dist/dsPIC33AK512/production/perseus_512.X.production.elf \
  -Lc:/program files/microchip/xc-dsc/v3.31/bin/bin/.. \
  -LC:/Users/i69379/.mchp_packs/Microchip/dsPIC33AK-MP_DFP/1.3.185/xc16/bin/../support/dsPIC33A/gld \
  -Lc:/program files/microchip/xc-dsc/v3.31/bin/bin/../../lib \
  build/dsPIC33AK512/production/_ext/659850406/adc5.o \
  build/dsPIC33AK512/production/_ext/659850406/adc1.o \
  build/dsPIC33AK512/production/_ext/659850406/adc3.o \
  build/dsPIC33AK512/production/_ext/659850406/adc4.o \
  build/dsPIC33AK512/production/_ext/1538408868/float_conversion.o \
  build/dsPIC33AK512/production/_ext/1538408868/gain_ctrl.o \
  build/dsPIC33AK512/production/_ext/1538408868/tone_ctrl.o \
  build/dsPIC33AK512/production/_ext/1538408868/transient.o \
  build/dsPIC33AK512/production/_ext/1538408868/reverb.o \
  build/dsPIC33AK512/production/_ext/1538408868/lpf_process.o \
  build/dsPIC33AK512/production/_ext/1538408868/reverb_smooth.o \
  build/dsPIC33AK512/production/_ext/1538408868/hpf_process.o \
  build/dsPIC33AK512/production/_ext/1538408868/LED_level_meter.o \
  build/dsPIC33AK512/production/_ext/1538408868/simple_loudmeter.o \
  build/dsPIC33AK512/production/_ext/1538408868/snd_effect_play.o \
  build/dsPIC33AK512/production/_ext/1538408868/engine_synth.o \
  build/dsPIC33AK512/production/_ext/1538408868/widen_ctrl.o \
  build/dsPIC33AK512/production/_ext/1538408868/bass_enhancer.o \
  build/dsPIC33AK512/production/_ext/1538408868/click_crack_synth.o \
  build/dsPIC33AK512/production/_ext/1034234695/button_led.o \
  build/dsPIC33AK512/production/_ext/1034234695/pot.o \
  build/dsPIC33AK512/production/_ext/1536116519/app_debug.o \
  build/dsPIC33AK512/production/_ext/1536116519/dbconsole.o \
  build/dsPIC33AK512/production/_ext/1521024571/touch.o \
  build/dsPIC33AK512/production/_ext/1018880376/uart1.o \
  build/dsPIC33AK512/production/_ext/1360937237/SPI_TDM_drv.o \
  build/dsPIC33AK512/production/_ext/1360937237/i2c.o \
  build/dsPIC33AK512/production/_ext/1360937237/main.o \
  build/dsPIC33AK512/production/_ext/1360937237/osc_drv.o \
  build/dsPIC33AK512/production/_ext/1360937237/wm8731.o \
  build/dsPIC33AK512/production/_ext/1360937237/tick_time.o \
  build/dsPIC33AK512/production/_ext/1360937237/pwm.o \
  build/dsPIC33AK512/production/_ext/1360937237/wm8904.o \
  build/dsPIC33AK512/production/_ext/1360937237/SPI3_drv.o \
  build/dsPIC33AK512/production/_ext/1360937237/SST26_drv.o \
  build/dsPIC33AK512/production/_ext/335358292/eq_api_33AK.o \
  build/dsPIC33AK512/production/_ext/335358292/eq_perseus_wrapper.o \
  build/dsPIC33AK512/production/_ext/1536116519/eq_benchmark.o \
  build/dsPIC33AK512/production/_ext/1538408868/aec_33ak.o \
  build/dsPIC33AK512/production/_ext/1538408868/aec_nlms_float.o \
  build/dsPIC33AK512/production/_ext/1538408868/aec_src.o \
  build/dsPIC33AK512/production/_ext/1538408868/aec_vad_float.o \
  ..\src\touch\lib\qtm_acq_dspic33ak_mp_0x0051.X.a \
  ..\src\touch\lib\qtm_freq_hop_auto_dspic33akmp_0x0004.X.a \
  ..\src\touch\lib\qtm_freq_hop_dspic33akmp_0x0006.X.a \
  ..\src\touch\lib\qtm_scroller_dspic33akmp_0x000b.X.a \
  ..\src\touch\lib\qtm_touch_key_dspic33akmp_0x0002.X.a \
  --defsym=__MPLAB_BUILD=1 \
  -Tp33AK512MPS512.00007378.00 \
  --stack=16 \
  --check-sections \
  --data-init \
  --pack-data \
  --handles \
  --gc-sections \
  --fill-upper=0 \
  --stackguard=16 \
  --ivt \
  --isr \
  --no-force-link \
  --smart-io \
  -Map=dist/dsPIC33AK512/production/perseus_512.X.production.map \
  --report-mem \
  --cref \
  --warn-section-align \
  --memorysummary \
  dist/dsPIC33AK512/production/memoryfile.xml \
  --start-group \
  --library=c99-pic30-elf \
  --library=m-elf \
  --library=c99-elf \
  --end-group \

Archive member included to satisfy reference by file (symbol)

..\src\touch\lib\qtm_acq_dspic33ak_mp_0x0051.X.a(pic_acq_x_dspic33ak_mp.o)
                              build/dsPIC33AK512/production/_ext/1521024571/touch.o (_qtm_acquisition_process)
..\src\touch\lib\qtm_freq_hop_auto_dspic33akmp_0x0004.X.a(pic_freq_hop_auto_x_dspic33akmp.o)
                              build/dsPIC33AK512/production/_ext/1521024571/touch.o (_qtm_freq_hop_autotune)
..\src\touch\lib\qtm_touch_key_dspic33akmp_0x0002.X.a(pic_touch_key_x_dspic33akmp.o)
                              build/dsPIC33AK512/production/_ext/1521024571/touch.o (_qtm_update_qtlib_timer)

Optional library libp33AK512MPS512.a not found
c:/program files/microchip/xc-dsc/v3.31/bin/bin/../../lib\libc99-pic30-elf.a(crt_start_mode_normal.AAMeo)
                              (__crt_start_mode_normal)
c:/program files/microchip/xc-dsc/v3.31/bin/bin/../../lib\libc99-pic30-elf.a(delay32.AAMeo)
                              build/dsPIC33AK512/production/_ext/1360937237/tick_time.o (___delay32)
c:/program files/microchip/xc-dsc/v3.31/bin/bin/../../lib\libc99-pic30-elf.a(crt0_extendedaa.o)
                              (__resetPRI)
c:/program files/microchip/xc-dsc/v3.31/bin/bin/../../lib\libc99-pic30-elf.a(data_init_extendedaa.o)
                              c:/program files/microchip/xc-dsc/v3.31/bin/bin/../../lib\libc99-pic30-elf.a(crt0_extendedaa.o) (__data_init_extended)
c:/program files/microchip/xc-dsc/v3.31/bin/bin/../../lib\libc99-pic30-elf.a(crt_ctor.aa.AAMeo)
                              c:/program files/microchip/xc-dsc/v3.31/bin/bin/../../lib\libc99-pic30-elf.a(crt0_extendedaa.o) (__ctor)
c:/program files/microchip/xc-dsc/v3.31/bin/bin/../../lib\libm-elf.a(expf.AA_o)
                              build/dsPIC33AK512/production/_ext/1538408868/engine_synth.o (_expf)
c:/program files/microchip/xc-dsc/v3.31/bin/bin/../../lib\libm-elf.a(log10f.AA_o)
                              build/dsPIC33AK512/production/_ext/1538408868/bass_enhancer.o (_log10f)
c:/program files/microchip/xc-dsc/v3.31/bin/bin/../../lib\libm-elf.a(logf.AA_o)
                              build/dsPIC33AK512/production/_ext/1538408868/engine_synth.o (_logf)
c:/program files/microchip/xc-dsc/v3.31/bin/bin/../../lib\libm-elf.a(lrintf.AA_o)
                              build/dsPIC33AK512/production/_ext/1538408868/widen_ctrl.o (_lrintf)
c:/program files/microchip/xc-dsc/v3.31/bin/bin/../../lib\libm-elf.a(powf.AA_o)
                              build/dsPIC33AK512/production/_ext/1538408868/gain_ctrl.o (_powf)
c:/program files/microchip/xc-dsc/v3.31/bin/bin/../../lib\libm-elf.a(rintf.AA_o)
                              c:/program files/microchip/xc-dsc/v3.31/bin/bin/../../lib\libm-elf.a(lrintf.AA_o) (_rintf)
c:/program files/microchip/xc-dsc/v3.31/bin/bin/../../lib\libm-elf.a(scalbnf.AA_o)
                              c:/program files/microchip/xc-dsc/v3.31/bin/bin/../../lib\libm-elf.a(expf.AA_o) (_scalbnf)
c:/program files/microchip/xc-dsc/v3.31/bin/bin/../../lib\libm-elf.a(sqrtf.AA_o)
                              c:/program files/microchip/xc-dsc/v3.31/bin/bin/../../lib\libm-elf.a(powf.AA_o) (_sqrtf)
c:/program files/microchip/xc-dsc/v3.31/bin/bin/../../lib\libm-elf.a(tanhf.AA_o)
                              build/dsPIC33AK512/production/_ext/1538408868/engine_synth.o (_tanhf)
c:/program files/microchip/xc-dsc/v3.31/bin/bin/../../lib\libm-elf.a(expm1f.AA_o)
                              c:/program files/microchip/xc-dsc/v3.31/bin/bin/../../lib\libm-elf.a(tanhf.AA_o) (_expm1f)
c:/program files/microchip/xc-dsc/v3.31/bin/bin/../../lib\libm-elf.a(fabsf.AA_o)
                              c:/program files/microchip/xc-dsc/v3.31/bin/bin/../../lib\libm-elf.a(powf.AA_o) (_fabsf)
c:/program files/microchip/xc-dsc/v3.31/bin/bin/../../lib\libc99-elf.a(__errno_location.AA_o)
                              c:/program files/microchip/xc-dsc/v3.31/bin/bin/../../lib\libm-elf.a(expf.AA_o) (___errno_val)
c:/program files/microchip/xc-dsc/v3.31/bin/bin/../../lib\libc99-elf.a(__sio_printf_dfosux.AA_o)
                              build/dsPIC33AK512/production/_ext/1536116519/app_debug.o (__printf_cdfFnopsuxX)
c:/program files/microchip/xc-dsc/v3.31/bin/bin/../../lib\libc99-elf.a(__sio_printf_dfoux.AA_o)
                              build/dsPIC33AK512/production/_ext/1536116519/eq_benchmark.o (__printf_cdfFnopuxX)
c:/program files/microchip/xc-dsc/v3.31/bin/bin/../../lib\libc99-elf.a(__sio_printf_doux.AA_o)
                              build/dsPIC33AK512/production/_ext/1360937237/SPI_TDM_drv.o (__printf_cdnopuxX)
c:/program files/microchip/xc-dsc/v3.31/bin/bin/../../lib\libc99-elf.a(__sio_printf_f.AA_o)
                              build/dsPIC33AK512/production/_ext/1538408868/float_conversion.o (__printf_fF)
c:/program files/microchip/xc-dsc/v3.31/bin/bin/../../lib\libc99-elf.a(memcpy.AA_o)
                              build/dsPIC33AK512/production/_ext/1538408868/click_crack_synth.o (_memcpy)
c:/program files/microchip/xc-dsc/v3.31/bin/bin/../../lib\libc99-elf.a(memset.AA_o)
                              build/dsPIC33AK512/production/_ext/1538408868/aec_nlms_float.o (_memset)
c:/program files/microchip/xc-dsc/v3.31/bin/bin/../../lib\libc99-elf.a(putchar.AA_o)
                              build/dsPIC33AK512/production/_ext/1536116519/dbconsole.o (_putchar)
c:/program files/microchip/xc-dsc/v3.31/bin/bin/../../lib\libc99-elf.a(puts.AA_o)
                              build/dsPIC33AK512/production/_ext/1536116519/app_debug.o (_puts)
c:/program files/microchip/xc-dsc/v3.31/bin/bin/../../lib\libc99-elf.a(stdout.AA_o)
                              c:/program files/microchip/xc-dsc/v3.31/bin/bin/../../lib\libc99-elf.a(__sio_printf_dfosux.AA_o) (__stdout)
c:/program files/microchip/xc-dsc/v3.31/bin/bin/../../lib\libc99-elf.a(__fmt_d.AA_o)
                              c:/program files/microchip/xc-dsc/v3.31/bin/bin/../../lib\libc99-elf.a(__sio_printf_dfosux.AA_o) (___fmt_d_needed)
c:/program files/microchip/xc-dsc/v3.31/bin/bin/../../lib\libc99-elf.a(__fmt_fp.AA_o)
                              c:/program files/microchip/xc-dsc/v3.31/bin/bin/../../lib\libc99-elf.a(__sio_printf_dfosux.AA_o) (___fmt_f_needed)
c:/program files/microchip/xc-dsc/v3.31/bin/bin/../../lib\libc99-elf.a(__fmt_o.AA_o)
                              c:/program files/microchip/xc-dsc/v3.31/bin/bin/../../lib\libc99-elf.a(__sio_printf_dfosux.AA_o) (___fmt_o_needed)
c:/program files/microchip/xc-dsc/v3.31/bin/bin/../../lib\libc99-elf.a(__fmt_s.AA_o)
                              c:/program files/microchip/xc-dsc/v3.31/bin/bin/../../lib\libc99-elf.a(__sio_printf_dfosux.AA_o) (___fmt_s_needed)
c:/program files/microchip/xc-dsc/v3.31/bin/bin/../../lib\libc99-elf.a(__fmt_u.AA_o)
                              c:/program files/microchip/xc-dsc/v3.31/bin/bin/../../lib\libc99-elf.a(__sio_printf_dfosux.AA_o) (___fmt_u_needed)
c:/program files/microchip/xc-dsc/v3.31/bin/bin/../../lib\libc99-elf.a(__fmt_x.AA_o)
                              c:/program files/microchip/xc-dsc/v3.31/bin/bin/../../lib\libc99-elf.a(__sio_printf_dfosux.AA_o) (___fmt_x_needed)
c:/program files/microchip/xc-dsc/v3.31/bin/bin/../../lib\libc99-elf.a(__int_vfprintf.AA_o)
                              c:/program files/microchip/xc-dsc/v3.31/bin/bin/../../lib\libc99-elf.a(__sio_printf_dfosux.AA_o) (___vfprintf)
c:/program files/microchip/xc-dsc/v3.31/bin/bin/../../lib\libc99-elf.a(__io_init_needed.AA_o)
                              c:/program files/microchip/xc-dsc/v3.31/bin/bin/../../lib\libc99-elf.a(stdout.AA_o) (___io_init_needed)
c:/program files/microchip/xc-dsc/v3.31/bin/bin/../../lib\libc99-elf.a(__out.AA_o)
                              c:/program files/microchip/xc-dsc/v3.31/bin/bin/../../lib\libc99-elf.a(stdout.AA_o) (___stdio_write_unbuffered)
c:/program files/microchip/xc-dsc/v3.31/bin/bin/../../lib\libc99-elf.a(__pop_float.AA_o)
                              c:/program files/microchip/xc-dsc/v3.31/bin/bin/../../lib\libc99-elf.a(__sio_printf_dfosux.AA_o) (___pop_float_needed)
c:/program files/microchip/xc-dsc/v3.31/bin/bin/../../lib\libc99-elf.a(__pop_int.AA_o)
                              c:/program files/microchip/xc-dsc/v3.31/bin/bin/../../lib\libc99-elf.a(__sio_printf_dfosux.AA_o) (___pop_int_needed)
c:/program files/microchip/xc-dsc/v3.31/bin/bin/../../lib\libc99-elf.a(__pop_ptr.AA_o)
                              c:/program files/microchip/xc-dsc/v3.31/bin/bin/../../lib\libc99-elf.a(__sio_printf_dfosux.AA_o) (___pop_ptr_needed)
c:/program files/microchip/xc-dsc/v3.31/bin/bin/../../lib\libc99-elf.a(__printf_core.AA_o)
                              c:/program files/microchip/xc-dsc/v3.31/bin/bin/../../lib\libc99-elf.a(__fmt_d.AA_o) (___pad)
c:/program files/microchip/xc-dsc/v3.31/bin/bin/../../lib\libc99-elf.a(__stdio_close.AA_o)
                              c:/program files/microchip/xc-dsc/v3.31/bin/bin/../../lib\libc99-elf.a(stdout.AA_o) (___stdio_close_rw)
c:/program files/microchip/xc-dsc/v3.31/bin/bin/../../lib\libc99-elf.a(atoi.AA_o)
                              c:/program files/microchip/xc-dsc/v3.31/bin/bin/../../lib\libc99-elf.a(__printf_core.AA_o) (_atoi)
c:/program files/microchip/xc-dsc/v3.31/bin/bin/../../lib\libc99-elf.a(fputs.AA_o)
                              c:/program files/microchip/xc-dsc/v3.31/bin/bin/../../lib\libc99-elf.a(puts.AA_o) (_fputs)
c:/program files/microchip/xc-dsc/v3.31/bin/bin/../../lib\libc99-elf.a(fwrite.AA_o)
                              c:/program files/microchip/xc-dsc/v3.31/bin/bin/../../lib\libc99-elf.a(fputs.AA_o) (_fwrite)
c:/program files/microchip/xc-dsc/v3.31/bin/bin/../../lib\libc99-elf.a(lseek.AA_o)
                              c:/program files/microchip/xc-dsc/v3.31/bin/bin/../../lib\libc99-elf.a(__stdio_close.AA_o) (_lseek)
c:/program files/microchip/xc-dsc/v3.31/bin/bin/../../lib\libc99-elf.a(putc.AA_o)
                              c:/program files/microchip/xc-dsc/v3.31/bin/bin/../../lib\libc99-elf.a(putchar.AA_o) (_fputc)
c:/program files/microchip/xc-dsc/v3.31/bin/bin/../../lib\libc99-elf.a(strcpy.AA_o)
                              c:/program files/microchip/xc-dsc/v3.31/bin/bin/../../lib\libc99-elf.a(__fmt_fp.AA_o) (_strcpy)
c:/program files/microchip/xc-dsc/v3.31/bin/bin/../../lib\libc99-elf.a(strlen.AA_o)
                              c:/program files/microchip/xc-dsc/v3.31/bin/bin/../../lib\libc99-elf.a(__fmt_fp.AA_o) (_strlen)
c:/program files/microchip/xc-dsc/v3.31/bin/bin/../../lib\libc99-elf.a(syscall_ret.AA_o)
                              c:/program files/microchip/xc-dsc/v3.31/bin/bin/../../lib\libc99-elf.a(lseek.AA_o) (___syscall_ret)
c:/program files/microchip/xc-dsc/v3.31/bin/bin/../../lib\libc99-elf.a(tolower.AA_o)
                              c:/program files/microchip/xc-dsc/v3.31/bin/bin/../../lib\libc99-elf.a(__fmt_fp.AA_o) (_tolower)
c:/program files/microchip/xc-dsc/v3.31/bin/bin/../../lib\libc99-elf.a(toupper.AA_o)
                              c:/program files/microchip/xc-dsc/v3.31/bin/bin/../../lib\libc99-elf.a(__fmt_x.AA_o) (_toupper)
c:/program files/microchip/xc-dsc/v3.31/bin/bin/../../lib\libc99-elf.a(__cvt_u.AA_o)
                              c:/program files/microchip/xc-dsc/v3.31/bin/bin/../../lib\libc99-elf.a(__fmt_d.AA_o) (___cvt_u)
c:/program files/microchip/xc-dsc/v3.31/bin/bin/../../lib\libc99-elf.a(__init_stdio.AA_o)
                              c:/program files/microchip/xc-dsc/v3.31/bin/bin/../../lib\libc99-elf.a(__io_init_needed.AA_o) (___init_stdio_needed)
c:/program files/microchip/xc-dsc/v3.31/bin/bin/../../lib\libc99-elf.a(__io_file_needed.AA_o)
                              c:/program files/microchip/xc-dsc/v3.31/bin/bin/../../lib\libc99-elf.a(__io_init_needed.AA_o) (___io_file_needed)
c:/program files/microchip/xc-dsc/v3.31/bin/bin/../../lib\libc99-elf.a(stpcpy.AA_o)
                              c:/program files/microchip/xc-dsc/v3.31/bin/bin/../../lib\libc99-elf.a(strcpy.AA_o) (___stpcpy)
c:/program files/microchip/xc-dsc/v3.31/bin/bin/../../lib\libc99-pic30-elf.a(close.AAMeo)
                              c:/program files/microchip/xc-dsc/v3.31/bin/bin/../../lib\libc99-elf.a(__stdio_close.AA_o) (_close)
c:/program files/microchip/xc-dsc/v3.31/bin/bin/../../lib\libc99-pic30-elf.a(extendsfdf.aa.AA_eo)
                              c:/program files/microchip/xc-dsc/v3.31/bin/bin/../../lib\libc99-elf.a(__pop_float.AA_o) (___extendsfdf2)
c:/program files/microchip/xc-dsc/v3.31/bin/bin/../../lib\libc99-pic30-elf.a(funpack.aa.AA_eo)
                              c:/program files/microchip/xc-dsc/v3.31/bin/bin/../../lib\libc99-pic30-elf.a(extendsfdf.aa.AA_eo) (__funpack)
c:/program files/microchip/xc-dsc/v3.31/bin/bin/../../lib\libc99-pic30-elf.a(divmoddi3.AA_eo)
                              c:/program files/microchip/xc-dsc/v3.31/bin/bin/../../lib\libc99-elf.a(__cvt_u.AA_o) (___udivdi3)
c:/program files/microchip/xc-dsc/v3.31/bin/bin/../../lib\libm-elf.a(floorl.AA_o)
                              c:/program files/microchip/xc-dsc/v3.31/bin/bin/../../lib\libc99-elf.a(__fmt_fp.AA_o) (_floorl)


xc-dsc-ld v3.31.00 (z)

Default Code Model: Small
Default Data Model: Large
Default Scalar Model: Small

"program" Memory  [Origin = 0x800004, Length = 0x7fffc]

section                    address   length (PC units)   length (bytes) (dec)
-------                    -------   -----------------   --------------------
__ivt_0                   0x800004               0x5b0           0x5b0  (1456)
.text                     0x8005b4              0x3aa4          0x3aa4  (15012)
380469c193ce_0            0x804058              0xf814          0xf814  (63508)
.text                     0x81386c              0x9f54          0x9f54  (40788)
.text.qtm_key_sensors_process  0x81d7c0               0x740           0x740  (1856)
.text                     0x81df00              0x1ec4          0x1ec4  (7876)
.text.qtm_itc_config_update  0x81fdc4               0x4d8           0x4d8  (1240)
.text                     0x82029c              0x1db4          0x1db4  (7604)
.dinit                    0x822050               0x39c           0x39c  (924)
.text                     0x8223ec               0xa84           0xa84  (2692)
.text.qtm_freq_hop_autotune  0x822e70               0x32c           0x32c  (812)
.text                     0x82319c               0x600           0x600  (1536)
860069c193e4_1            0x82379c               0x2d0           0x2d0  (720)
.text                     0x823a6c               0x54c           0x54c  (1356)
630c69c193f3_1            0x823fb8               0x298           0x298  (664)
.text                     0x824250               0x244           0x244  (580)
22c69c193ef_0             0x824494               0x234           0x234  (564)
.text.qtm_itc_init_acquisition_module  0x8246c8               0x234           0x234  (564)
.text                     0x8248fc               0x18c           0x18c  (396)
.text.qtm_acquisition_process  0x824a88               0x178           0x178  (376)
1d0069c193f2_1            0x824c00               0x16c           0x16c  (364)
.text.qtm_itc_start_measurement_seq  0x824d6c               0x134           0x134  (308)
.text                     0x824ea0               0x120           0x120  (288)
.text.qtm_measure_node    0x824fc0               0x10c           0x10c  (268)
5f0c69c195d0_1            0x8250cc                0xf8            0xf8  (248)
632869c193f7_0            0x8251c4                0xd8            0xd8  (216)
.text.check_for_aks_block  0x82529c                0xc4            0xc4  (196)
88e069c193e6_1            0x825360                0xc0            0xc0  (192)
21d869c193ec_1            0x825420                0xc0            0xc0  (192)
630c69c193f3_0            0x8254e0                0xb0            0xb0  (176)
630c69c193f3_2            0x825590                0xa0            0xa0  (160)
.text.qtm_dspic33a_touch_handler_eoc  0x825630                0x88            0x88  (136)
98d469c193e3_2            0x8256b8                0x80            0x80  (128)
.text                     0x825738                0x78            0x78  (120)
bb869c193c2_0             0x8257b0                0x70            0x70  (112)
.text.select_next_channel_to_measure  0x825820                0x68            0x68  (104)
6c2469c195e3_0            0x825888                0x60            0x60  (96)
22c69c193ef_1             0x8258e8                0x58            0x58  (88)
98d469c193e3_0            0x825940                0x50            0x50  (80)
21d869c193ec_0            0x825990                0x48            0x48  (72)
5f0c69c195d0_0            0x8259d8                0x44            0x44  (68)
.text.qtm_set_sensor_node_cal  0x825a1c                0x44            0x44  (68)
.text.channel_decode      0x825a60                0x3c            0x3c  (60)
.text.qtm_enable_sensor_node  0x825a9c                0x38            0x38  (56)
.text.qtm_calibrate_sensor_node  0x825ad4                0x34            0x34  (52)
.text.qtm_init_sensor_key  0x825b08                0x34            0x34  (52)
88e069c193e6_0            0x825b3c                0x30            0x30  (48)
.text                     0x825b6c                0x2c            0x2c  (44)
860069c193e4_0            0x825b98                0x24            0x24  (36)
8a069c193cb_0             0x825bbc                0x20            0x20  (32)
32869c193f0_0             0x825bdc                0x20            0x20  (32)
.text.qtm_itc_qtlib_assign_signal_memory  0x825bfc                0x20            0x20  (32)
C:\Windows\TEMP\ccZepluN.s.scn1  0x825c1c                0x20            0x20  (32)
98d469c193e3_1            0x825c3c                0x1c            0x1c  (28)
98d469c193e3_3            0x825c58                0x1c            0x1c  (28)
66fc69c193dd_0            0x825c74                0x14            0x14  (20)
.text.qtm_update_acq_freq_delay  0x825c88                 0xc             0xc  (12)
.text.qtm_update_qtlib_timer  0x825c94                 0xc             0xc  (12)
1d0069c193f2_0            0x825ca0                 0x8             0x8  (8)
6c2469c195e3_1            0x825ca8                 0x4             0x4  (4)

                   Total "program" memory used (bytes):        0x25ca8  (154792) 29%


"data" Memory  [Origin = 0x4000, Length = 0x10000]

section                    address      alignment gaps    total length  (dec)
-------                    -------      --------------    -------------------
.nbss                       0x4000                   0          0x794c  (31052)
_000000000782E09069c195e2    0xb94c                   0           0x800  (2048)
_000000000782E00069c195e2    0xc14c                   0           0x800  (2048)
_0000000007739F3069c193ea    0xc94c                   0           0x800  (2048)
_0000000007739EA069c193ea    0xd14c                   0           0x800  (2048)
_0000000007739E1069c193ea    0xd94c                   0           0x800  (2048)
_0000000007739D8069c193ea    0xe14c                   0           0x800  (2048)
.nbss                       0xe94c                   0           0xd10  (3344)
_00000000076F3A2069c193bf    0xf65c                   0           0x100  (256)
_0000000007643A2069c193c0    0xf75c                   0           0x100  (256)
.nbss                       0xf85c                   0            0xf0  (240)
.ndata                      0xf94c                   0            0xbc  (188)
.nbss                       0xfa08                   0           0x12c  (300)
.ndata                      0xfb34                   0             0xc  (12)
.nbss                       0xfb40                   0            0x14  (20)
.ndata                      0xfb54                   0             0x4  (4)
.nbss                       0xfb58                   0             0xa  (10)
.data                       0xfb62                   0             0x2  (2)
.data                       0xfb64                   0            0xac  (172)
.bss                        0xfc10                   0            0x14  (20)
.data                       0xfc24                   0            0x18  (24)
.bss                        0xfc3c                   0             0x4  (4)
.bss                        0xfc40                   0             0x2  (2)

                      Total "data" memory used (bytes):         0xbc42  (48194) 73%


Dynamic Memory Usage

region                     address                      maximum length  (dec)
------                     -------                      ---------------------
heap                             0                                   0  (0)
stack                       0xfc44                              0x43bc  (17340)

                        Maximum dynamic memory (bytes):         0x43bc  (17340)


Interrupt Handlers:
  0x800a64 __DMA0Interrupt
  0x800f6c __DMA1Interrupt
  0x800794 __DMA2Interrupt
  0x800894 __DMA3Interrupt
  0x801018 __DMA4Interrupt
  0x801050 __DMA5Interrupt
  0x801088 __DMA6Interrupt
  0x8010c0 __DMA7Interrupt
  0x800934 __ITCInterrupt
  0x800fc8 __PWM5Interrupt
  0x800fdc __PWM6Interrupt
  0x800ff0 __PWM7Interrupt
  0x801004 __PWM8Interrupt
  0x800fbc __T1Interrupt
  0x80098c __U1RXInterrupt


Interrupt Vector Tables (IVTs):
  __ivt_0   :  0x800000 



External Symbols in Data Memory (by address):

                    0x4000                  _g_echo_sim_enabled
                    0x5988                  _g_aec_enabled
                    0x598c                  _g_aec_state
                    0x8820                  _g_audio_level_out
                    0x8821                  _g_audio_level_in
                    0x8822                  _Ena_EngineSynth
                    0x8840                  _g_bassh
                    0xc94c                  _PWM8_Duty
                    0xd14c                  _PWM7_Duty
                    0xd94c                  _PWM6_Duty
                    0xe14c                  _PWM5_Duty
                    0xf408                  _Start_Blip
                    0xf85c                  _My_ToneBas
                    0xf8ac                  _My_ToneMid
                    0xf8fc                  _My_ToneTre
                    0xf94c                  _qtm_scroller_control1
                    0xf95c                  _qtm_scroller_config1
                    0xf968                  _qtm_scroller_group_config1
                    0xf970                  _qtlib_key_set1
                    0xf980                  _qtlib_key_configs_set1
                    0xf98c                  _qtlib_key_grp_config_set1
                    0xf998                  _qtm_freq_hop_autotune_control1
                    0xf9a0                  _qtm_freq_hop_autotune_data1
                    0xf9b0                  _qtm_freq_hop_autotune_config1
                    0xf9c0                  _freq_hop_delay_selection
                    0xf9c4                  _qtlib_acq_set1
                    0xf9d4                  _device_config
                    0xf9e0                  _adc_seq_node_cfg1
                    0xfa04                  _adc_qtlib_acq_gen1
                    0xfa0c                  _cal_count
                    0xfa10                  _interrupt_cnt
                    0xfa14                  _qtm_scroller_group_data1
                    0xfa18                  _qtm_scroller_data1
                    0xfa24                  _qtlib_key_data_set1
                    0xfa48                  _qtlib_key_grp_data_set1
                    0xfa50                  _freq_hop_autotune_counters
                    0xfa54                  _noise_filter_buffer
                    0xfa68                  _adc_qtlib_node_stat1
                    0xfa7c                  _touch_acq_signals_raw
                    0xfa88                  _time_to_measure_touch_flag
                    0xfa89                  _touch_postprocess_request
                    0xfa8a                  _touch_in_progress
                    0xfa8b                  _module_error_code
                    0xfa8c                  _measurement_done_touch
                    0xfad8                  _My_Gain
                    0xfb0c                  _Pre_Gain_WAV
                    0xfb10                  _Post_Gain_CODEC
                    0xfb14                  _Post_Gain_PWM
                    0xfb18                  _Pre_Gain_CODEC
                    0xfb54                  _g_echo_sim_gain
                    0xfb58                  _systemTick
                    0xfb5c                  _breakpoint
                    0xfb64                  ___stdout_used
                    0xfb68                  __stdout
                    0xfc3c                  ___errno_val
                    0xfc40                  _qtm_local_ms_timecount

External Symbols in Data Memory (by name):

                    0x8822                  _Ena_EngineSynth
                    0xfad8                  _My_Gain
                    0xf85c                  _My_ToneBas
                    0xf8ac                  _My_ToneMid
                    0xf8fc                  _My_ToneTre
                    0xe14c                  _PWM5_Duty
                    0xd94c                  _PWM6_Duty
                    0xd14c                  _PWM7_Duty
                    0xc94c                  _PWM8_Duty
                    0xfb10                  _Post_Gain_CODEC
                    0xfb14                  _Post_Gain_PWM
                    0xfb18                  _Pre_Gain_CODEC
                    0xfb0c                  _Pre_Gain_WAV
                    0xf408                  _Start_Blip
                    0xfc3c                  ___errno_val
                    0xfb64                  ___stdout_used
                    0xfb68                  __stdout
                    0xfa04                  _adc_qtlib_acq_gen1
                    0xfa68                  _adc_qtlib_node_stat1
                    0xf9e0                  _adc_seq_node_cfg1
                    0xfb5c                  _breakpoint
                    0xfa0c                  _cal_count
                    0xf9d4                  _device_config
                    0xfa50                  _freq_hop_autotune_counters
                    0xf9c0                  _freq_hop_delay_selection
                    0x5988                  _g_aec_enabled
                    0x598c                  _g_aec_state
                    0x8821                  _g_audio_level_in
                    0x8820                  _g_audio_level_out
                    0x8840                  _g_bassh
                    0x4000                  _g_echo_sim_enabled
                    0xfb54                  _g_echo_sim_gain
                    0xfa10                  _interrupt_cnt
                    0xfa8c                  _measurement_done_touch
                    0xfa8b                  _module_error_code
                    0xfa54                  _noise_filter_buffer
                    0xf9c4                  _qtlib_acq_set1
                    0xf980                  _qtlib_key_configs_set1
                    0xfa24                  _qtlib_key_data_set1
                    0xf98c                  _qtlib_key_grp_config_set1
                    0xfa48                  _qtlib_key_grp_data_set1
                    0xf970                  _qtlib_key_set1
                    0xf9b0                  _qtm_freq_hop_autotune_config1
                    0xf998                  _qtm_freq_hop_autotune_control1
                    0xf9a0                  _qtm_freq_hop_autotune_data1
                    0xfc40                  _qtm_local_ms_timecount
                    0xf95c                  _qtm_scroller_config1
                    0xf94c                  _qtm_scroller_control1
                    0xfa18                  _qtm_scroller_data1
                    0xf968                  _qtm_scroller_group_config1
                    0xfa14                  _qtm_scroller_group_data1
                    0xfb58                  _systemTick
                    0xfa88                  _time_to_measure_touch_flag
                    0xfa7c                  _touch_acq_signals_raw
                    0xfa8a                  _touch_in_progress
                    0xfa89                  _touch_postprocess_request

External Symbols in Program Memory (by address):

                  0x800004                  __ivt_0
                  0x8005b4                  __resetPRI
                  0x800690                  ___tls_crt_init
                  0x800690                  __crt_return_stmt
                  0x800694                  __data_init
                  0x800694                  __data_init_extended
                  0x800794                  __DMA2Interrupt
                  0x800894                  __DMA3Interrupt
                  0x800934                  __ITCInterrupt
                  0x80098c                  __U1RXInterrupt
                  0x800a64                  __DMA0Interrupt
                  0x800f6c                  __DMA1Interrupt
                  0x800f80                  __DefaultInterrupt
                  0x800fbc                  __T1Interrupt
                  0x800fc8                  __PWM5Interrupt
                  0x800fdc                  __PWM6Interrupt
                  0x800ff0                  __PWM7Interrupt
                  0x801004                  __PWM8Interrupt
                  0x801018                  __DMA4Interrupt
                  0x801050                  __DMA5Interrupt
                  0x801088                  __DMA6Interrupt
                  0x8010c0                  __DMA7Interrupt
                  0x8010f8                  ___delay32
                  0x80110c                  _write
                  0x801194                  __ctor
                  0x8011c8                  __dtor
                  0x8011ec                  _expf
                  0x8013bc                  _log10f
                  0x801584                  _logf
                  0x801710                  _lrintf
                  0x80171c                  _powf
                  0x801e78                  _rintf
                  0x801ef0                  _scalbnf
                  0x801f84                  _sqrtf
                  0x8020c0                  _tanhf
                  0x80219c                  _expm1f
                  0x8024a4                  _fabsf
                  0x802534                  _memcpy
                  0x802550                  _memset
                  0x802568                  _putchar
                  0x802578                  _puts
                  0x8025b8                  ___fmt_d
                  0x8026e4                  ___fmt_fp
                  0x802c90                  ___fmt_o
                  0x802d54                  ___fmt_s
                  0x802ddc                  ___fmt_u
                  0x802e68                  ___fmt_x
                  0x80303c                  ___vfprintf
                  0x803070                  ___out
                  0x8030e4                  ___pop_float
                  0x803140                  ___pop_int
                  0x8032bc                  ___pop_ptr
                  0x803378                  ___pad
                  0x803440                  ___fmt_state
                  0x803498                  ___printf_core
                  0x80399c                  ___stdio_close_rw
                  0x803a4c                  _atoi
                  0x803ab4                  _fputs
                  0x803af0                  _fwrite
                  0x803b30                  ___lseek
                  0x803b40                  ___putc_unbuffered
                  0x803b94                  _putc
                  0x803b98                  _strcpy
                  0x803ba8                  _strlen
                  0x803c14                  ___syscall_ret
                  0x803c34                  _tolower
                  0x803c44                  _toupper
                  0x803c58                  ___cvt_u
                  0x803d64                  ___stpcpy
                  0x803de4                  ___extendsfdf2
                  0x803e48                  __funpack
                  0x803e98                  ___udivmoddi3
                  0x803f64                  ___udivdi3
                  0x803f6c                  ___umoddi3
                  0x803f74                  _floorl
                  0x804058                  _NOTIF_ACTION_WAV_SIZE
                  0x80405c                  _notif_action_i16
                  0x813cc8                  _bassh_init
                  0x813ce8                  _bassh_set_default_params
                  0x813dcc                  _bassh_process
                  0x814c88                  _app_bassh_init
                  0x814eac                  _app_bassh_enable
                  0x814ef4                  _app_bassh_is_enabled
                  0x814efc                  _app_bassh_preset_speaker_A
                  0x81501c                  _app_bassh_process
                  0x815fc8                  _app_engine_synth_init
                  0x8161e8                  _EngineBlip_init
                  0x816260                  _EngineBlip_trigger
                  0x81629c                  _EngineBlip_update
                  0x816598                  _EngineSynthWrap_init
                  0x816a14                  _EngineSynth_setRPM
                  0x816a20                  _EngineSynth_setTargetRPM
                  0x816a48                  _EngineSynth_setThrottle
                  0x816a70                  _EngineRumble_setLFO
                  0x816a74                  _engine_process
                  0x81787c                  _app_engine_synth_process
                  0x8181a4                  _ccs_preset
                  0x81831c                  _ccs_init
                  0x818334                  _ccs_reset
                  0x818360                  _ccs_set_enabled
                  0x818390                  _ccs_trigger
                  0x818400                  _ccs_set_interval
                  0x818458                  _ccs_set_pan
                  0x8184a8                  _ccs_set_output_slots
                  0x8184f0                  _ccs_set_po
                  0x8185e0                  _ccs_process_stereo_add
                  0x818a34                  _app_ccsynth_init
                  0x818b30                  _app_ccsynth_set_enable
                  0x818b50                  _app_ccsynth_process
                  0x819264                  _EQ_Init
                  0x819414                  _EQ_Process
                  0x819444                  _EQ_ProcessSeparate
                  0x81948c                  _EQ_SetBandGain
                  0x819664                  _EQ_GetBandGain
                  0x81968c                  _EQ_SetAllGains
                  0x8197d8                  _EQ_GetAllGains
                  0x819800                  _EQ_SetMasterGain
                  0x819880                  _EQ_GetMasterGain
                  0x819898                  _EQ_Enable
                  0x8198a8                  _EQ_IsEnabled
                  0x8198c0                  _EQ_Reset
                  0x8198f8                  _EQ_SetBandParams
                  0x819a3c                  _EQ_ProcessQ15
                  0x819bc4                  _EQ_SetGainsLegacy
                  0x819e28                  _EQ_GetGainsLegacy
                  0x819e84                  _EQ_SetMasterGainLegacy
                  0x819f0c                  _EQ_GetMasterGainLegacy
                  0x819f34                  _app_widen_init
                  0x81a03c                  _app_widen_disable
                  0x81a120                  _app_widen_enable
                  0x81a300                  _app_widen_process
                  0x81a6d4                  _widen_init
                  0x81a7a0                  _widen_set_params
                  0x81a95c                  _widen_process
                  0x81ab78                  _app_uart_rx_available
                  0x81acc8                  _app_onmsg
                  0x81b554                  _app_tone_init
                  0x81b7a0                  _app_tone_set_coeffs_tre
                  0x81b8c0                  _app_tone_set_coeffs_mid
                  0x81b9e0                  _app_tone_set_coeffs_bas
                  0x81bb00                  _app_tone_process_tre
                  0x81bbac                  _app_tone_process_mid
                  0x81bc58                  _app_tone_process_bas
                  0x81bd04                  _tone_init
                  0x81bd24                  _tone_set_coeffs
                  0x81be34                  _tone_process
                  0x81bed8                  _I2C1_Init
                  0x81bf30                  _I2C2_Init
                  0x81bf88                  _pI2CxLBRG
                  0x81bf9c                  _pI2CxHBRG
                  0x81bfb0                  _pI2CxBITObits
                  0x81bfc4                  _pI2CxSTAT1
                  0x81bfd8                  _pI2CxSTAT1bits
                  0x81bfec                  _pI2CxSTAT2
                  0x81c000                  _pI2CxSTAT2bits
                  0x81c014                  _pI2CxCON1
                  0x81c028                  _pI2CxCON1bits
                  0x81c03c                  _pI2CxCON2
                  0x81c050                  _pI2CxCON2bits
                  0x81c064                  _pI2CxTRN
                  0x81c078                  _pI2CxRCV
                  0x81c08c                  _I2Cx_Start
                  0x81c258                  _I2Cx_Stop
                  0x81c2b8                  _I2Cx_SendACK
                  0x81c368                  _I2Cx_WriteByte
                  0x81c658                  _I2Cx_ReadByte
                  0x81c834                  _main
                  0x81d0d8                  _SST26_test
                  0x81d510                  _sst26_read_jedec_id
                  0x81d5a8                  _sst26_read_fast
                  0x81d614                  _sst26_write_enable
                  0x81d624                  _sst26_sector_erase_4k
                  0x81d69c                  _sst26_chip_erase
                  0x81d6fc                  _sst26_verify
                  0x81d798                  _sst26_page_program
                  0x81d7c0                  _qtm_key_sensors_process
                  0x81df00                  _pwm_init
                  0x81e490                  _dma4_pwm5_process
                  0x81e4bc                  _dma5_pwm6_process
                  0x81e4e8                  _dma6_pwm7_process
                  0x81e514                  _dma7_pwm8_process
                  0x81e540                  _pwm1_set_duty
                  0x81e594                  _pwm2_set_duty
                  0x81e5e8                  _pwm3_set_duty
                  0x81e63c                  _BUTTON_Init
                  0x81e658                  _BUTTON_IsPressed
                  0x81e6a8                  _BUTTON_DetectReleased
                  0x81e71c                  _TOUCH_IsPressed
                  0x81e770                  _TOUCH_DetectReleased
                  0x81e818                  _LEDs_Init
                  0x81e85c                  _LED_On
                  0x81e900                  _LED_Off
                  0x81e9a4                  _LED_Toggle
                  0x81ebfc                  _LED_Set_Mask
                  0x81ece8                  _Set_OscSrc_to_CLKGEN1
                  0x81ed48                  _Set_OscSrc_to_CLKGEN5
                  0x81eda8                  _Set_OscSrc_to_CLKGEN6
                  0x81ee0c                  _Set_OscSrc_to_CLKGEN8
                  0x81ee6c                  _Set_OscSrc_to_CLKGEN9
                  0x81eecc                  _Set_OscSrc_to_CLKGEN12
                  0x81ef2c                  _Osc_Configure_PLL1
                  0x81f0dc                  _Osc_Configure_PLL2
                  0x81f300                  _eq_benchmark_init
                  0x81f3dc                  _eq_benchmark_run
                  0x81f70c                  _eq_benchmark_compare_output
                  0x81f8cc                  _ADC5_Deinitialize
                  0x81fa7c                  _ADC5_Initialize
                  0x81fb7c                  _ADC5_SharedCorePowerEnable
                  0x81fb98                  _ADC5_SharedCoreCalibration
                  0x81fbb4                  _ADC5_PWMTriggerSourceSet
                  0x81fd50                  _ADC5_ChannelCallbackRegister
                  0x81fd60                  _ADC5_Result32BitChannelCallbackRegister
                  0x81fdc0                  _ADC5_ComparatorCallbackRegister
                  0x81fdc4                  _qtm_itc_config_update
                  0x82029c                  _app_gain_init
                  0x820328                  _app_gain_process
                  0x820474                  _app_mute_set
                  0x820498                  _app_gain_set
                  0x8204c0                  _mute_set
                  0x8204dc                  _gain_set
                  0x8204fc                  _gain_set_db
                  0x820540                  _gain_init
                  0x820658                  _gain_process
                  0x8208a0                  _eq_perseus_init
                  0x820970                  _eq_perseus_process
                  0x8209ac                  _eq_perseus_process_mono
                  0x8209cc                  _eq_perseus_process_stereo
                  0x8209ec                  _eq_perseus_enable
                  0x820a1c                  _eq_perseus_is_enabled
                  0x820a34                  _eq_perseus_set_band
                  0x820a78                  _eq_perseus_get_band
                  0x820a98                  _eq_perseus_set_master_gain
                  0x820ac4                  _eq_perseus_get_master_gain
                  0x820adc                  _eq_perseus_load_preset
                  0x820b68                  _eq_perseus_get_preset_name
                  0x820b8c                  _eq_perseus_reset_to_flat
                  0x820c0c                  _eq_perseus_get_instance
                  0x820c24                  _src_init
                  0x820c34                  _src_reset
                  0x820c44                  _src_downsample_mono
                  0x820d4c                  _src_upsample_mono
                  0x820e6c                  _src_downsample
                  0x820f88                  _src_upsample
                  0x8210c0                  _touch_timer_handler
                  0x8210e8                  _touch_check_node_cc_cal
                  0x82115c                  _touch_init
                  0x821248                  _touch_process
                  0x821404                  _get_sensor_node_signal
                  0x821414                  _update_sensor_node_signal
                  0x821424                  _get_sensor_node_reference
                  0x821438                  _update_sensor_node_reference
                  0x821448                  _get_sensor_cc_val
                  0x821458                  _update_sensor_cc_val
                  0x821468                  _get_sensor_state
                  0x821478                  _get_sensor_threshold
                  0x821488                  _update_sensor_state
                  0x821498                  _calibrate_node
                  0x8214c4                  _get_current_frequency
                  0x8214d0                  _get_filter_frequency
                  0x8214e0                  _get_scroller_state
                  0x8214f0                  _get_scroller_position
                  0x821504                  _get_scroller_contact_size
                  0x821518                  _get_scroller_contact_threshold
                  0x8216e4                  _wm8904_init
                  0x821908                  _convert_tdm_init
                  0x821994                  _convert_tdm_int32_to_float
                  0x821aa8                  _convert_tdm_float_to_int32
                  0x821bb0                  _convert_float_to_pwm_20bit
                  0x821cac                  _DMA_BaseInit
                  0x821d50                  _DMA_VaridateInit
                  0x821dc4                  _TDM_Start
                  0x8223ec                  _dbc_init
                  0x8223f4                  _dbc_feed_char
                  0x822780                  _ADC3in_Start
                  0x822a14                  _ADC3_Cpy_Tdm_Style
                  0x822a4c                  _ADC3_convert_int32_to_float
                  0x822ab8                  _ADC3_Remove_Dc_I32
                  0x822b10                  _aec_init
                  0x822c18                  _aec_reset
                  0x822cdc                  _aec_process
                  0x822e04                  _aec_enable
                  0x822e28                  _aec_get_erle
                  0x822e38                  _aec_is_near_end_speech
                  0x822e44                  _aec_set_step_size
                  0x822e70                  _qtm_freq_hop_autotune
                  0x82319c                  _vad_init
                  0x8231e8                  _vad_reset
                  0x823234                  _vad_compute_energy
                  0x823258                  _vad_update_noise
                  0x8232c0                  _vad_process
                  0x823458                  _vad_get_speech_probability
                  0x8234ac                  _vad_inhibit_adaptation
                  0x8234b4                  _nlms_init
                  0x8234e4                  _nlms_filter
                  0x823528                  _nlms_update
                  0x8235a0                  _nlms_push_sample
                  0x8235d0                  _nlms_compute_energy
                  0x8235f4                  _nlms_update_energy
                  0x823614                  _nlms_process_sample
                  0x823a6c                  _wav_to_tdm_play_se
                  0x823a78                  _wav_to_tdm_float_process
                  0x823d1c                  _ADC4in_Start
                  0x824250                  _UART1_Initialize
                  0x8242e4                  _UART1_Deinitialize
                  0x824300                  _UART1_Read
                  0x824340                  _UART1_Write
                  0x824360                  _UART1_IsRxReady
                  0x824378                  _UART1_IsTxReady
                  0x824398                  _UART1_IsTxDone
                  0x8243b8                  _UART1_ErrorGet
                  0x8246c8                  _qtm_itc_init_acquisition_module
                  0x8248fc                  _spi3_init
                  0x8249cc                  _spi3_CS_assert
                  0x8249d4                  _spi3_CS_deassert
                  0x8249dc                  _spi3_wait_tx_not_full
                  0x8249f4                  _spi3_wait_rx_full
                  0x824a08                  _spi3_xfer8
                  0x824a3c                  _spi3_wait_tx_done
                  0x824a88                  _qtm_acquisition_process
                  0x824d6c                  _qtm_itc_start_measurement_seq
                  0x824ea0                  _level_meter_proc
                  0x825630                  _qtm_dspic33a_touch_handler_eoc
                  0x825738                  _Timer1_Init
                  0x825768                  _GetTicks
                  0x825770                  _delay_ms
                  0x825788                  _delay_us
                  0x825a1c                  _qtm_set_sensor_node_cal
                  0x825a9c                  _qtm_enable_sensor_node
                  0x825ad4                  _qtm_calibrate_sensor_node
                  0x825b08                  _qtm_init_sensor_key
                  0x825b6c                  _POT_Initialize
                  0x825b70                  _POT_Read
                  0x825b78                  _POT_Process
                  0x825bfc                  _qtm_itc_qtlib_assign_signal_memory
                  0x825c88                  _qtm_update_acq_freq_delay
                  0x825c94                  _qtm_update_qtlib_timer

External Symbols in Program Memory (by name):

                  0x822a14                  _ADC3_Cpy_Tdm_Style
                  0x822ab8                  _ADC3_Remove_Dc_I32
                  0x822a4c                  _ADC3_convert_int32_to_float
                  0x822780                  _ADC3in_Start
                  0x823d1c                  _ADC4in_Start
                  0x81fd50                  _ADC5_ChannelCallbackRegister
                  0x81fdc0                  _ADC5_ComparatorCallbackRegister
                  0x81f8cc                  _ADC5_Deinitialize
                  0x81fa7c                  _ADC5_Initialize
                  0x81fbb4                  _ADC5_PWMTriggerSourceSet
                  0x81fd60                  _ADC5_Result32BitChannelCallbackRegister
                  0x81fb98                  _ADC5_SharedCoreCalibration
                  0x81fb7c                  _ADC5_SharedCorePowerEnable
                  0x81e6a8                  _BUTTON_DetectReleased
                  0x81e63c                  _BUTTON_Init
                  0x81e658                  _BUTTON_IsPressed
                  0x821cac                  _DMA_BaseInit
                  0x821d50                  _DMA_VaridateInit
                  0x819898                  _EQ_Enable
                  0x8197d8                  _EQ_GetAllGains
                  0x819664                  _EQ_GetBandGain
                  0x819e28                  _EQ_GetGainsLegacy
                  0x819880                  _EQ_GetMasterGain
                  0x819f0c                  _EQ_GetMasterGainLegacy
                  0x819264                  _EQ_Init
                  0x8198a8                  _EQ_IsEnabled
                  0x819414                  _EQ_Process
                  0x819a3c                  _EQ_ProcessQ15
                  0x819444                  _EQ_ProcessSeparate
                  0x8198c0                  _EQ_Reset
                  0x81968c                  _EQ_SetAllGains
                  0x81948c                  _EQ_SetBandGain
                  0x8198f8                  _EQ_SetBandParams
                  0x819bc4                  _EQ_SetGainsLegacy
                  0x819800                  _EQ_SetMasterGain
                  0x819e84                  _EQ_SetMasterGainLegacy
                  0x8161e8                  _EngineBlip_init
                  0x816260                  _EngineBlip_trigger
                  0x81629c                  _EngineBlip_update
                  0x816a70                  _EngineRumble_setLFO
                  0x816598                  _EngineSynthWrap_init
                  0x816a14                  _EngineSynth_setRPM
                  0x816a20                  _EngineSynth_setTargetRPM
                  0x816a48                  _EngineSynth_setThrottle
                  0x825768                  _GetTicks
                  0x81bed8                  _I2C1_Init
                  0x81bf30                  _I2C2_Init
                  0x81c658                  _I2Cx_ReadByte
                  0x81c2b8                  _I2Cx_SendACK
                  0x81c08c                  _I2Cx_Start
                  0x81c258                  _I2Cx_Stop
                  0x81c368                  _I2Cx_WriteByte
                  0x81e900                  _LED_Off
                  0x81e85c                  _LED_On
                  0x81ebfc                  _LED_Set_Mask
                  0x81e9a4                  _LED_Toggle
                  0x81e818                  _LEDs_Init
                  0x804058                  _NOTIF_ACTION_WAV_SIZE
                  0x81ef2c                  _Osc_Configure_PLL1
                  0x81f0dc                  _Osc_Configure_PLL2
                  0x825b6c                  _POT_Initialize
                  0x825b78                  _POT_Process
                  0x825b70                  _POT_Read
                  0x81d0d8                  _SST26_test
                  0x81ece8                  _Set_OscSrc_to_CLKGEN1
                  0x81eecc                  _Set_OscSrc_to_CLKGEN12
                  0x81ed48                  _Set_OscSrc_to_CLKGEN5
                  0x81eda8                  _Set_OscSrc_to_CLKGEN6
                  0x81ee0c                  _Set_OscSrc_to_CLKGEN8
                  0x81ee6c                  _Set_OscSrc_to_CLKGEN9
                  0x821dc4                  _TDM_Start
                  0x81e770                  _TOUCH_DetectReleased
                  0x81e71c                  _TOUCH_IsPressed
                  0x825738                  _Timer1_Init
                  0x8242e4                  _UART1_Deinitialize
                  0x8243b8                  _UART1_ErrorGet
                  0x824250                  _UART1_Initialize
                  0x824360                  _UART1_IsRxReady
                  0x824398                  _UART1_IsTxDone
                  0x824378                  _UART1_IsTxReady
                  0x824300                  _UART1_Read
                  0x824340                  _UART1_Write
                  0x800a64                  __DMA0Interrupt
                  0x800f6c                  __DMA1Interrupt
                  0x800794                  __DMA2Interrupt
                  0x800894                  __DMA3Interrupt
                  0x801018                  __DMA4Interrupt
                  0x801050                  __DMA5Interrupt
                  0x801088                  __DMA6Interrupt
                  0x8010c0                  __DMA7Interrupt
                  0x800f80                  __DefaultInterrupt
                  0x800934                  __ITCInterrupt
                  0x800fc8                  __PWM5Interrupt
                  0x800fdc                  __PWM6Interrupt
                  0x800ff0                  __PWM7Interrupt
                  0x801004                  __PWM8Interrupt
                  0x800fbc                  __T1Interrupt
                  0x80098c                  __U1RXInterrupt
                  0x803c58                  ___cvt_u
                  0x8010f8                  ___delay32
                  0x803de4                  ___extendsfdf2
                  0x8025b8                  ___fmt_d
                  0x8026e4                  ___fmt_fp
                  0x802c90                  ___fmt_o
                  0x802d54                  ___fmt_s
                  0x803440                  ___fmt_state
                  0x802ddc                  ___fmt_u
                  0x802e68                  ___fmt_x
                  0x803b30                  ___lseek
                  0x803070                  ___out
                  0x803378                  ___pad
                  0x8030e4                  ___pop_float
                  0x803140                  ___pop_int
                  0x8032bc                  ___pop_ptr
                  0x803498                  ___printf_core
                  0x803b40                  ___putc_unbuffered
                  0x80399c                  ___stdio_close_rw
                  0x803d64                  ___stpcpy
                  0x803c14                  ___syscall_ret
                  0x800690                  ___tls_crt_init
                  0x803f64                  ___udivdi3
                  0x803e98                  ___udivmoddi3
                  0x803f6c                  ___umoddi3
                  0x80303c                  ___vfprintf
                  0x800690                  __crt_return_stmt
                  0x801194                  __ctor
                  0x800694                  __data_init
                  0x800694                  __data_init_extended
                  0x8011c8                  __dtor
                  0x803e48                  __funpack
                  0x800004                  __ivt_0
                  0x8005b4                  __resetPRI
                  0x822e04                  _aec_enable
                  0x822e28                  _aec_get_erle
                  0x822b10                  _aec_init
                  0x822e38                  _aec_is_near_end_speech
                  0x822cdc                  _aec_process
                  0x822c18                  _aec_reset
                  0x822e44                  _aec_set_step_size
                  0x814eac                  _app_bassh_enable
                  0x814c88                  _app_bassh_init
                  0x814ef4                  _app_bassh_is_enabled
                  0x814efc                  _app_bassh_preset_speaker_A
                  0x81501c                  _app_bassh_process
                  0x818a34                  _app_ccsynth_init
                  0x818b50                  _app_ccsynth_process
                  0x818b30                  _app_ccsynth_set_enable
                  0x815fc8                  _app_engine_synth_init
                  0x81787c                  _app_engine_synth_process
                  0x82029c                  _app_gain_init
                  0x820328                  _app_gain_process
                  0x820498                  _app_gain_set
                  0x820474                  _app_mute_set
                  0x81acc8                  _app_onmsg
                  0x81b554                  _app_tone_init
                  0x81bc58                  _app_tone_process_bas
                  0x81bbac                  _app_tone_process_mid
                  0x81bb00                  _app_tone_process_tre
                  0x81b9e0                  _app_tone_set_coeffs_bas
                  0x81b8c0                  _app_tone_set_coeffs_mid
                  0x81b7a0                  _app_tone_set_coeffs_tre
                  0x81ab78                  _app_uart_rx_available
                  0x81a03c                  _app_widen_disable
                  0x81a120                  _app_widen_enable
                  0x819f34                  _app_widen_init
                  0x81a300                  _app_widen_process
                  0x803a4c                  _atoi
                  0x813cc8                  _bassh_init
                  0x813dcc                  _bassh_process
                  0x813ce8                  _bassh_set_default_params
                  0x821498                  _calibrate_node
                  0x81831c                  _ccs_init
                  0x8181a4                  _ccs_preset
                  0x8185e0                  _ccs_process_stereo_add
                  0x818334                  _ccs_reset
                  0x818360                  _ccs_set_enabled
                  0x818400                  _ccs_set_interval
                  0x8184a8                  _ccs_set_output_slots
                  0x818458                  _ccs_set_pan
                  0x8184f0                  _ccs_set_po
                  0x818390                  _ccs_trigger
                  0x821bb0                  _convert_float_to_pwm_20bit
                  0x821aa8                  _convert_tdm_float_to_int32
                  0x821908                  _convert_tdm_init
                  0x821994                  _convert_tdm_int32_to_float
                  0x8223f4                  _dbc_feed_char
                  0x8223ec                  _dbc_init
                  0x825770                  _delay_ms
                  0x825788                  _delay_us
                  0x81e490                  _dma4_pwm5_process
                  0x81e4bc                  _dma5_pwm6_process
                  0x81e4e8                  _dma6_pwm7_process
                  0x81e514                  _dma7_pwm8_process
                  0x816a74                  _engine_process
                  0x81f70c                  _eq_benchmark_compare_output
                  0x81f300                  _eq_benchmark_init
                  0x81f3dc                  _eq_benchmark_run
                  0x8209ec                  _eq_perseus_enable
                  0x820a78                  _eq_perseus_get_band
                  0x820c0c                  _eq_perseus_get_instance
                  0x820ac4                  _eq_perseus_get_master_gain
                  0x820b68                  _eq_perseus_get_preset_name
                  0x8208a0                  _eq_perseus_init
                  0x820a1c                  _eq_perseus_is_enabled
                  0x820adc                  _eq_perseus_load_preset
                  0x820970                  _eq_perseus_process
                  0x8209ac                  _eq_perseus_process_mono
                  0x8209cc                  _eq_perseus_process_stereo
                  0x820b8c                  _eq_perseus_reset_to_flat
                  0x820a34                  _eq_perseus_set_band
                  0x820a98                  _eq_perseus_set_master_gain
                  0x8011ec                  _expf
                  0x80219c                  _expm1f
                  0x8024a4                  _fabsf
                  0x803f74                  _floorl
                  0x803ab4                  _fputs
                  0x803af0                  _fwrite
                  0x820540                  _gain_init
                  0x820658                  _gain_process
                  0x8204dc                  _gain_set
                  0x8204fc                  _gain_set_db
                  0x8214c4                  _get_current_frequency
                  0x8214d0                  _get_filter_frequency
                  0x821504                  _get_scroller_contact_size
                  0x821518                  _get_scroller_contact_threshold
                  0x8214f0                  _get_scroller_position
                  0x8214e0                  _get_scroller_state
                  0x821448                  _get_sensor_cc_val
                  0x821424                  _get_sensor_node_reference
                  0x821404                  _get_sensor_node_signal
                  0x821468                  _get_sensor_state
                  0x821478                  _get_sensor_threshold
                  0x824ea0                  _level_meter_proc
                  0x8013bc                  _log10f
                  0x801584                  _logf
                  0x801710                  _lrintf
                  0x81c834                  _main
                  0x802534                  _memcpy
                  0x802550                  _memset
                  0x8204c0                  _mute_set
                  0x8235d0                  _nlms_compute_energy
                  0x8234e4                  _nlms_filter
                  0x8234b4                  _nlms_init
                  0x823614                  _nlms_process_sample
                  0x8235a0                  _nlms_push_sample
                  0x823528                  _nlms_update
                  0x8235f4                  _nlms_update_energy
                  0x80405c                  _notif_action_i16
                  0x81bfb0                  _pI2CxBITObits
                  0x81c014                  _pI2CxCON1
                  0x81c028                  _pI2CxCON1bits
                  0x81c03c                  _pI2CxCON2
                  0x81c050                  _pI2CxCON2bits
                  0x81bf9c                  _pI2CxHBRG
                  0x81bf88                  _pI2CxLBRG
                  0x81c078                  _pI2CxRCV
                  0x81bfc4                  _pI2CxSTAT1
                  0x81bfd8                  _pI2CxSTAT1bits
                  0x81bfec                  _pI2CxSTAT2
                  0x81c000                  _pI2CxSTAT2bits
                  0x81c064                  _pI2CxTRN
                  0x80171c                  _powf
                  0x803b94                  _putc
                  0x802568                  _putchar
                  0x802578                  _puts
                  0x81e540                  _pwm1_set_duty
                  0x81e594                  _pwm2_set_duty
                  0x81e5e8                  _pwm3_set_duty
                  0x81df00                  _pwm_init
                  0x824a88                  _qtm_acquisition_process
                  0x825ad4                  _qtm_calibrate_sensor_node
                  0x825630                  _qtm_dspic33a_touch_handler_eoc
                  0x825a9c                  _qtm_enable_sensor_node
                  0x822e70                  _qtm_freq_hop_autotune
                  0x825b08                  _qtm_init_sensor_key
                  0x81fdc4                  _qtm_itc_config_update
                  0x8246c8                  _qtm_itc_init_acquisition_module
                  0x825bfc                  _qtm_itc_qtlib_assign_signal_memory
                  0x824d6c                  _qtm_itc_start_measurement_seq
                  0x81d7c0                  _qtm_key_sensors_process
                  0x825a1c                  _qtm_set_sensor_node_cal
                  0x825c88                  _qtm_update_acq_freq_delay
                  0x825c94                  _qtm_update_qtlib_timer
                  0x801e78                  _rintf
                  0x801ef0                  _scalbnf
                  0x8249cc                  _spi3_CS_assert
                  0x8249d4                  _spi3_CS_deassert
                  0x8248fc                  _spi3_init
                  0x8249f4                  _spi3_wait_rx_full
                  0x824a3c                  _spi3_wait_tx_done
                  0x8249dc                  _spi3_wait_tx_not_full
                  0x824a08                  _spi3_xfer8
                  0x801f84                  _sqrtf
                  0x820e6c                  _src_downsample
                  0x820c44                  _src_downsample_mono
                  0x820c24                  _src_init
                  0x820c34                  _src_reset
                  0x820f88                  _src_upsample
                  0x820d4c                  _src_upsample_mono
                  0x81d69c                  _sst26_chip_erase
                  0x81d798                  _sst26_page_program
                  0x81d5a8                  _sst26_read_fast
                  0x81d510                  _sst26_read_jedec_id
                  0x81d624                  _sst26_sector_erase_4k
                  0x81d6fc                  _sst26_verify
                  0x81d614                  _sst26_write_enable
                  0x803b98                  _strcpy
                  0x803ba8                  _strlen
                  0x8020c0                  _tanhf
                  0x803c34                  _tolower
                  0x81bd04                  _tone_init
                  0x81be34                  _tone_process
                  0x81bd24                  _tone_set_coeffs
                  0x8210e8                  _touch_check_node_cc_cal
                  0x82115c                  _touch_init
                  0x821248                  _touch_process
                  0x8210c0                  _touch_timer_handler
                  0x803c44                  _toupper
                  0x821458                  _update_sensor_cc_val
                  0x821438                  _update_sensor_node_reference
                  0x821414                  _update_sensor_node_signal
                  0x821488                  _update_sensor_state
                  0x823234                  _vad_compute_energy
                  0x823458                  _vad_get_speech_probability
                  0x8234ac                  _vad_inhibit_adaptation
                  0x82319c                  _vad_init
                  0x8232c0                  _vad_process
                  0x8231e8                  _vad_reset
                  0x823258                  _vad_update_noise
                  0x823a78                  _wav_to_tdm_float_process
                  0x823a6c                  _wav_to_tdm_play_se
                  0x81a6d4                  _widen_init
                  0x81a95c                  _widen_process
                  0x81a7a0                  _widen_set_params
                  0x8216e4                  _wm8904_init
                  0x80110c                  _write


#pragma config definitions maximum

Address: 7F3000	fuse word has NOT been written

Fuse             Default Value?
-------------------------------
CP               yes
WPUCA            yes
FCP_CRC          yes

Address: 7F3010	fuse word has NOT been written

Fuse             Default Value?
-------------------------------
JTAGEN           yes
NOBTSWP          yes

Address: 7F3020	fuse word has been written

Fuse             Default Value?
-------------------------------
ALTI2C1          yes
ALTI2C2          no
ALTI2C3          yes
BISTDIS          yes
SPI2PIN          yes

Address: 7F3030	fuse word has NOT been written

Fuse             Default Value?
-------------------------------
WINDIS           yes
SWDTMPS          yes
RCLKSEL          yes
RWDTPS           yes
WDTWIN           yes
WDTEN            yes
WDTRSTEN         yes
WDTNVMSTL        yes

Address: 7F4000	fuse word has NOT been written

Fuse             Default Value?
-------------------------------
FPR0CTRL_RDIS    yes
FPR0CTRL_ERAO    yes
FPR0CTRL_EX      yes
FPR0CTRL_RD      yes
FPR0CTRL_WR      yes
FPR0CTRL_CRC     yes
FPR0CTRL_RTYPE   yes
FPR0CTRL_PSEL    yes

Address: 7F4004	fuse word has NOT been written

Fuse             Default Value?
-------------------------------
FPR0ST_START     yes

Address: 7F4008	fuse word has NOT been written

Fuse             Default Value?
-------------------------------
FPR0END_END      yes

Address: 7F4010	fuse word has NOT been written

Fuse             Default Value?
-------------------------------
FPR1CTRL_RDIS    yes
FPR1CTRL_ERAO    yes
FPR1CTRL_EX      yes
FPR1CTRL_RD      yes
FPR1CTRL_WR      yes
FPR1CTRL_CRC     yes
FPR1CTRL_RTYPE   yes
FPR1CTRL_PSEL    yes

Address: 7F4014	fuse word has NOT been written

Fuse             Default Value?
-------------------------------
FPR1ST_START     yes

Address: 7F4018	fuse word has NOT been written

Fuse             Default Value?
-------------------------------
FPR1END_END      yes

Address: 7F4020	fuse word has NOT been written

Fuse             Default Value?
-------------------------------
FPR2CTRL_RDIS    yes
FPR2CTRL_ERAO    yes
FPR2CTRL_EX      yes
FPR2CTRL_RD      yes
FPR2CTRL_WR      yes
FPR2CTRL_CRC     yes
FPR2CTRL_RTYPE   yes
FPR2CTRL_PSEL    yes

Address: 7F4024	fuse word has NOT been written

Fuse             Default Value?
-------------------------------
FPR2ST_START     yes

Address: 7F4028	fuse word has NOT been written

Fuse             Default Value?
-------------------------------
FPR2END_END      yes

Address: 7F4030	fuse word has NOT been written

Fuse             Default Value?
-------------------------------
FPR3CTRL_RDIS    yes
FPR3CTRL_ERAO    yes
FPR3CTRL_EX      yes
FPR3CTRL_RD      yes
FPR3CTRL_WR      yes
FPR3CTRL_CRC     yes
FPR3CTRL_RTYPE   yes
FPR3CTRL_PSEL    yes

Address: 7F4034	fuse word has NOT been written

Fuse             Default Value?
-------------------------------
FPR3ST_START     yes

Address: 7F4038	fuse word has NOT been written

Fuse             Default Value?
-------------------------------
FPR3END_END      yes

Address: 7F4040	fuse word has NOT been written

Fuse             Default Value?
-------------------------------
FPR4CTRL_RDIS    yes
FPR4CTRL_ERAO    yes
FPR4CTRL_EX      yes
FPR4CTRL_RD      yes
FPR4CTRL_WR      yes
FPR4CTRL_CRC     yes
FPR4CTRL_RTYPE   yes
FPR4CTRL_PSEL    yes

Address: 7F4044	fuse word has NOT been written

Fuse             Default Value?
-------------------------------
FPR4ST_START     yes

Address: 7F4048	fuse word has NOT been written

Fuse             Default Value?
-------------------------------
FPR4END_END      yes

Address: 7F4050	fuse word has NOT been written

Fuse             Default Value?
-------------------------------
FPR5CTRL_RDIS    yes
FPR5CTRL_ERAO    yes
FPR5CTRL_EX      yes
FPR5CTRL_RD      yes
FPR5CTRL_WR      yes
FPR5CTRL_CRC     yes
FPR5CTRL_RTYPE   yes
FPR5CTRL_PSEL    yes

Address: 7F4054	fuse word has NOT been written

Fuse             Default Value?
-------------------------------
FPR5ST_START     yes

Address: 7F4058	fuse word has NOT been written

Fuse             Default Value?
-------------------------------
FPR5END_END      yes

Address: 7F4060	fuse word has NOT been written

Fuse             Default Value?
-------------------------------
FPR6CTRL_RDIS    yes
FPR6CTRL_ERAO    yes
FPR6CTRL_EX      yes
FPR6CTRL_RD      yes
FPR6CTRL_WR      yes
FPR6CTRL_CRC     yes
FPR6CTRL_RTYPE   yes
FPR6CTRL_PSEL    yes

Address: 7F4064	fuse word has NOT been written

Fuse             Default Value?
-------------------------------
FPR6ST_START     yes

Address: 7F4068	fuse word has NOT been written

Fuse             Default Value?
-------------------------------
FPR6END_END      yes

Address: 7F4070	fuse word has NOT been written

Fuse             Default Value?
-------------------------------
FPR7CTRL_RDIS    yes
FPR7CTRL_ERAO    yes
FPR7CTRL_EX      yes
FPR7CTRL_RD      yes
FPR7CTRL_WR      yes
FPR7CTRL_CRC     yes
FPR7CTRL_RTYPE   yes
FPR7CTRL_PSEL    yes

Address: 7F4074	fuse word has NOT been written

Fuse             Default Value?
-------------------------------
FPR7ST_START     yes

Address: 7F4078	fuse word has NOT been written

Fuse             Default Value?
-------------------------------
FPR7END_END      yes

Address: 7F4080	fuse word has NOT been written

Fuse             Default Value?
-------------------------------
IRT              yes

Address: 7F4090	fuse word has NOT been written

Fuse             Default Value?
-------------------------------
SECDBG           yes

Address: 7F40A0	fuse word has NOT been written

Fuse             Default Value?
-------------------------------
ICSPPED          yes

Address: 7F40B0	fuse word has NOT been written

Fuse             Default Value?
-------------------------------
EPUCB            yes

Address: 7F40C0	fuse word has NOT been written

Fuse             Default Value?
-------------------------------
WPUCB            yes

Address: 7F40D0	fuse word has NOT been written

Fuse             Default Value?
-------------------------------
BTMODE           yes
PROG             yes


Discarded input sections

 .data              0x0000          0x0 build/dsPIC33AK512/production/_ext/659850406/adc5.o
 .bss               0x0000          0x0 build/dsPIC33AK512/production/_ext/659850406/adc5.o
 .text              0x0000          0x0 build/dsPIC33AK512/production/_ext/659850406/adc1.o
 .data              0x0000          0x0 build/dsPIC33AK512/production/_ext/659850406/adc1.o
 .bss               0x0000          0x0 build/dsPIC33AK512/production/_ext/659850406/adc1.o
 .debug_line        0x0000          0x0 build/dsPIC33AK512/production/_ext/659850406/adc1.o
 .debug_str         0x0000          0x0 build/dsPIC33AK512/production/_ext/659850406/adc1.o
 .comment           0x0000         0x5c build/dsPIC33AK512/production/_ext/659850406/adc1.o
 __c30_signature
                    0x0000          0x6 build/dsPIC33AK512/production/_ext/659850406/adc1.o
 .data              0x0000          0x0 build/dsPIC33AK512/production/_ext/659850406/adc3.o
 .bss               0x0000          0x0 build/dsPIC33AK512/production/_ext/659850406/adc3.o
 .data              0x0000          0x0 build/dsPIC33AK512/production/_ext/659850406/adc4.o
 .bss               0x0000          0x0 build/dsPIC33AK512/production/_ext/659850406/adc4.o
 .data              0x0000          0x0 build/dsPIC33AK512/production/_ext/1538408868/float_conversion.o
 .bss               0x0000          0x0 build/dsPIC33AK512/production/_ext/1538408868/float_conversion.o
 .data              0x0000          0x0 build/dsPIC33AK512/production/_ext/1538408868/gain_ctrl.o
 .bss               0x0000          0x0 build/dsPIC33AK512/production/_ext/1538408868/gain_ctrl.o
 .data              0x0000          0x0 build/dsPIC33AK512/production/_ext/1538408868/tone_ctrl.o
 .bss               0x0000          0x0 build/dsPIC33AK512/production/_ext/1538408868/tone_ctrl.o
 .text              0x0000          0x0 build/dsPIC33AK512/production/_ext/1538408868/transient.o
 .data              0x0000          0x0 build/dsPIC33AK512/production/_ext/1538408868/transient.o
 .bss               0x0000          0x0 build/dsPIC33AK512/production/_ext/1538408868/transient.o
 .debug_line        0x0000          0x0 build/dsPIC33AK512/production/_ext/1538408868/transient.o
 .debug_str         0x0000          0x0 build/dsPIC33AK512/production/_ext/1538408868/transient.o
 .comment           0x0000         0x5c build/dsPIC33AK512/production/_ext/1538408868/transient.o
 __c30_signature
                    0x0000          0x6 build/dsPIC33AK512/production/_ext/1538408868/transient.o
 .text              0x0000          0x0 build/dsPIC33AK512/production/_ext/1538408868/reverb.o
 .data              0x0000          0x0 build/dsPIC33AK512/production/_ext/1538408868/reverb.o
 .bss               0x0000          0x0 build/dsPIC33AK512/production/_ext/1538408868/reverb.o
 .debug_line        0x0000          0x0 build/dsPIC33AK512/production/_ext/1538408868/reverb.o
 .debug_str         0x0000          0x0 build/dsPIC33AK512/production/_ext/1538408868/reverb.o
 .comment           0x0000         0x5c build/dsPIC33AK512/production/_ext/1538408868/reverb.o
 __c30_signature
                    0x0000          0x6 build/dsPIC33AK512/production/_ext/1538408868/reverb.o
 .text              0x0000          0x0 build/dsPIC33AK512/production/_ext/1538408868/lpf_process.o
 .data              0x0000          0x0 build/dsPIC33AK512/production/_ext/1538408868/lpf_process.o
 .bss               0x0000          0x0 build/dsPIC33AK512/production/_ext/1538408868/lpf_process.o
 .debug_line        0x0000          0x0 build/dsPIC33AK512/production/_ext/1538408868/lpf_process.o
 .debug_str         0x0000          0x0 build/dsPIC33AK512/production/_ext/1538408868/lpf_process.o
 .comment           0x0000         0x5c build/dsPIC33AK512/production/_ext/1538408868/lpf_process.o
 __c30_signature
                    0x0000          0x6 build/dsPIC33AK512/production/_ext/1538408868/lpf_process.o
 .text              0x0000          0x0 build/dsPIC33AK512/production/_ext/1538408868/reverb_smooth.o
 .data              0x0000          0x0 build/dsPIC33AK512/production/_ext/1538408868/reverb_smooth.o
 .bss               0x0000          0x0 build/dsPIC33AK512/production/_ext/1538408868/reverb_smooth.o
 .debug_line        0x0000          0x0 build/dsPIC33AK512/production/_ext/1538408868/reverb_smooth.o
 .debug_str         0x0000          0x0 build/dsPIC33AK512/production/_ext/1538408868/reverb_smooth.o
 .comment           0x0000         0x5c build/dsPIC33AK512/production/_ext/1538408868/reverb_smooth.o
 __c30_signature
                    0x0000          0x6 build/dsPIC33AK512/production/_ext/1538408868/reverb_smooth.o
 .text              0x0000          0x0 build/dsPIC33AK512/production/_ext/1538408868/hpf_process.o
 .data              0x0000          0x0 build/dsPIC33AK512/production/_ext/1538408868/hpf_process.o
 .bss               0x0000          0x0 build/dsPIC33AK512/production/_ext/1538408868/hpf_process.o
 .debug_line        0x0000          0x0 build/dsPIC33AK512/production/_ext/1538408868/hpf_process.o
 .debug_str         0x0000          0x0 build/dsPIC33AK512/production/_ext/1538408868/hpf_process.o
 .comment           0x0000         0x5c build/dsPIC33AK512/production/_ext/1538408868/hpf_process.o
 __c30_signature
                    0x0000          0x6 build/dsPIC33AK512/production/_ext/1538408868/hpf_process.o
 .data              0x0000          0x0 build/dsPIC33AK512/production/_ext/1538408868/LED_level_meter.o
 .bss               0x0000          0x0 build/dsPIC33AK512/production/_ext/1538408868/LED_level_meter.o
 .text              0x0000          0x0 build/dsPIC33AK512/production/_ext/1538408868/simple_loudmeter.o
 .data              0x0000          0x0 build/dsPIC33AK512/production/_ext/1538408868/simple_loudmeter.o
 .bss               0x0000          0x0 build/dsPIC33AK512/production/_ext/1538408868/simple_loudmeter.o
 .debug_line        0x0000          0x0 build/dsPIC33AK512/production/_ext/1538408868/simple_loudmeter.o
 .debug_str         0x0000          0x0 build/dsPIC33AK512/production/_ext/1538408868/simple_loudmeter.o
 .comment           0x0000         0x5c build/dsPIC33AK512/production/_ext/1538408868/simple_loudmeter.o
 __c30_signature
                    0x0000          0x6 build/dsPIC33AK512/production/_ext/1538408868/simple_loudmeter.o
 .data              0x0000          0x0 build/dsPIC33AK512/production/_ext/1538408868/snd_effect_play.o
 .bss               0x0000          0x0 build/dsPIC33AK512/production/_ext/1538408868/snd_effect_play.o
 .data              0x0000          0x0 build/dsPIC33AK512/production/_ext/1538408868/engine_synth.o
 .bss               0x0000          0x0 build/dsPIC33AK512/production/_ext/1538408868/engine_synth.o
 .data              0x0000          0x0 build/dsPIC33AK512/production/_ext/1538408868/widen_ctrl.o
 .bss               0x0000          0x0 build/dsPIC33AK512/production/_ext/1538408868/widen_ctrl.o
 .data              0x0000          0x0 build/dsPIC33AK512/production/_ext/1538408868/bass_enhancer.o
 .bss               0x0000          0x0 build/dsPIC33AK512/production/_ext/1538408868/bass_enhancer.o
 .data              0x0000          0x0 build/dsPIC33AK512/production/_ext/1538408868/click_crack_synth.o
 .bss               0x0000          0x0 build/dsPIC33AK512/production/_ext/1538408868/click_crack_synth.o
 .data              0x0000          0x0 build/dsPIC33AK512/production/_ext/1034234695/button_led.o
 .bss               0x0000          0x0 build/dsPIC33AK512/production/_ext/1034234695/button_led.o
 .data              0x0000          0x0 build/dsPIC33AK512/production/_ext/1034234695/pot.o
 .bss               0x0000          0x0 build/dsPIC33AK512/production/_ext/1034234695/pot.o
 .data              0x0000          0x0 build/dsPIC33AK512/production/_ext/1536116519/app_debug.o
 .bss               0x0000          0x0 build/dsPIC33AK512/production/_ext/1536116519/app_debug.o
 .data              0x0000          0x0 build/dsPIC33AK512/production/_ext/1536116519/dbconsole.o
 .bss               0x0000          0x0 build/dsPIC33AK512/production/_ext/1536116519/dbconsole.o
 .data              0x0000          0x0 build/dsPIC33AK512/production/_ext/1521024571/touch.o
 .bss               0x0000          0x0 build/dsPIC33AK512/production/_ext/1521024571/touch.o
 .data              0x0000          0x0 build/dsPIC33AK512/production/_ext/1018880376/uart1.o
 .bss               0x0000          0x0 build/dsPIC33AK512/production/_ext/1018880376/uart1.o
 .libc.read         0x0000         0xcc build/dsPIC33AK512/production/_ext/1018880376/uart1.o
 .data              0x0000          0x0 build/dsPIC33AK512/production/_ext/1360937237/SPI_TDM_drv.o
 .bss               0x0000          0x0 build/dsPIC33AK512/production/_ext/1360937237/SPI_TDM_drv.o
 .data              0x0000          0x0 build/dsPIC33AK512/production/_ext/1360937237/i2c.o
 .bss               0x0000          0x0 build/dsPIC33AK512/production/_ext/1360937237/i2c.o
 .data              0x0000          0x0 build/dsPIC33AK512/production/_ext/1360937237/main.o
 .bss               0x0000          0x0 build/dsPIC33AK512/production/_ext/1360937237/main.o
 .data              0x0000          0x0 build/dsPIC33AK512/production/_ext/1360937237/osc_drv.o
 .bss               0x0000          0x0 build/dsPIC33AK512/production/_ext/1360937237/osc_drv.o
 .text              0x0000        0x3a4 build/dsPIC33AK512/production/_ext/1360937237/wm8731.o
 .data              0x0000          0x0 build/dsPIC33AK512/production/_ext/1360937237/wm8731.o
 .bss               0x0000          0x0 build/dsPIC33AK512/production/_ext/1360937237/wm8731.o
 .nbss              0x0000          0x4 build/dsPIC33AK512/production/_ext/1360937237/wm8731.o
 .ndata             0x0000         0x10 build/dsPIC33AK512/production/_ext/1360937237/wm8731.o
 .debug_frame       0x0000        0x234 build/dsPIC33AK512/production/_ext/1360937237/wm8731.o
 .debug_info        0x0000        0xd57 build/dsPIC33AK512/production/_ext/1360937237/wm8731.o
 .debug_abbrev      0x0000         0xf7 build/dsPIC33AK512/production/_ext/1360937237/wm8731.o
 .debug_loc         0x0000         0x84 build/dsPIC33AK512/production/_ext/1360937237/wm8731.o
 .debug_aranges
                    0x0000        0x128 build/dsPIC33AK512/production/_ext/1360937237/wm8731.o
 .debug_ranges      0x0000        0x118 build/dsPIC33AK512/production/_ext/1360937237/wm8731.o
 .debug_line        0x0000        0x7eb build/dsPIC33AK512/production/_ext/1360937237/wm8731.o
 .debug_str         0x0000         0x1a build/dsPIC33AK512/production/_ext/1360937237/wm8731.o
 .comment           0x0000         0x5c build/dsPIC33AK512/production/_ext/1360937237/wm8731.o
 __c30_signature
                    0x0000          0x6 build/dsPIC33AK512/production/_ext/1360937237/wm8731.o
 .data              0x0000          0x0 build/dsPIC33AK512/production/_ext/1360937237/tick_time.o
 .bss               0x0000          0x0 build/dsPIC33AK512/production/_ext/1360937237/tick_time.o
 .data              0x0000          0x0 build/dsPIC33AK512/production/_ext/1360937237/pwm.o
 .bss               0x0000          0x0 build/dsPIC33AK512/production/_ext/1360937237/pwm.o
 .data              0x0000          0x0 build/dsPIC33AK512/production/_ext/1360937237/wm8904.o
 .bss               0x0000          0x0 build/dsPIC33AK512/production/_ext/1360937237/wm8904.o
 .data              0x0000          0x0 build/dsPIC33AK512/production/_ext/1360937237/SPI3_drv.o
 .bss               0x0000          0x0 build/dsPIC33AK512/production/_ext/1360937237/SPI3_drv.o
 .data              0x0000          0x0 build/dsPIC33AK512/production/_ext/1360937237/SST26_drv.o
 .bss               0x0000          0x0 build/dsPIC33AK512/production/_ext/1360937237/SST26_drv.o
 .data              0x0000          0x0 build/dsPIC33AK512/production/_ext/335358292/eq_api_33AK.o
 .bss               0x0000          0x0 build/dsPIC33AK512/production/_ext/335358292/eq_api_33AK.o
 .data              0x0000          0x0 build/dsPIC33AK512/production/_ext/335358292/eq_perseus_wrapper.o
 .bss               0x0000          0x0 build/dsPIC33AK512/production/_ext/335358292/eq_perseus_wrapper.o
 .data              0x0000          0x0 build/dsPIC33AK512/production/_ext/1536116519/eq_benchmark.o
 .bss               0x0000          0x0 build/dsPIC33AK512/production/_ext/1536116519/eq_benchmark.o
 .data              0x0000          0x0 build/dsPIC33AK512/production/_ext/1538408868/aec_33ak.o
 .bss               0x0000          0x0 build/dsPIC33AK512/production/_ext/1538408868/aec_33ak.o
 .data              0x0000          0x0 build/dsPIC33AK512/production/_ext/1538408868/aec_nlms_float.o
 .bss               0x0000          0x0 build/dsPIC33AK512/production/_ext/1538408868/aec_nlms_float.o
 .data              0x0000          0x0 build/dsPIC33AK512/production/_ext/1538408868/aec_src.o
 .bss               0x0000          0x0 build/dsPIC33AK512/production/_ext/1538408868/aec_src.o
 .data              0x0000          0x0 build/dsPIC33AK512/production/_ext/1538408868/aec_vad_float.o
 .bss               0x0000          0x0 build/dsPIC33AK512/production/_ext/1538408868/aec_vad_float.o
 .text              0x0000          0x0 ..\src\touch\lib\qtm_acq_dspic33ak_mp_0x0051.X.a(pic_acq_x_dspic33ak_mp.o)
 .text.qtm_enable_touch
                    0x0000         0x44 ..\src\touch\lib\qtm_acq_dspic33ak_mp_0x0051.X.a(pic_acq_x_dspic33ak_mp.o)
 .text.qtm_itc_de_init
                    0x0000          0xc ..\src\touch\lib\qtm_acq_dspic33ak_mp_0x0051.X.a(pic_acq_x_dspic33ak_mp.o)
 .text.qtm_disable_touch
                    0x0000          0xc ..\src\touch\lib\qtm_acq_dspic33ak_mp_0x0051.X.a(pic_acq_x_dspic33ak_mp.o)
 .text.qtm_disable_sensor_node
                    0x0000         0x34 ..\src\touch\lib\qtm_acq_dspic33ak_mp_0x0051.X.a(pic_acq_x_dspic33ak_mp.o)
 .text.qtm_get_current_measure_channel
                    0x0000          0xc ..\src\touch\lib\qtm_acq_dspic33ak_mp_0x0051.X.a(pic_acq_x_dspic33ak_mp.o)
 .text.qtm_dspic33a_acq_module_get_id
                    0x0000          0x4 ..\src\touch\lib\qtm_acq_dspic33ak_mp_0x0051.X.a(pic_acq_x_dspic33ak_mp.o)
 .text.qtm_dspic33a_acq_module_get_ver
                    0x0000          0x4 ..\src\touch\lib\qtm_acq_dspic33ak_mp_0x0051.X.a(pic_acq_x_dspic33ak_mp.o)
 .text              0x0000          0x0 ..\src\touch\lib\qtm_freq_hop_auto_dspic33akmp_0x0004.X.a(pic_freq_hop_auto_x_dspic33akmp.o)
 .data              0x0000          0x0 ..\src\touch\lib\qtm_freq_hop_auto_dspic33akmp_0x0004.X.a(pic_freq_hop_auto_x_dspic33akmp.o)
 .bss               0x0000          0x0 ..\src\touch\lib\qtm_freq_hop_auto_dspic33akmp_0x0004.X.a(pic_freq_hop_auto_x_dspic33akmp.o)
 .text.qtm_get_freq_auto_module_id
                    0x0000          0x4 ..\src\touch\lib\qtm_freq_hop_auto_dspic33akmp_0x0004.X.a(pic_freq_hop_auto_x_dspic33akmp.o)
 .text.qtm_get_freq_auto_module_ver
                    0x0000          0x4 ..\src\touch\lib\qtm_freq_hop_auto_dspic33akmp_0x0004.X.a(pic_freq_hop_auto_x_dspic33akmp.o)
 .text              0x0000          0x0 ..\src\touch\lib\qtm_touch_key_dspic33akmp_0x0002.X.a(pic_touch_key_x_dspic33akmp.o)
 .data              0x0000          0x0 ..\src\touch\lib\qtm_touch_key_dspic33akmp_0x0002.X.a(pic_touch_key_x_dspic33akmp.o)
 .text.qtm_key_suspend
                    0x0000         0x40 ..\src\touch\lib\qtm_touch_key_dspic33akmp_0x0002.X.a(pic_touch_key_x_dspic33akmp.o)
 .text.qtm_key_resume
                    0x0000         0x40 ..\src\touch\lib\qtm_touch_key_dspic33akmp_0x0002.X.a(pic_touch_key_x_dspic33akmp.o)
 .text.qtm_get_touch_keys_module_id
                    0x0000          0x4 ..\src\touch\lib\qtm_touch_key_dspic33akmp_0x0002.X.a(pic_touch_key_x_dspic33akmp.o)
 .text.qtm_get_touch_keys_module_ver
                    0x0000          0x4 ..\src\touch\lib\qtm_touch_key_dspic33akmp_0x0002.X.a(pic_touch_key_x_dspic33akmp.o)
 .text              0x0000          0x0 c:/program files/microchip/xc-dsc/v3.31/bin/bin/../../lib\libc99-pic30-elf.a(crt_start_mode_normal.AAMeo)
 .data              0x0000          0x0 c:/program files/microchip/xc-dsc/v3.31/bin/bin/../../lib\libc99-pic30-elf.a(crt_start_mode_normal.AAMeo)
 .bss               0x0000          0x0 c:/program files/microchip/xc-dsc/v3.31/bin/bin/../../lib\libc99-pic30-elf.a(crt_start_mode_normal.AAMeo)
 .text              0x0000          0x0 c:/program files/microchip/xc-dsc/v3.31/bin/bin/../../lib\libc99-pic30-elf.a(delay32.AAMeo)
 .data              0x0000          0x0 c:/program files/microchip/xc-dsc/v3.31/bin/bin/../../lib\libc99-pic30-elf.a(delay32.AAMeo)
 .bss               0x0000          0x0 c:/program files/microchip/xc-dsc/v3.31/bin/bin/../../lib\libc99-pic30-elf.a(delay32.AAMeo)
 .text              0x0000          0x0 c:/program files/microchip/xc-dsc/v3.31/bin/bin/../../lib\libc99-pic30-elf.a(crt0_extendedaa.o)
 .data              0x0000          0x0 c:/program files/microchip/xc-dsc/v3.31/bin/bin/../../lib\libc99-pic30-elf.a(crt0_extendedaa.o)
 .bss               0x0000          0x0 c:/program files/microchip/xc-dsc/v3.31/bin/bin/../../lib\libc99-pic30-elf.a(crt0_extendedaa.o)
 .text              0x0000          0x0 c:/program files/microchip/xc-dsc/v3.31/bin/bin/../../lib\libc99-pic30-elf.a(data_init_extendedaa.o)
 .data              0x0000          0x0 c:/program files/microchip/xc-dsc/v3.31/bin/bin/../../lib\libc99-pic30-elf.a(data_init_extendedaa.o)
 .bss               0x0000          0x0 c:/program files/microchip/xc-dsc/v3.31/bin/bin/../../lib\libc99-pic30-elf.a(data_init_extendedaa.o)
 .text              0x0000          0x0 c:/program files/microchip/xc-dsc/v3.31/bin/bin/../../lib\libc99-pic30-elf.a(crt_ctor.aa.AAMeo)
 .data              0x0000          0x4 c:/program files/microchip/xc-dsc/v3.31/bin/bin/../../lib\libc99-pic30-elf.a(crt_ctor.aa.AAMeo)
 .bss               0x0000          0x0 c:/program files/microchip/xc-dsc/v3.31/bin/bin/../../lib\libc99-pic30-elf.a(crt_ctor.aa.AAMeo)
 .text              0x0000          0x0 c:/program files/microchip/xc-dsc/v3.31/bin/bin/../../lib\libm-elf.a(expf.AA_o)
 .bss               0x0000          0x0 c:/program files/microchip/xc-dsc/v3.31/bin/bin/../../lib\libm-elf.a(expf.AA_o)
 .text              0x0000          0x0 c:/program files/microchip/xc-dsc/v3.31/bin/bin/../../lib\libm-elf.a(log10f.AA_o)
 .data              0x0000          0x0 c:/program files/microchip/xc-dsc/v3.31/bin/bin/../../lib\libm-elf.a(log10f.AA_o)
 .bss               0x0000          0x0 c:/program files/microchip/xc-dsc/v3.31/bin/bin/../../lib\libm-elf.a(log10f.AA_o)
 .text              0x0000          0x0 c:/program files/microchip/xc-dsc/v3.31/bin/bin/../../lib\libm-elf.a(logf.AA_o)
 .data              0x0000          0x0 c:/program files/microchip/xc-dsc/v3.31/bin/bin/../../lib\libm-elf.a(logf.AA_o)
 .bss               0x0000          0x0 c:/program files/microchip/xc-dsc/v3.31/bin/bin/../../lib\libm-elf.a(logf.AA_o)
 .text              0x0000          0x0 c:/program files/microchip/xc-dsc/v3.31/bin/bin/../../lib\libm-elf.a(lrintf.AA_o)
 .data              0x0000          0x0 c:/program files/microchip/xc-dsc/v3.31/bin/bin/../../lib\libm-elf.a(lrintf.AA_o)
 .bss               0x0000          0x0 c:/program files/microchip/xc-dsc/v3.31/bin/bin/../../lib\libm-elf.a(lrintf.AA_o)
 .text              0x0000          0x0 c:/program files/microchip/xc-dsc/v3.31/bin/bin/../../lib\libm-elf.a(powf.AA_o)
 .bss               0x0000          0x0 c:/program files/microchip/xc-dsc/v3.31/bin/bin/../../lib\libm-elf.a(powf.AA_o)
 .text              0x0000          0x0 c:/program files/microchip/xc-dsc/v3.31/bin/bin/../../lib\libm-elf.a(rintf.AA_o)
 .data              0x0000          0x0 c:/program files/microchip/xc-dsc/v3.31/bin/bin/../../lib\libm-elf.a(rintf.AA_o)
 .bss               0x0000          0x0 c:/program files/microchip/xc-dsc/v3.31/bin/bin/../../lib\libm-elf.a(rintf.AA_o)
 .text              0x0000          0x0 c:/program files/microchip/xc-dsc/v3.31/bin/bin/../../lib\libm-elf.a(scalbnf.AA_o)
 .data              0x0000          0x0 c:/program files/microchip/xc-dsc/v3.31/bin/bin/../../lib\libm-elf.a(scalbnf.AA_o)
 .bss               0x0000          0x0 c:/program files/microchip/xc-dsc/v3.31/bin/bin/../../lib\libm-elf.a(scalbnf.AA_o)
 .text              0x0000          0x0 c:/program files/microchip/xc-dsc/v3.31/bin/bin/../../lib\libm-elf.a(sqrtf.AA_o)
 .data              0x0000          0x0 c:/program files/microchip/xc-dsc/v3.31/bin/bin/../../lib\libm-elf.a(sqrtf.AA_o)
 .bss               0x0000          0x0 c:/program files/microchip/xc-dsc/v3.31/bin/bin/../../lib\libm-elf.a(sqrtf.AA_o)
 .text              0x0000          0x0 c:/program files/microchip/xc-dsc/v3.31/bin/bin/../../lib\libm-elf.a(tanhf.AA_o)
 .data              0x0000          0x0 c:/program files/microchip/xc-dsc/v3.31/bin/bin/../../lib\libm-elf.a(tanhf.AA_o)
 .bss               0x0000          0x0 c:/program files/microchip/xc-dsc/v3.31/bin/bin/../../lib\libm-elf.a(tanhf.AA_o)
 .text              0x0000          0x0 c:/program files/microchip/xc-dsc/v3.31/bin/bin/../../lib\libm-elf.a(expm1f.AA_o)
 .data              0x0000          0x0 c:/program files/microchip/xc-dsc/v3.31/bin/bin/../../lib\libm-elf.a(expm1f.AA_o)
 .bss               0x0000          0x0 c:/program files/microchip/xc-dsc/v3.31/bin/bin/../../lib\libm-elf.a(expm1f.AA_o)
 .text              0x0000          0x0 c:/program files/microchip/xc-dsc/v3.31/bin/bin/../../lib\libm-elf.a(fabsf.AA_o)
 .data              0x0000          0x0 c:/program files/microchip/xc-dsc/v3.31/bin/bin/../../lib\libm-elf.a(fabsf.AA_o)
 .bss               0x0000          0x0 c:/program files/microchip/xc-dsc/v3.31/bin/bin/../../lib\libm-elf.a(fabsf.AA_o)
 .text              0x0000          0x0 c:/program files/microchip/xc-dsc/v3.31/bin/bin/../../lib\libc99-elf.a(__errno_location.AA_o)
 .data              0x0000          0x0 c:/program files/microchip/xc-dsc/v3.31/bin/bin/../../lib\libc99-elf.a(__errno_location.AA_o)
 .text              0x0000          0x0 c:/program files/microchip/xc-dsc/v3.31/bin/bin/../../lib\libc99-elf.a(__sio_printf_dfosux.AA_o)
 .data              0x0000          0x0 c:/program files/microchip/xc-dsc/v3.31/bin/bin/../../lib\libc99-elf.a(__sio_printf_dfosux.AA_o)
 .bss               0x0000          0x0 c:/program files/microchip/xc-dsc/v3.31/bin/bin/../../lib\libc99-elf.a(__sio_printf_dfosux.AA_o)
 .libc.__sio_printf_dfosux
                    0x0000         0x24 c:/program files/microchip/xc-dsc/v3.31/bin/bin/../../lib\libc99-elf.a(__sio_printf_dfosux.AA_o)
 .text              0x0000          0x0 c:/program files/microchip/xc-dsc/v3.31/bin/bin/../../lib\libc99-elf.a(__sio_printf_dfoux.AA_o)
 .data              0x0000          0x0 c:/program files/microchip/xc-dsc/v3.31/bin/bin/../../lib\libc99-elf.a(__sio_printf_dfoux.AA_o)
 .bss               0x0000          0x0 c:/program files/microchip/xc-dsc/v3.31/bin/bin/../../lib\libc99-elf.a(__sio_printf_dfoux.AA_o)
 .libc.__sio_printf_dfoux
                    0x0000         0x24 c:/program files/microchip/xc-dsc/v3.31/bin/bin/../../lib\libc99-elf.a(__sio_printf_dfoux.AA_o)
 .text              0x0000          0x0 c:/program files/microchip/xc-dsc/v3.31/bin/bin/../../lib\libc99-elf.a(__sio_printf_doux.AA_o)
 .data              0x0000          0x0 c:/program files/microchip/xc-dsc/v3.31/bin/bin/../../lib\libc99-elf.a(__sio_printf_doux.AA_o)
 .bss               0x0000          0x0 c:/program files/microchip/xc-dsc/v3.31/bin/bin/../../lib\libc99-elf.a(__sio_printf_doux.AA_o)
 .libc.__sio_printf_doux
                    0x0000         0x1c c:/program files/microchip/xc-dsc/v3.31/bin/bin/../../lib\libc99-elf.a(__sio_printf_doux.AA_o)
 .text              0x0000          0x0 c:/program files/microchip/xc-dsc/v3.31/bin/bin/../../lib\libc99-elf.a(__sio_printf_f.AA_o)
 .data              0x0000          0x0 c:/program files/microchip/xc-dsc/v3.31/bin/bin/../../lib\libc99-elf.a(__sio_printf_f.AA_o)
 .bss               0x0000          0x0 c:/program files/microchip/xc-dsc/v3.31/bin/bin/../../lib\libc99-elf.a(__sio_printf_f.AA_o)
 .libc.__sio_printf_f
                    0x0000          0x8 c:/program files/microchip/xc-dsc/v3.31/bin/bin/../../lib\libc99-elf.a(__sio_printf_f.AA_o)
 .text              0x0000          0x0 c:/program files/microchip/xc-dsc/v3.31/bin/bin/../../lib\libc99-elf.a(memcpy.AA_o)
 .data              0x0000          0x0 c:/program files/microchip/xc-dsc/v3.31/bin/bin/../../lib\libc99-elf.a(memcpy.AA_o)
 .bss               0x0000          0x0 c:/program files/microchip/xc-dsc/v3.31/bin/bin/../../lib\libc99-elf.a(memcpy.AA_o)
 .text              0x0000          0x0 c:/program files/microchip/xc-dsc/v3.31/bin/bin/../../lib\libc99-elf.a(memset.AA_o)
 .data              0x0000          0x0 c:/program files/microchip/xc-dsc/v3.31/bin/bin/../../lib\libc99-elf.a(memset.AA_o)
 .bss               0x0000          0x0 c:/program files/microchip/xc-dsc/v3.31/bin/bin/../../lib\libc99-elf.a(memset.AA_o)
 .text              0x0000          0x0 c:/program files/microchip/xc-dsc/v3.31/bin/bin/../../lib\libc99-elf.a(putchar.AA_o)
 .data              0x0000          0x0 c:/program files/microchip/xc-dsc/v3.31/bin/bin/../../lib\libc99-elf.a(putchar.AA_o)
 .bss               0x0000          0x0 c:/program files/microchip/xc-dsc/v3.31/bin/bin/../../lib\libc99-elf.a(putchar.AA_o)
 .text              0x0000          0x0 c:/program files/microchip/xc-dsc/v3.31/bin/bin/../../lib\libc99-elf.a(puts.AA_o)
 .data              0x0000          0x0 c:/program files/microchip/xc-dsc/v3.31/bin/bin/../../lib\libc99-elf.a(puts.AA_o)
 .bss               0x0000          0x0 c:/program files/microchip/xc-dsc/v3.31/bin/bin/../../lib\libc99-elf.a(puts.AA_o)
 .text              0x0000          0x0 c:/program files/microchip/xc-dsc/v3.31/bin/bin/../../lib\libc99-elf.a(stdout.AA_o)
 .bss               0x0000          0x0 c:/program files/microchip/xc-dsc/v3.31/bin/bin/../../lib\libc99-elf.a(stdout.AA_o)
 .libc.__dummy      0x0000          0x8 c:/program files/microchip/xc-dsc/v3.31/bin/bin/../../lib\libc99-elf.a(stdout.AA_o)
 .libc.__init_stdout
                    0x0000         0x18 c:/program files/microchip/xc-dsc/v3.31/bin/bin/../../lib\libc99-elf.a(stdout.AA_o)
 __xc_reference_data
                    0x0000          0x4 c:/program files/microchip/xc-dsc/v3.31/bin/bin/../../lib\libc99-elf.a(stdout.AA_o)
 .text              0x0000          0x0 c:/program files/microchip/xc-dsc/v3.31/bin/bin/../../lib\libc99-elf.a(__fmt_d.AA_o)
 .data              0x0000          0x0 c:/program files/microchip/xc-dsc/v3.31/bin/bin/../../lib\libc99-elf.a(__fmt_d.AA_o)
 .bss               0x0000          0x0 c:/program files/microchip/xc-dsc/v3.31/bin/bin/../../lib\libc99-elf.a(__fmt_d.AA_o)
 .text              0x0000          0x0 c:/program files/microchip/xc-dsc/v3.31/bin/bin/../../lib\libc99-elf.a(__fmt_fp.AA_o)
 .bss               0x0000          0x0 c:/program files/microchip/xc-dsc/v3.31/bin/bin/../../lib\libc99-elf.a(__fmt_fp.AA_o)
 .text              0x0000          0x0 c:/program files/microchip/xc-dsc/v3.31/bin/bin/../../lib\libc99-elf.a(__fmt_o.AA_o)
 .data              0x0000          0x0 c:/program files/microchip/xc-dsc/v3.31/bin/bin/../../lib\libc99-elf.a(__fmt_o.AA_o)
 .bss               0x0000          0x0 c:/program files/microchip/xc-dsc/v3.31/bin/bin/../../lib\libc99-elf.a(__fmt_o.AA_o)
 .text              0x0000          0x0 c:/program files/microchip/xc-dsc/v3.31/bin/bin/../../lib\libc99-elf.a(__fmt_s.AA_o)
 .data              0x0000          0x0 c:/program files/microchip/xc-dsc/v3.31/bin/bin/../../lib\libc99-elf.a(__fmt_s.AA_o)
 .bss               0x0000          0x0 c:/program files/microchip/xc-dsc/v3.31/bin/bin/../../lib\libc99-elf.a(__fmt_s.AA_o)
 .text              0x0000          0x0 c:/program files/microchip/xc-dsc/v3.31/bin/bin/../../lib\libc99-elf.a(__fmt_u.AA_o)
 .data              0x0000          0x0 c:/program files/microchip/xc-dsc/v3.31/bin/bin/../../lib\libc99-elf.a(__fmt_u.AA_o)
 .bss               0x0000          0x0 c:/program files/microchip/xc-dsc/v3.31/bin/bin/../../lib\libc99-elf.a(__fmt_u.AA_o)
 .text              0x0000          0x0 c:/program files/microchip/xc-dsc/v3.31/bin/bin/../../lib\libc99-elf.a(__fmt_x.AA_o)
 .data              0x0000          0x0 c:/program files/microchip/xc-dsc/v3.31/bin/bin/../../lib\libc99-elf.a(__fmt_x.AA_o)
 .bss               0x0000          0x0 c:/program files/microchip/xc-dsc/v3.31/bin/bin/../../lib\libc99-elf.a(__fmt_x.AA_o)
 .text              0x0000          0x0 c:/program files/microchip/xc-dsc/v3.31/bin/bin/../../lib\libc99-elf.a(__int_vfprintf.AA_o)
 .data              0x0000          0x0 c:/program files/microchip/xc-dsc/v3.31/bin/bin/../../lib\libc99-elf.a(__int_vfprintf.AA_o)
 .bss               0x0000          0x0 c:/program files/microchip/xc-dsc/v3.31/bin/bin/../../lib\libc99-elf.a(__int_vfprintf.AA_o)
 .text              0x0000          0x0 c:/program files/microchip/xc-dsc/v3.31/bin/bin/../../lib\libc99-elf.a(__io_init_needed.AA_o)
 .data              0x0000          0x0 c:/program files/microchip/xc-dsc/v3.31/bin/bin/../../lib\libc99-elf.a(__io_init_needed.AA_o)
 .bss               0x0000          0x0 c:/program files/microchip/xc-dsc/v3.31/bin/bin/../../lib\libc99-elf.a(__io_init_needed.AA_o)
 __xc_reference_data
                    0x0000          0x8 c:/program files/microchip/xc-dsc/v3.31/bin/bin/../../lib\libc99-elf.a(__io_init_needed.AA_o)
 .comment           0x0000         0x5c c:/program files/microchip/xc-dsc/v3.31/bin/bin/../../lib\libc99-elf.a(__io_init_needed.AA_o)
 __c30_signature
                    0x0000          0x6 c:/program files/microchip/xc-dsc/v3.31/bin/bin/../../lib\libc99-elf.a(__io_init_needed.AA_o)
 .text              0x0000          0x0 c:/program files/microchip/xc-dsc/v3.31/bin/bin/../../lib\libc99-elf.a(__out.AA_o)
 .data              0x0000          0x0 c:/program files/microchip/xc-dsc/v3.31/bin/bin/../../lib\libc99-elf.a(__out.AA_o)
 .bss               0x0000          0x0 c:/program files/microchip/xc-dsc/v3.31/bin/bin/../../lib\libc99-elf.a(__out.AA_o)
 .text              0x0000          0x0 c:/program files/microchip/xc-dsc/v3.31/bin/bin/../../lib\libc99-elf.a(__pop_float.AA_o)
 .data              0x0000          0x0 c:/program files/microchip/xc-dsc/v3.31/bin/bin/../../lib\libc99-elf.a(__pop_float.AA_o)
 .bss               0x0000          0x0 c:/program files/microchip/xc-dsc/v3.31/bin/bin/../../lib\libc99-elf.a(__pop_float.AA_o)
 .text              0x0000          0x0 c:/program files/microchip/xc-dsc/v3.31/bin/bin/../../lib\libc99-elf.a(__pop_int.AA_o)
 .data              0x0000          0x0 c:/program files/microchip/xc-dsc/v3.31/bin/bin/../../lib\libc99-elf.a(__pop_int.AA_o)
 .bss               0x0000          0x0 c:/program files/microchip/xc-dsc/v3.31/bin/bin/../../lib\libc99-elf.a(__pop_int.AA_o)
 .text              0x0000          0x0 c:/program files/microchip/xc-dsc/v3.31/bin/bin/../../lib\libc99-elf.a(__pop_ptr.AA_o)
 .data              0x0000          0x0 c:/program files/microchip/xc-dsc/v3.31/bin/bin/../../lib\libc99-elf.a(__pop_ptr.AA_o)
 .bss               0x0000          0x0 c:/program files/microchip/xc-dsc/v3.31/bin/bin/../../lib\libc99-elf.a(__pop_ptr.AA_o)
 .text              0x0000          0x0 c:/program files/microchip/xc-dsc/v3.31/bin/bin/../../lib\libc99-elf.a(__printf_core.AA_o)
 .bss               0x0000          0x0 c:/program files/microchip/xc-dsc/v3.31/bin/bin/../../lib\libc99-elf.a(__printf_core.AA_o)
 .libc.__string_out
                    0x0000         0x4c c:/program files/microchip/xc-dsc/v3.31/bin/bin/../../lib\libc99-elf.a(__printf_core.AA_o)
 .libc.__dummy_fmt3
                    0x0000          0x4 c:/program files/microchip/xc-dsc/v3.31/bin/bin/../../lib\libc99-elf.a(__printf_core.AA_o)
 .libc.__dummy_fmts
                    0x0000          0x4 c:/program files/microchip/xc-dsc/v3.31/bin/bin/../../lib\libc99-elf.a(__printf_core.AA_o)
 .text              0x0000          0x0 c:/program files/microchip/xc-dsc/v3.31/bin/bin/../../lib\libc99-elf.a(__stdio_close.AA_o)
 .data              0x0000          0x0 c:/program files/microchip/xc-dsc/v3.31/bin/bin/../../lib\libc99-elf.a(__stdio_close.AA_o)
 .bss               0x0000          0x0 c:/program files/microchip/xc-dsc/v3.31/bin/bin/../../lib\libc99-elf.a(__stdio_close.AA_o)
 .libc.__stdio_close
                    0x0000         0x80 c:/program files/microchip/xc-dsc/v3.31/bin/bin/../../lib\libc99-elf.a(__stdio_close.AA_o)
 .text              0x0000          0x0 c:/program files/microchip/xc-dsc/v3.31/bin/bin/../../lib\libc99-elf.a(atoi.AA_o)
 .data              0x0000          0x0 c:/program files/microchip/xc-dsc/v3.31/bin/bin/../../lib\libc99-elf.a(atoi.AA_o)
 .bss               0x0000          0x0 c:/program files/microchip/xc-dsc/v3.31/bin/bin/../../lib\libc99-elf.a(atoi.AA_o)
 .text              0x0000          0x0 c:/program files/microchip/xc-dsc/v3.31/bin/bin/../../lib\libc99-elf.a(fputs.AA_o)
 .data              0x0000          0x0 c:/program files/microchip/xc-dsc/v3.31/bin/bin/../../lib\libc99-elf.a(fputs.AA_o)
 .bss               0x0000          0x0 c:/program files/microchip/xc-dsc/v3.31/bin/bin/../../lib\libc99-elf.a(fputs.AA_o)
 .text              0x0000          0x0 c:/program files/microchip/xc-dsc/v3.31/bin/bin/../../lib\libc99-elf.a(fwrite.AA_o)
 .data              0x0000          0x0 c:/program files/microchip/xc-dsc/v3.31/bin/bin/../../lib\libc99-elf.a(fwrite.AA_o)
 .bss               0x0000          0x0 c:/program files/microchip/xc-dsc/v3.31/bin/bin/../../lib\libc99-elf.a(fwrite.AA_o)
 .libc.__fwrite_min
                    0x0000          0x8 c:/program files/microchip/xc-dsc/v3.31/bin/bin/../../lib\libc99-elf.a(fwrite.AA_o)
 .text              0x0000          0x0 c:/program files/microchip/xc-dsc/v3.31/bin/bin/../../lib\libc99-elf.a(lseek.AA_o)
 .data              0x0000          0x0 c:/program files/microchip/xc-dsc/v3.31/bin/bin/../../lib\libc99-elf.a(lseek.AA_o)
 .bss               0x0000          0x0 c:/program files/microchip/xc-dsc/v3.31/bin/bin/../../lib\libc99-elf.a(lseek.AA_o)
 .text              0x0000          0x0 c:/program files/microchip/xc-dsc/v3.31/bin/bin/../../lib\libc99-elf.a(putc.AA_o)
 .data              0x0000          0x0 c:/program files/microchip/xc-dsc/v3.31/bin/bin/../../lib\libc99-elf.a(putc.AA_o)
 .bss               0x0000          0x0 c:/program files/microchip/xc-dsc/v3.31/bin/bin/../../lib\libc99-elf.a(putc.AA_o)
 __xc_reference_data
                    0x0000          0x4 c:/program files/microchip/xc-dsc/v3.31/bin/bin/../../lib\libc99-elf.a(putc.AA_o)
 .text              0x0000          0x0 c:/program files/microchip/xc-dsc/v3.31/bin/bin/../../lib\libc99-elf.a(strcpy.AA_o)
 .data              0x0000          0x0 c:/program files/microchip/xc-dsc/v3.31/bin/bin/../../lib\libc99-elf.a(strcpy.AA_o)
 .bss               0x0000          0x0 c:/program files/microchip/xc-dsc/v3.31/bin/bin/../../lib\libc99-elf.a(strcpy.AA_o)
 .text              0x0000          0x0 c:/program files/microchip/xc-dsc/v3.31/bin/bin/../../lib\libc99-elf.a(strlen.AA_o)
 .data              0x0000          0x0 c:/program files/microchip/xc-dsc/v3.31/bin/bin/../../lib\libc99-elf.a(strlen.AA_o)
 .bss               0x0000          0x0 c:/program files/microchip/xc-dsc/v3.31/bin/bin/../../lib\libc99-elf.a(strlen.AA_o)
 .text              0x0000          0x0 c:/program files/microchip/xc-dsc/v3.31/bin/bin/../../lib\libc99-elf.a(syscall_ret.AA_o)
 .data              0x0000          0x0 c:/program files/microchip/xc-dsc/v3.31/bin/bin/../../lib\libc99-elf.a(syscall_ret.AA_o)
 .bss               0x0000          0x0 c:/program files/microchip/xc-dsc/v3.31/bin/bin/../../lib\libc99-elf.a(syscall_ret.AA_o)
 .text              0x0000          0x0 c:/program files/microchip/xc-dsc/v3.31/bin/bin/../../lib\libc99-elf.a(tolower.AA_o)
 .data              0x0000          0x0 c:/program files/microchip/xc-dsc/v3.31/bin/bin/../../lib\libc99-elf.a(tolower.AA_o)
 .bss               0x0000          0x0 c:/program files/microchip/xc-dsc/v3.31/bin/bin/../../lib\libc99-elf.a(tolower.AA_o)
 .libc.__tolower_l
                    0x0000          0x4 c:/program files/microchip/xc-dsc/v3.31/bin/bin/../../lib\libc99-elf.a(tolower.AA_o)
 .text              0x0000          0x0 c:/program files/microchip/xc-dsc/v3.31/bin/bin/../../lib\libc99-elf.a(toupper.AA_o)
 .data              0x0000          0x0 c:/program files/microchip/xc-dsc/v3.31/bin/bin/../../lib\libc99-elf.a(toupper.AA_o)
 .bss               0x0000          0x0 c:/program files/microchip/xc-dsc/v3.31/bin/bin/../../lib\libc99-elf.a(toupper.AA_o)
 .libc.__toupper_l
                    0x0000          0x4 c:/program files/microchip/xc-dsc/v3.31/bin/bin/../../lib\libc99-elf.a(toupper.AA_o)
 .text              0x0000          0x0 c:/program files/microchip/xc-dsc/v3.31/bin/bin/../../lib\libc99-elf.a(__cvt_u.AA_o)
 .data              0x0000          0x0 c:/program files/microchip/xc-dsc/v3.31/bin/bin/../../lib\libc99-elf.a(__cvt_u.AA_o)
 .bss               0x0000          0x0 c:/program files/microchip/xc-dsc/v3.31/bin/bin/../../lib\libc99-elf.a(__cvt_u.AA_o)
 .text              0x0000          0x0 c:/program files/microchip/xc-dsc/v3.31/bin/bin/../../lib\libc99-elf.a(__init_stdio.AA_o)
 .data              0x0000          0x0 c:/program files/microchip/xc-dsc/v3.31/bin/bin/../../lib\libc99-elf.a(__init_stdio.AA_o)
 .bss               0x0000          0x0 c:/program files/microchip/xc-dsc/v3.31/bin/bin/../../lib\libc99-elf.a(__init_stdio.AA_o)
 .libc.__dummy      0x0000          0x4 c:/program files/microchip/xc-dsc/v3.31/bin/bin/../../lib\libc99-elf.a(__init_stdio.AA_o)
 .libc.__init_stdio
                    0x0000          0xc c:/program files/microchip/xc-dsc/v3.31/bin/bin/../../lib\libc99-elf.a(__init_stdio.AA_o)
 .comment           0x0000         0x5c c:/program files/microchip/xc-dsc/v3.31/bin/bin/../../lib\libc99-elf.a(__init_stdio.AA_o)
 __c30_signature
                    0x0000          0x6 c:/program files/microchip/xc-dsc/v3.31/bin/bin/../../lib\libc99-elf.a(__init_stdio.AA_o)
 .text              0x0000          0x0 c:/program files/microchip/xc-dsc/v3.31/bin/bin/../../lib\libc99-elf.a(__io_file_needed.AA_o)
 .data              0x0000          0x0 c:/program files/microchip/xc-dsc/v3.31/bin/bin/../../lib\libc99-elf.a(__io_file_needed.AA_o)
 .bss               0x0000          0x0 c:/program files/microchip/xc-dsc/v3.31/bin/bin/../../lib\libc99-elf.a(__io_file_needed.AA_o)
 __xc_reference_data
                    0x0000          0x4 c:/program files/microchip/xc-dsc/v3.31/bin/bin/../../lib\libc99-elf.a(__io_file_needed.AA_o)
 .comment           0x0000         0x5c c:/program files/microchip/xc-dsc/v3.31/bin/bin/../../lib\libc99-elf.a(__io_file_needed.AA_o)
 __c30_signature
                    0x0000          0x6 c:/program files/microchip/xc-dsc/v3.31/bin/bin/../../lib\libc99-elf.a(__io_file_needed.AA_o)
 .text              0x0000          0x0 c:/program files/microchip/xc-dsc/v3.31/bin/bin/../../lib\libc99-elf.a(stpcpy.AA_o)
 .data              0x0000          0x0 c:/program files/microchip/xc-dsc/v3.31/bin/bin/../../lib\libc99-elf.a(stpcpy.AA_o)
 .bss               0x0000          0x0 c:/program files/microchip/xc-dsc/v3.31/bin/bin/../../lib\libc99-elf.a(stpcpy.AA_o)
 .text              0x0000          0x0 c:/program files/microchip/xc-dsc/v3.31/bin/bin/../../lib\libc99-pic30-elf.a(close.AAMeo)
 .data              0x0000          0x0 c:/program files/microchip/xc-dsc/v3.31/bin/bin/../../lib\libc99-pic30-elf.a(close.AAMeo)
 .bss               0x0000          0x0 c:/program files/microchip/xc-dsc/v3.31/bin/bin/../../lib\libc99-pic30-elf.a(close.AAMeo)
 .text              0x0000          0x0 c:/program files/microchip/xc-dsc/v3.31/bin/bin/../../lib\libc99-pic30-elf.a(extendsfdf.aa.AA_eo)
 .data              0x0000          0x0 c:/program files/microchip/xc-dsc/v3.31/bin/bin/../../lib\libc99-pic30-elf.a(extendsfdf.aa.AA_eo)
 .bss               0x0000          0x0 c:/program files/microchip/xc-dsc/v3.31/bin/bin/../../lib\libc99-pic30-elf.a(extendsfdf.aa.AA_eo)
 .text              0x0000          0x0 c:/program files/microchip/xc-dsc/v3.31/bin/bin/../../lib\libc99-pic30-elf.a(funpack.aa.AA_eo)
 .data              0x0000          0x0 c:/program files/microchip/xc-dsc/v3.31/bin/bin/../../lib\libc99-pic30-elf.a(funpack.aa.AA_eo)
 .bss               0x0000          0x0 c:/program files/microchip/xc-dsc/v3.31/bin/bin/../../lib\libc99-pic30-elf.a(funpack.aa.AA_eo)
 .text              0x0000          0x0 c:/program files/microchip/xc-dsc/v3.31/bin/bin/../../lib\libc99-pic30-elf.a(divmoddi3.AA_eo)
 .data              0x0000          0x0 c:/program files/microchip/xc-dsc/v3.31/bin/bin/../../lib\libc99-pic30-elf.a(divmoddi3.AA_eo)
 .bss               0x0000          0x0 c:/program files/microchip/xc-dsc/v3.31/bin/bin/../../lib\libc99-pic30-elf.a(divmoddi3.AA_eo)
 .libm.__divdi3
                    0x0000         0x60 c:/program files/microchip/xc-dsc/v3.31/bin/bin/../../lib\libc99-pic30-elf.a(divmoddi3.AA_eo)
 .libm.__moddi3
                    0x0000         0x44 c:/program files/microchip/xc-dsc/v3.31/bin/bin/../../lib\libc99-pic30-elf.a(divmoddi3.AA_eo)
 .text              0x0000          0x0 c:/program files/microchip/xc-dsc/v3.31/bin/bin/../../lib\libm-elf.a(floorl.AA_o)
 .data              0x0000          0x0 c:/program files/microchip/xc-dsc/v3.31/bin/bin/../../lib\libm-elf.a(floorl.AA_o)
 .bss               0x0000          0x0 c:/program files/microchip/xc-dsc/v3.31/bin/bin/../../lib\libm-elf.a(floorl.AA_o)

Memory Configuration

Name             Origin             Length             Attributes
data             0x004000           0x010000           a !xr
FBOOT            0x7f40d0           0x000002  
FCP              0x7f3000           0x000002  
FICD             0x7f3010           0x000002  
FDEVOPT          0x7f3020           0x000002  
FWDT             0x7f3030           0x000002  
FPR0CTRL         0x7f4000           0x000002  
FPR0ST           0x7f4004           0x000002  
FPR0END          0x7f4008           0x000002  
FPR1CTRL         0x7f4010           0x000002  
FPR1ST           0x7f4014           0x000002  
FPR1END          0x7f4018           0x000002  
FPR2CTRL         0x7f4020           0x000002  
FPR2ST           0x7f4024           0x000002  
FPR2END          0x7f4028           0x000002  
FPR3CTRL         0x7f4030           0x000002  
FPR3ST           0x7f4034           0x000002  
FPR3END          0x7f4038           0x000002  
FPR4CTRL         0x7f4040           0x000002  
FPR4ST           0x7f4044           0x000002  
FPR4END          0x7f4048           0x000002  
FPR5CTRL         0x7f4050           0x000002  
FPR5ST           0x7f4054           0x000002  
FPR5END          0x7f4058           0x000002  
FPR6CTRL         0x7f4060           0x000002  
FPR6ST           0x7f4064           0x000002  
FPR6END          0x7f4068           0x000002  
FPR7CTRL         0x7f4070           0x000002  
FPR7ST           0x7f4074           0x000002  
FPR7END          0x7f4078           0x000002  
FIRT             0x7f4080           0x000002  
FSECDBG          0x7f4090           0x000002  
FPED             0x7f40a0           0x000002  
FEPUCB           0x7f40b0           0x000002  
FWPUCB           0x7f40c0           0x000002  
reset            0x800000           0x000004  
program          0x800004           0x07fffc           xr
*default*        0x000000           0xffffffff  

Linker script and memory map

LOAD build/dsPIC33AK512/production/_ext/659850406/adc5.o
LOAD build/dsPIC33AK512/production/_ext/659850406/adc1.o
LOAD build/dsPIC33AK512/production/_ext/659850406/adc3.o
LOAD build/dsPIC33AK512/production/_ext/659850406/adc4.o
LOAD build/dsPIC33AK512/production/_ext/1538408868/float_conversion.o
LOAD build/dsPIC33AK512/production/_ext/1538408868/gain_ctrl.o
LOAD build/dsPIC33AK512/production/_ext/1538408868/tone_ctrl.o
LOAD build/dsPIC33AK512/production/_ext/1538408868/transient.o
LOAD build/dsPIC33AK512/production/_ext/1538408868/reverb.o
LOAD build/dsPIC33AK512/production/_ext/1538408868/lpf_process.o
LOAD build/dsPIC33AK512/production/_ext/1538408868/reverb_smooth.o
LOAD build/dsPIC33AK512/production/_ext/1538408868/hpf_process.o
LOAD build/dsPIC33AK512/production/_ext/1538408868/LED_level_meter.o
LOAD build/dsPIC33AK512/production/_ext/1538408868/simple_loudmeter.o
LOAD build/dsPIC33AK512/production/_ext/1538408868/snd_effect_play.o
LOAD build/dsPIC33AK512/production/_ext/1538408868/engine_synth.o
LOAD build/dsPIC33AK512/production/_ext/1538408868/widen_ctrl.o
LOAD build/dsPIC33AK512/production/_ext/1538408868/bass_enhancer.o
LOAD build/dsPIC33AK512/production/_ext/1538408868/click_crack_synth.o
LOAD build/dsPIC33AK512/production/_ext/1034234695/button_led.o
LOAD build/dsPIC33AK512/production/_ext/1034234695/pot.o
LOAD build/dsPIC33AK512/production/_ext/1536116519/app_debug.o
LOAD build/dsPIC33AK512/production/_ext/1536116519/dbconsole.o
LOAD build/dsPIC33AK512/production/_ext/1521024571/touch.o
LOAD build/dsPIC33AK512/production/_ext/1018880376/uart1.o
LOAD build/dsPIC33AK512/production/_ext/1360937237/SPI_TDM_drv.o
LOAD build/dsPIC33AK512/production/_ext/1360937237/i2c.o
LOAD build/dsPIC33AK512/production/_ext/1360937237/main.o
LOAD build/dsPIC33AK512/production/_ext/1360937237/osc_drv.o
LOAD build/dsPIC33AK512/production/_ext/1360937237/wm8731.o
LOAD build/dsPIC33AK512/production/_ext/1360937237/tick_time.o
LOAD build/dsPIC33AK512/production/_ext/1360937237/pwm.o
LOAD build/dsPIC33AK512/production/_ext/1360937237/wm8904.o
LOAD build/dsPIC33AK512/production/_ext/1360937237/SPI3_drv.o
LOAD build/dsPIC33AK512/production/_ext/1360937237/SST26_drv.o
LOAD build/dsPIC33AK512/production/_ext/335358292/eq_api_33AK.o
LOAD build/dsPIC33AK512/production/_ext/335358292/eq_perseus_wrapper.o
LOAD build/dsPIC33AK512/production/_ext/1536116519/eq_benchmark.o
LOAD build/dsPIC33AK512/production/_ext/1538408868/aec_33ak.o
LOAD build/dsPIC33AK512/production/_ext/1538408868/aec_nlms_float.o
LOAD build/dsPIC33AK512/production/_ext/1538408868/aec_src.o
LOAD build/dsPIC33AK512/production/_ext/1538408868/aec_vad_float.o
LOAD ..\src\touch\lib\qtm_acq_dspic33ak_mp_0x0051.X.a
LOAD ..\src\touch\lib\qtm_freq_hop_auto_dspic33akmp_0x0004.X.a
LOAD ..\src\touch\lib\qtm_freq_hop_dspic33akmp_0x0006.X.a
LOAD ..\src\touch\lib\qtm_scroller_dspic33akmp_0x000b.X.a
LOAD ..\src\touch\lib\qtm_touch_key_dspic33akmp_0x0002.X.a
                    0x0001                  __MPLAB_BUILD = 0x1
LOAD p33AK512MPS512
LOAD c:/program files/microchip/xc-dsc/v3.31/bin/bin/../../lib\libfx-elf.a
                    0x7f40d0                  __FBOOT = 0x7f40d0
                    0x7f3000                  __FCP = 0x7f3000
                    0x7f3000                  __FCP = 0x7f3000
                    0x7f3010                  __FICD = 0x7f3010
                    0x7f3010                  __FICD = 0x7f3010
                    0x7f3020                  __FDEVOPT = 0x7f3020
                    0x7f3020                  __FDEVOPT = 0x7f3020
                    0x7f3030                  __FWDT = 0x7f3030
                    0x7f3030                  __FWDT = 0x7f3030
                    0x7f4000                  __FPR0CTRL = 0x7f4000
                    0x7f4000                  __FPR0CTRL = 0x7f4000
                    0x7f4000                  __FPR0CTRL = 0x7f4000
                    0x7f4004                  __FPR0ST = 0x7f4004
                    0x7f4004                  __FPR0ST = 0x7f4004
                    0x7f4004                  __FPR0ST = 0x7f4004
                    0x7f4008                  __FPR0END = 0x7f4008
                    0x7f4008                  __FPR0END = 0x7f4008
                    0x7f4008                  __FPR0END = 0x7f4008
                    0x7f4010                  __FPR1CTRL = 0x7f4010
                    0x7f4010                  __FPR1CTRL = 0x7f4010
                    0x7f4010                  __FPR1CTRL = 0x7f4010
                    0x7f4014                  __FPR1ST = 0x7f4014
                    0x7f4014                  __FPR1ST = 0x7f4014
                    0x7f4014                  __FPR1ST = 0x7f4014
                    0x7f4018                  __FPR1END = 0x7f4018
                    0x7f4018                  __FPR1END = 0x7f4018
                    0x7f4018                  __FPR1END = 0x7f4018
                    0x7f4020                  __FPR2CTRL = 0x7f4020
                    0x7f4020                  __FPR2CTRL = 0x7f4020
                    0x7f4020                  __FPR2CTRL = 0x7f4020
                    0x7f4024                  __FPR2ST = 0x7f4024
                    0x7f4024                  __FPR2ST = 0x7f4024
                    0x7f4024                  __FPR2ST = 0x7f4024
                    0x7f4028                  __FPR2END = 0x7f4028
                    0x7f4028                  __FPR2END = 0x7f4028
                    0x7f4028                  __FPR2END = 0x7f4028
                    0x7f4030                  __FPR3CTRL = 0x7f4030
                    0x7f4030                  __FPR3CTRL = 0x7f4030
                    0x7f4030                  __FPR3CTRL = 0x7f4030
                    0x7f4034                  __FPR3ST = 0x7f4034
                    0x7f4034                  __FPR3ST = 0x7f4034
                    0x7f4034                  __FPR3ST = 0x7f4034
                    0x7f4038                  __FPR3END = 0x7f4038
                    0x7f4038                  __FPR3END = 0x7f4038
                    0x7f4038                  __FPR3END = 0x7f4038
                    0x7f4040                  __FPR4CTRL = 0x7f4040
                    0x7f4040                  __FPR4CTRL = 0x7f4040
                    0x7f4040                  __FPR4CTRL = 0x7f4040
                    0x7f4044                  __FPR4ST = 0x7f4044
                    0x7f4044                  __FPR4ST = 0x7f4044
                    0x7f4044                  __FPR4ST = 0x7f4044
                    0x7f4048                  __FPR4END = 0x7f4048
                    0x7f4048                  __FPR4END = 0x7f4048
                    0x7f4048                  __FPR4END = 0x7f4048
                    0x7f4050                  __FPR5CTRL = 0x7f4050
                    0x7f4050                  __FPR5CTRL = 0x7f4050
                    0x7f4050                  __FPR5CTRL = 0x7f4050
                    0x7f4054                  __FPR5ST = 0x7f4054
                    0x7f4054                  __FPR5ST = 0x7f4054
                    0x7f4054                  __FPR5ST = 0x7f4054
                    0x7f4058                  __FPR5END = 0x7f4058
                    0x7f4058                  __FPR5END = 0x7f4058
                    0x7f4058                  __FPR5END = 0x7f4058
                    0x7f4060                  __FPR6CTRL = 0x7f4060
                    0x7f4060                  __FPR6CTRL = 0x7f4060
                    0x7f4060                  __FPR6CTRL = 0x7f4060
                    0x7f4064                  __FPR6ST = 0x7f4064
                    0x7f4064                  __FPR6ST = 0x7f4064
                    0x7f4064                  __FPR6ST = 0x7f4064
                    0x7f4068                  __FPR6END = 0x7f4068
                    0x7f4068                  __FPR6END = 0x7f4068
                    0x7f4068                  __FPR6END = 0x7f4068
                    0x7f4070                  __FPR7CTRL = 0x7f4070
                    0x7f4070                  __FPR7CTRL = 0x7f4070
                    0x7f4070                  __FPR7CTRL = 0x7f4070
                    0x7f4074                  __FPR7ST = 0x7f4074
                    0x7f4074                  __FPR7ST = 0x7f4074
                    0x7f4074                  __FPR7ST = 0x7f4074
                    0x7f4078                  __FPR7END = 0x7f4078
                    0x7f4078                  __FPR7END = 0x7f4078
                    0x7f4078                  __FPR7END = 0x7f4078
                    0x7f4080                  __FIRT = 0x7f4080
                    0x7f4080                  __FIRT = 0x7f4080
                    0x7f4080                  __FIRT = 0x7f4080
                    0x7f4090                  __FSECDBG = 0x7f4090
                    0x7f4090                  __FSECDBG = 0x7f4090
                    0x7f4090                  __FSECDBG = 0x7f4090
                    0x7f40a0                  __FPED = 0x7f40a0
                    0x7f40a0                  __FPED = 0x7f40a0
                    0x7f40a0                  __FPED = 0x7f40a0
                    0x7f40b0                  __FEPUCB = 0x7f40b0
                    0x7f40b0                  __FEPUCB = 0x7f40b0
                    0x7f40b0                  __FEPUCB = 0x7f40b0
                    0x7f40c0                  __FWPUCB = 0x7f40c0
                    0x7f40c0                  __FWPUCB = 0x7f40c0
                    0x7f40c0                  __FWPUCB = 0x7f40c0
                    0x801000                  __CODE_BASE = 0x801000
                    0x7f000                  __CODE_LENGTH = 0x7f000
                    0x4000                  __DATA_BASE = 0x4000
                    0x10000                  __DATA_LENGTH = 0x10000
                    0xc000                  __YDATA_BASE = 0xc000
                    0x14000                  __YDATA_END = 0x14000

.reset            0x800000          0x4
                  0x800000          0x4 LONG 0x8005b4 ABSOLUTE (__reset)

.text             0x8005b4       0x3aa4
 *(.init)
 .init            0x8005b4         0xe0 c:/program files/microchip/xc-dsc/v3.31/bin/bin/../../lib\libc99-pic30-elf.a(crt0_extendedaa.o)
                  0x8005b4                  __resetPRI
                  0x8005b4                  __reset
                  0x800690                  ___tls_crt_init
                  0x800690                  __crt_return_stmt
 .init            0x800694         0x64 c:/program files/microchip/xc-dsc/v3.31/bin/bin/../../lib\libc99-pic30-elf.a(data_init_extendedaa.o)
                  0x800694                  __data_init
                  0x800694                  __data_init_extended
 *(.user_init)
 *(.handle)
 *(.isr*)
 .isr.isr.text    0x8006f8         0x94 build/dsPIC33AK512/production/_ext/659850406/adc5.o
                  0x8006f8                  __AD5CH0Interrupt
 .isr.isr.text    0x80078c        0x100 build/dsPIC33AK512/production/_ext/659850406/adc3.o
                  0x80078c                  __AD3CH0Interrupt
                  0x800794                  __DMA2Interrupt
 .isr.isr.text    0x80088c         0xa8 build/dsPIC33AK512/production/_ext/659850406/adc4.o
                  0x80088c                  __AD4CH0Interrupt
                  0x800894                  __DMA3Interrupt
 .isr.isr.text    0x800934         0x58 build/dsPIC33AK512/production/_ext/1521024571/touch.o
                  0x800934                  __ITCInterrupt
 .isr.isr.text    0x80098c         0xd8 build/dsPIC33AK512/production/_ext/1018880376/uart1.o
                  0x80098c                  __U1RXInterrupt
 .isr.isr.text    0x800a64        0x51c build/dsPIC33AK512/production/_ext/1360937237/SPI_TDM_drv.o
                  0x800a64                  __DMA0Interrupt
                  0x800f6c                  __DMA1Interrupt
 .isr.isr.text    0x800f80         0x3c build/dsPIC33AK512/production/_ext/1360937237/main.o
                  0x800f80                  __DefaultInterrupt
 .isr.isr.text    0x800fbc          0xc build/dsPIC33AK512/production/_ext/1360937237/tick_time.o
                  0x800fbc                  __T1Interrupt
 .isr.isr.text    0x800fc8        0x130 build/dsPIC33AK512/production/_ext/1360937237/pwm.o
                  0x800fc8                  __PWM5Interrupt
                  0x800fdc                  __PWM6Interrupt
                  0x800ff0                  __PWM7Interrupt
                  0x801004                  __PWM8Interrupt
                  0x801018                  __DMA4Interrupt
                  0x801050                  __DMA5Interrupt
                  0x801088                  __DMA6Interrupt
                  0x8010c0                  __DMA7Interrupt
 *(.libc)
 .libc            0x8010f8         0x10 c:/program files/microchip/xc-dsc/v3.31/bin/bin/../../lib\libc99-pic30-elf.a(delay32.AAMeo)
                  0x8010f8                  ___delay32
 .libc            0x801108          0x4 c:/program files/microchip/xc-dsc/v3.31/bin/bin/../../lib\libc99-pic30-elf.a(close.AAMeo)
                  0x801108                  _close
 *(.libm)
 *(.libdsp)
 *(.lib*)
 .libc.write      0x80110c         0x84 build/dsPIC33AK512/production/_ext/1018880376/uart1.o
                  0x80110c                  _write
 .libpic30_crt_start_mode
                  0x801190          0x4 c:/program files/microchip/xc-dsc/v3.31/bin/bin/../../lib\libc99-pic30-elf.a(crt_start_mode_normal.AAMeo)
                  0x801190                  __crt_start_mode_normal
                  0x801190                  __crt_start_mode
 .lib.ctor        0x801194         0x58 c:/program files/microchip/xc-dsc/v3.31/bin/bin/../../lib\libc99-pic30-elf.a(crt_ctor.aa.AAMeo)
                  0x801194                  __ctor
                  0x8011c8                  __dtor
 .libc.expf       0x8011ec        0x1d0 c:/program files/microchip/xc-dsc/v3.31/bin/bin/../../lib\libm-elf.a(expf.AA_o)
                  0x8011ec                  _expf
 .libc.log10f     0x8013bc        0x1c8 c:/program files/microchip/xc-dsc/v3.31/bin/bin/../../lib\libm-elf.a(log10f.AA_o)
                  0x8013bc                  _log10f
 .libc.logf       0x801584        0x18c c:/program files/microchip/xc-dsc/v3.31/bin/bin/../../lib\libm-elf.a(logf.AA_o)
                  0x801584                  _logf
 .libc.lrintf     0x801710          0xc c:/program files/microchip/xc-dsc/v3.31/bin/bin/../../lib\libm-elf.a(lrintf.AA_o)
                  0x801710                  _lrintf
 .libc.powf       0x80171c        0x75c c:/program files/microchip/xc-dsc/v3.31/bin/bin/../../lib\libm-elf.a(powf.AA_o)
                  0x80171c                  _powf
 .libc.rintf      0x801e78         0x78 c:/program files/microchip/xc-dsc/v3.31/bin/bin/../../lib\libm-elf.a(rintf.AA_o)
                  0x801e78                  _rintf
 .libc.scalbnf    0x801ef0         0x94 c:/program files/microchip/xc-dsc/v3.31/bin/bin/../../lib\libm-elf.a(scalbnf.AA_o)
                  0x801ef0                  _scalbnf
 .libc.sqrtf      0x801f84        0x13c c:/program files/microchip/xc-dsc/v3.31/bin/bin/../../lib\libm-elf.a(sqrtf.AA_o)
                  0x801f84                  _sqrtf
 .libc.tanhf      0x8020c0         0xdc c:/program files/microchip/xc-dsc/v3.31/bin/bin/../../lib\libm-elf.a(tanhf.AA_o)
                  0x8020c0                  _tanhf
 .libc.expm1f     0x80219c        0x308 c:/program files/microchip/xc-dsc/v3.31/bin/bin/../../lib\libm-elf.a(expm1f.AA_o)
                  0x80219c                  _expm1f
 .libc.fabsf      0x8024a4         0x10 c:/program files/microchip/xc-dsc/v3.31/bin/bin/../../lib\libm-elf.a(fabsf.AA_o)
                  0x8024a4                  _fabsf
 .libc.__wrap_printf
                  0x8024b4         0x20 c:/program files/microchip/xc-dsc/v3.31/bin/bin/../../lib\libc99-elf.a(__sio_printf_dfosux.AA_o)
                  0x8024b4                  __dprintf_cdeEfFnopsuxX
                  0x8024b4                  __printf_cdfFgGnopsuxX
                  0x8024b4                  __printf_cdfFnopsuxX
                  0x8024b4                  __printf_cdeEgGnopsuxX
                  0x8024b4                  __dprintf_cdeEfFgGnopsuxX
                  0x8024b4                  __dprintf_cdgGnopsuxX
                  0x8024b4                  __dprintf_cdfFgGnopsuxX
                  0x8024b4                  __printf_cdgGnopsuxX
                  0x8024b4                  __dprintf_cdeEnopsuxX
                  0x8024b4                  __printf_cdeEfFgGnopsuxX
                  0x8024b4                  __printf_cdeEfFnopsuxX
                  0x8024b4                  __dprintf_cdfFnopsuxX
                  0x8024b4                  __dprintf_cdeEgGnopsuxX
                  0x8024b4                  __printf_cdeEnopsuxX
 .libc.__wrap_printf
                  0x8024d4         0x20 c:/program files/microchip/xc-dsc/v3.31/bin/bin/../../lib\libc99-elf.a(__sio_printf_dfoux.AA_o)
                  0x8024d4                  __printf_cdfFgGnopuxX
                  0x8024d4                  __printf_cdeEgGnopuxX
                  0x8024d4                  __printf_cdeEfFnopuxX
                  0x8024d4                  __dprintf_cdgGnopuxX
                  0x8024d4                  __dprintf_cdfFnopuxX
                  0x8024d4                  __dprintf_cdeEgGnopuxX
                  0x8024d4                  __printf_cdeEfFgGnopuxX
                  0x8024d4                  __printf_cdgGnopuxX
                  0x8024d4                  __printf_cdfFnopuxX
                  0x8024d4                  __dprintf_cdfFgGnopuxX
                  0x8024d4                  __printf_cdeEnopuxX
                  0x8024d4                  __dprintf_cdeEfFnopuxX
                  0x8024d4                  __dprintf_cdeEfFgGnopuxX
                  0x8024d4                  __dprintf_cdeEnopuxX
 .libc.__wrap_printf
                  0x8024f4         0x20 c:/program files/microchip/xc-dsc/v3.31/bin/bin/../../lib\libc99-elf.a(__sio_printf_doux.AA_o)
                  0x8024f4                  __printf_cdnopuxX
                  0x8024f4                  __dprintf_cdnopuxX
 .libc.__wrap_printf
                  0x802514         0x20 c:/program files/microchip/xc-dsc/v3.31/bin/bin/../../lib\libc99-elf.a(__sio_printf_f.AA_o)
                  0x802514                  __dprintf_eEfF
                  0x802514                  __dprintf_gG
                  0x802514                  __dprintf_fFgG
                  0x802514                  __printf_fF
                  0x802514                  __printf_gG
                  0x802514                  __dprintf_eEfFgG
                  0x802514                  __printf_eEgG
                  0x802514                  __printf_eE
                  0x802514                  __printf_eEfF
                  0x802514                  __printf_eEfFgG
                  0x802514                  __dprintf_eE
                  0x802514                  __dprintf_fF
                  0x802514                  __printf_fFgG
                  0x802514                  __dprintf_eEgG
 .libc.memcpy     0x802534         0x1c c:/program files/microchip/xc-dsc/v3.31/bin/bin/../../lib\libc99-elf.a(memcpy.AA_o)
                  0x802534                  _memcpy
 .libc.memset     0x802550         0x18 c:/program files/microchip/xc-dsc/v3.31/bin/bin/../../lib\libc99-elf.a(memset.AA_o)
                  0x802550                  _memset
 .libc.putchar    0x802568         0x10 c:/program files/microchip/xc-dsc/v3.31/bin/bin/../../lib\libc99-elf.a(putchar.AA_o)
                  0x802568                  _putchar
 .libc.puts       0x802578         0x3c c:/program files/microchip/xc-dsc/v3.31/bin/bin/../../lib\libc99-elf.a(puts.AA_o)
                  0x802578                  _puts
 .libc.__dummy0
                  0x8025b4          0x4 c:/program files/microchip/xc-dsc/v3.31/bin/bin/../../lib\libc99-elf.a(stdout.AA_o)
                  0x8025b4                  ___stdio_seek
 .libc.__fmt_d    0x8025b8        0x12c c:/program files/microchip/xc-dsc/v3.31/bin/bin/../../lib\libc99-elf.a(__fmt_d.AA_o)
                  0x8025b8                  ___fmt_d_needed
                  0x8025b8                  ___fmt_d
 .libc.__fmt_fp
                  0x8026e4        0x5ac c:/program files/microchip/xc-dsc/v3.31/bin/bin/../../lib\libc99-elf.a(__fmt_fp.AA_o)
                  0x8026e4                  ___fmt_fp
                  0x8026e4                  ___fmt_f_needed
 .libc.__fmt_o    0x802c90         0xc4 c:/program files/microchip/xc-dsc/v3.31/bin/bin/../../lib\libc99-elf.a(__fmt_o.AA_o)
                  0x802c90                  ___fmt_o_needed
                  0x802c90                  ___fmt_o
 .libc.__fmt_s    0x802d54         0x88 c:/program files/microchip/xc-dsc/v3.31/bin/bin/../../lib\libc99-elf.a(__fmt_s.AA_o)
                  0x802d54                  ___fmt_s_needed
                  0x802d54                  ___fmt_s
                  0x802d54                  ___fmt_0_needed
 .libc.__fmt_u    0x802ddc         0x8c c:/program files/microchip/xc-dsc/v3.31/bin/bin/../../lib\libc99-elf.a(__fmt_u.AA_o)
                  0x802ddc                  ___fmt_u
                  0x802ddc                  ___fmt_u_needed
 .libc.__fmt_x    0x802e68        0x1d4 c:/program files/microchip/xc-dsc/v3.31/bin/bin/../../lib\libc99-elf.a(__fmt_x.AA_o)
                  0x802e68                  ___fmt_x
                  0x802e68                  ___fmt_x_needed
 .libc.__vfprintf
                  0x80303c         0x2c c:/program files/microchip/xc-dsc/v3.31/bin/bin/../../lib\libc99-elf.a(__int_vfprintf.AA_o)
                  0x80303c                  ___vfprintf
 .libc.__fwrite_min
                  0x803068          0x8 c:/program files/microchip/xc-dsc/v3.31/bin/bin/../../lib\libc99-elf.a(__out.AA_o)
                  0x803068                  ___fwrite
                  0x803068                  ___stdio_write_unbuffered
                  0x803068                  ___stdio_write
 .libc.__out      0x803070         0x74 c:/program files/microchip/xc-dsc/v3.31/bin/bin/../../lib\libc99-elf.a(__out.AA_o)
                  0x803070                  ___out
                  0x803070                  ___out_needed
 .libc.__pop_float
                  0x8030e4         0x5c c:/program files/microchip/xc-dsc/v3.31/bin/bin/../../lib\libc99-elf.a(__pop_float.AA_o)
                  0x8030e4                  ___pop_float
                  0x8030e4                  ___pop_float_needed
 .libc.__pop_int
                  0x803140        0x17c c:/program files/microchip/xc-dsc/v3.31/bin/bin/../../lib\libc99-elf.a(__pop_int.AA_o)
                  0x803140                  ___pop_int
                  0x803140                  ___pop_int_needed
 .libc.__pop_ptr
                  0x8032bc         0xbc c:/program files/microchip/xc-dsc/v3.31/bin/bin/../../lib\libc99-elf.a(__pop_ptr.AA_o)
                  0x8032bc                  ___pop_ptr_needed
                  0x8032bc                  ___pop_ptr
 .libc.__pad      0x803378         0xc4 c:/program files/microchip/xc-dsc/v3.31/bin/bin/../../lib\libc99-elf.a(__printf_core.AA_o)
                  0x803378                  ___pad
 .libc.__dummy_fmt4
                  0x80343c          0x4 c:/program files/microchip/xc-dsc/v3.31/bin/bin/../../lib\libc99-elf.a(__printf_core.AA_o)
                  0x80343c                  ___fmt_a
 .libc.__fmt_state
                  0x803440         0x58 c:/program files/microchip/xc-dsc/v3.31/bin/bin/../../lib\libc99-elf.a(__printf_core.AA_o)
                  0x803440                  ___fmt_state
 .libc.__printf_core
                  0x803498        0x504 c:/program files/microchip/xc-dsc/v3.31/bin/bin/../../lib\libc99-elf.a(__printf_core.AA_o)
                  0x803498                  ___printf_core
 .libc.__stdio_close_rw
                  0x80399c         0xb0 c:/program files/microchip/xc-dsc/v3.31/bin/bin/../../lib\libc99-elf.a(__stdio_close.AA_o)
                  0x80399c                  ___stdio_close_rw
 .libc.atoi       0x803a4c         0x68 c:/program files/microchip/xc-dsc/v3.31/bin/bin/../../lib\libc99-elf.a(atoi.AA_o)
                  0x803a4c                  _atoi
 .libc.fputs      0x803ab4         0x3c c:/program files/microchip/xc-dsc/v3.31/bin/bin/../../lib\libc99-elf.a(fputs.AA_o)
                  0x803ab4                  _fputs_unlocked
                  0x803ab4                  _fputs
 .libc.fwrite     0x803af0         0x40 c:/program files/microchip/xc-dsc/v3.31/bin/bin/../../lib\libc99-elf.a(fwrite.AA_o)
                  0x803af0                  _fwrite
                  0x803af0                  _fwrite_unlocked
 .libc.__lseek    0x803b30         0x10 c:/program files/microchip/xc-dsc/v3.31/bin/bin/../../lib\libc99-elf.a(lseek.AA_o)
                  0x803b30                  ___lseek
                  0x803b30                  _lseek
 .libc.__putc_unbuffered
                  0x803b40         0x54 c:/program files/microchip/xc-dsc/v3.31/bin/bin/../../lib\libc99-elf.a(putc.AA_o)
                  0x803b40                  ___putc
                  0x803b40                  ___putc_unbuffered
 .libc.putc       0x803b94          0x4 c:/program files/microchip/xc-dsc/v3.31/bin/bin/../../lib\libc99-elf.a(putc.AA_o)
                  0x803b94                  _putc_unlocked
                  0x803b94                  _fputc
                  0x803b94                  _putc
                  0x803b94                  __IO_putc
 .libc.strcpy     0x803b98         0x10 c:/program files/microchip/xc-dsc/v3.31/bin/bin/../../lib\libc99-elf.a(strcpy.AA_o)
                  0x803b98                  _strcpy
 .libc.strlen     0x803ba8         0x6c c:/program files/microchip/xc-dsc/v3.31/bin/bin/../../lib\libc99-elf.a(strlen.AA_o)
                  0x803ba8                  _strlen
 .libc.__syscall_ret
                  0x803c14         0x20 c:/program files/microchip/xc-dsc/v3.31/bin/bin/../../lib\libc99-elf.a(syscall_ret.AA_o)
                  0x803c14                  ___syscall_ret
 .libc.tolower    0x803c34         0x10 c:/program files/microchip/xc-dsc/v3.31/bin/bin/../../lib\libc99-elf.a(tolower.AA_o)
                  0x803c34                  _tolower
 .libc.toupper    0x803c44         0x14 c:/program files/microchip/xc-dsc/v3.31/bin/bin/../../lib\libc99-elf.a(toupper.AA_o)
                  0x803c44                  _toupper
 .libc.__cvt_u    0x803c58        0x10c c:/program files/microchip/xc-dsc/v3.31/bin/bin/../../lib\libc99-elf.a(__cvt_u.AA_o)
                  0x803c58                  ___cvt_u
 .libc.__stpcpy
                  0x803d64         0x80 c:/program files/microchip/xc-dsc/v3.31/bin/bin/../../lib\libc99-elf.a(stpcpy.AA_o)
                  0x803d64                  _stpcpy
                  0x803d64                  ___stpcpy
 .libm.extendsfdf2
                  0x803de4         0x64 c:/program files/microchip/xc-dsc/v3.31/bin/bin/../../lib\libc99-pic30-elf.a(extendsfdf.aa.AA_eo)
                  0x803de4                  ___extendsfdf2
 .libm.funpack    0x803e48         0x50 c:/program files/microchip/xc-dsc/v3.31/bin/bin/../../lib\libc99-pic30-elf.a(funpack.aa.AA_eo)
                  0x803e48                  __funpack
 .libm.__udivmoddi3
                  0x803e98         0xcc c:/program files/microchip/xc-dsc/v3.31/bin/bin/../../lib\libc99-pic30-elf.a(divmoddi3.AA_eo)
                  0x803e98                  ___udivmoddi3
 .libm.__udivdi3
                  0x803f64          0x8 c:/program files/microchip/xc-dsc/v3.31/bin/bin/../../lib\libc99-pic30-elf.a(divmoddi3.AA_eo)
                  0x803f64                  ___udivdi3
 .libm.__umoddi3
                  0x803f6c          0x8 c:/program files/microchip/xc-dsc/v3.31/bin/bin/../../lib\libc99-pic30-elf.a(divmoddi3.AA_eo)
                  0x803f6c                  ___umoddi3
 .libc.floorl     0x803f74         0xe4 c:/program files/microchip/xc-dsc/v3.31/bin/bin/../../lib\libm-elf.a(floorl.AA_o)
                  0x803f74                  _floorl

usercode
 *(usercode)

__FBOOT
 *(__FBOOT.sec*)

__FCP
 *(__FCP.sec*)
 *(__FCP.sec*)

__FICD
 *(__FICD.sec*)
 *(__FICD.sec*)

__FDEVOPT
 *(__FDEVOPT.sec*)
 *(__FDEVOPT.sec*)

__FWDT
 *(__FWDT.sec*)
 *(__FWDT.sec*)

__FPR0CTRL
 *(__FPR0CTRL.sec*)
 *(__FPR0CTRL.sec*)
 *(__FPR0CTRL.sec*)

__FPR0ST
 *(__FPR0ST.sec*)
 *(__FPR0ST.sec*)
 *(__FPR0ST.sec*)

__FPR0END
 *(__FPR0END.sec*)
 *(__FPR0END.sec*)
 *(__FPR0END.sec*)

__FPR1CTRL
 *(__FPR1CTRL.sec*)
 *(__FPR1CTRL.sec*)
 *(__FPR1CTRL.sec*)

__FPR1ST
 *(__FPR1ST.sec*)
 *(__FPR1ST.sec*)
 *(__FPR1ST.sec*)

__FPR1END
 *(__FPR1END.sec*)
 *(__FPR1END.sec*)
 *(__FPR1END.sec*)

__FPR2CTRL
 *(__FPR2CTRL.sec*)
 *(__FPR2CTRL.sec*)
 *(__FPR2CTRL.sec*)

__FPR2ST
 *(__FPR2ST.sec*)
 *(__FPR2ST.sec*)
 *(__FPR2ST.sec*)

__FPR2END
 *(__FPR2END.sec*)
 *(__FPR2END.sec*)
 *(__FPR2END.sec*)

__FPR3CTRL
 *(__FPR3CTRL.sec*)
 *(__FPR3CTRL.sec*)
 *(__FPR3CTRL.sec*)

__FPR3ST
 *(__FPR3ST.sec*)
 *(__FPR3ST.sec*)
 *(__FPR3ST.sec*)

__FPR3END
 *(__FPR3END.sec*)
 *(__FPR3END.sec*)
 *(__FPR3END.sec*)

__FPR4CTRL
 *(__FPR4CTRL.sec*)
 *(__FPR4CTRL.sec*)
 *(__FPR4CTRL.sec*)

__FPR4ST
 *(__FPR4ST.sec*)
 *(__FPR4ST.sec*)
 *(__FPR4ST.sec*)

__FPR4END
 *(__FPR4END.sec*)
 *(__FPR4END.sec*)
 *(__FPR4END.sec*)

__FPR5CTRL
 *(__FPR5CTRL.sec*)
 *(__FPR5CTRL.sec*)
 *(__FPR5CTRL.sec*)

__FPR5ST
 *(__FPR5ST.sec*)
 *(__FPR5ST.sec*)
 *(__FPR5ST.sec*)

__FPR5END
 *(__FPR5END.sec*)
 *(__FPR5END.sec*)
 *(__FPR5END.sec*)

__FPR6CTRL
 *(__FPR6CTRL.sec*)
 *(__FPR6CTRL.sec*)
 *(__FPR6CTRL.sec*)

__FPR6ST
 *(__FPR6ST.sec*)
 *(__FPR6ST.sec*)
 *(__FPR6ST.sec*)

__FPR6END
 *(__FPR6END.sec*)
 *(__FPR6END.sec*)
 *(__FPR6END.sec*)

__FPR7CTRL
 *(__FPR7CTRL.sec*)
 *(__FPR7CTRL.sec*)
 *(__FPR7CTRL.sec*)

__FPR7ST
 *(__FPR7ST.sec*)
 *(__FPR7ST.sec*)
 *(__FPR7ST.sec*)

__FPR7END
 *(__FPR7END.sec*)
 *(__FPR7END.sec*)
 *(__FPR7END.sec*)

__FIRT
 *(__FIRT.sec*)
 *(__FIRT.sec*)
 *(__FIRT.sec*)

__FSECDBG
 *(__FSECDBG.sec*)
 *(__FSECDBG.sec*)
 *(__FSECDBG.sec*)

__FPED
 *(__FPED.sec*)
 *(__FPED.sec*)
 *(__FPED.sec*)

__FEPUCB
 *(__FEPUCB.sec*)
 *(__FEPUCB.sec*)
 *(__FEPUCB.sec*)

__FWPUCB
 *(__FWPUCB.sec*)
 *(__FWPUCB.sec*)
 *(__FWPUCB.sec*)

.comment            0x0000       0x1edc
 *(.comment)
 .comment           0x0000         0x5c build/dsPIC33AK512/production/_ext/659850406/adc5.o
 .comment           0x005c         0x5c build/dsPIC33AK512/production/_ext/659850406/adc3.o
 .comment           0x00b8         0x5c build/dsPIC33AK512/production/_ext/659850406/adc4.o
 .comment           0x0114         0x5c build/dsPIC33AK512/production/_ext/1538408868/float_conversion.o
 .comment           0x0170         0x5c build/dsPIC33AK512/production/_ext/1538408868/gain_ctrl.o
 .comment           0x01cc         0x5c build/dsPIC33AK512/production/_ext/1538408868/tone_ctrl.o
 .comment           0x0228         0x5c build/dsPIC33AK512/production/_ext/1538408868/LED_level_meter.o
 .comment           0x0284         0x5c build/dsPIC33AK512/production/_ext/1538408868/snd_effect_play.o
 .comment           0x02e0         0x5c build/dsPIC33AK512/production/_ext/1538408868/engine_synth.o
 .comment           0x033c         0x5c build/dsPIC33AK512/production/_ext/1538408868/widen_ctrl.o
 .comment           0x0398         0x5c build/dsPIC33AK512/production/_ext/1538408868/bass_enhancer.o
 .comment           0x03f4         0x5c build/dsPIC33AK512/production/_ext/1538408868/click_crack_synth.o
 .comment           0x0450         0x5c build/dsPIC33AK512/production/_ext/1034234695/button_led.o
 .comment           0x04ac         0x5c build/dsPIC33AK512/production/_ext/1034234695/pot.o
 .comment           0x0508         0x5c build/dsPIC33AK512/production/_ext/1536116519/app_debug.o
 .comment           0x0564         0x5c build/dsPIC33AK512/production/_ext/1536116519/dbconsole.o
 .comment           0x05c0         0x5c build/dsPIC33AK512/production/_ext/1521024571/touch.o
 .comment           0x061c         0x5c build/dsPIC33AK512/production/_ext/1018880376/uart1.o
 .comment           0x0678         0x5c build/dsPIC33AK512/production/_ext/1360937237/SPI_TDM_drv.o
 .comment           0x06d4         0x5c build/dsPIC33AK512/production/_ext/1360937237/i2c.o
 .comment           0x0730         0x5c build/dsPIC33AK512/production/_ext/1360937237/main.o
 .comment           0x078c         0x5c build/dsPIC33AK512/production/_ext/1360937237/osc_drv.o
 .comment           0x07e8         0x5c build/dsPIC33AK512/production/_ext/1360937237/tick_time.o
 .comment           0x0844         0x5c build/dsPIC33AK512/production/_ext/1360937237/pwm.o
 .comment           0x08a0         0x5c build/dsPIC33AK512/production/_ext/1360937237/wm8904.o
 .comment           0x08fc         0x5c build/dsPIC33AK512/production/_ext/1360937237/SPI3_drv.o
 .comment           0x0958         0x5c build/dsPIC33AK512/production/_ext/1360937237/SST26_drv.o
 .comment           0x09b4         0x5c build/dsPIC33AK512/production/_ext/335358292/eq_api_33AK.o
 .comment           0x0a10         0x5c build/dsPIC33AK512/production/_ext/335358292/eq_perseus_wrapper.o
 .comment           0x0a6c         0x5c build/dsPIC33AK512/production/_ext/1536116519/eq_benchmark.o
 .comment           0x0ac8         0x5c build/dsPIC33AK512/production/_ext/1538408868/aec_33ak.o
 .comment           0x0b24         0x5c build/dsPIC33AK512/production/_ext/1538408868/aec_nlms_float.o
 .comment           0x0b80         0x5c build/dsPIC33AK512/production/_ext/1538408868/aec_src.o
 .comment           0x0bdc         0x5c build/dsPIC33AK512/production/_ext/1538408868/aec_vad_float.o
 .comment           0x0c38         0x58 ..\src\touch\lib\qtm_acq_dspic33ak_mp_0x0051.X.a(pic_acq_x_dspic33ak_mp.o)
 .comment           0x0c90         0x58 ..\src\touch\lib\qtm_freq_hop_auto_dspic33akmp_0x0004.X.a(pic_freq_hop_auto_x_dspic33akmp.o)
 .comment           0x0ce8         0x58 ..\src\touch\lib\qtm_touch_key_dspic33akmp_0x0002.X.a(pic_touch_key_x_dspic33akmp.o)
 .comment           0x0d40         0x5c c:/program files/microchip/xc-dsc/v3.31/bin/bin/../../lib\libm-elf.a(expf.AA_o)
 .comment           0x0d9c         0x5c c:/program files/microchip/xc-dsc/v3.31/bin/bin/../../lib\libm-elf.a(log10f.AA_o)
 .comment           0x0df8         0x5c c:/program files/microchip/xc-dsc/v3.31/bin/bin/../../lib\libm-elf.a(logf.AA_o)
 .comment           0x0e54         0x5c c:/program files/microchip/xc-dsc/v3.31/bin/bin/../../lib\libm-elf.a(lrintf.AA_o)
 .comment           0x0eb0         0x5c c:/program files/microchip/xc-dsc/v3.31/bin/bin/../../lib\libm-elf.a(powf.AA_o)
 .comment           0x0f0c         0x5c c:/program files/microchip/xc-dsc/v3.31/bin/bin/../../lib\libm-elf.a(rintf.AA_o)
 .comment           0x0f68         0x5c c:/program files/microchip/xc-dsc/v3.31/bin/bin/../../lib\libm-elf.a(scalbnf.AA_o)
 .comment           0x0fc4         0x5c c:/program files/microchip/xc-dsc/v3.31/bin/bin/../../lib\libm-elf.a(sqrtf.AA_o)
 .comment           0x1020         0x5c c:/program files/microchip/xc-dsc/v3.31/bin/bin/../../lib\libm-elf.a(tanhf.AA_o)
 .comment           0x107c         0x5c c:/program files/microchip/xc-dsc/v3.31/bin/bin/../../lib\libm-elf.a(expm1f.AA_o)
 .comment           0x10d8         0x5c c:/program files/microchip/xc-dsc/v3.31/bin/bin/../../lib\libm-elf.a(fabsf.AA_o)
 .comment           0x1134         0x5c c:/program files/microchip/xc-dsc/v3.31/bin/bin/../../lib\libc99-elf.a(__errno_location.AA_o)
 .comment           0x1190         0x5c c:/program files/microchip/xc-dsc/v3.31/bin/bin/../../lib\libc99-elf.a(__sio_printf_dfosux.AA_o)
 .comment           0x11ec         0x5c c:/program files/microchip/xc-dsc/v3.31/bin/bin/../../lib\libc99-elf.a(__sio_printf_dfoux.AA_o)
 .comment           0x1248         0x5c c:/program files/microchip/xc-dsc/v3.31/bin/bin/../../lib\libc99-elf.a(__sio_printf_doux.AA_o)
 .comment           0x12a4         0x5c c:/program files/microchip/xc-dsc/v3.31/bin/bin/../../lib\libc99-elf.a(__sio_printf_f.AA_o)
 .comment           0x1300         0x5c c:/program files/microchip/xc-dsc/v3.31/bin/bin/../../lib\libc99-elf.a(memcpy.AA_o)
 .comment           0x135c         0x5c c:/program files/microchip/xc-dsc/v3.31/bin/bin/../../lib\libc99-elf.a(memset.AA_o)
 .comment           0x13b8         0x5c c:/program files/microchip/xc-dsc/v3.31/bin/bin/../../lib\libc99-elf.a(putchar.AA_o)
 .comment           0x1414         0x5c c:/program files/microchip/xc-dsc/v3.31/bin/bin/../../lib\libc99-elf.a(puts.AA_o)
 .comment           0x1470         0x5c c:/program files/microchip/xc-dsc/v3.31/bin/bin/../../lib\libc99-elf.a(stdout.AA_o)
 .comment           0x14cc         0x5c c:/program files/microchip/xc-dsc/v3.31/bin/bin/../../lib\libc99-elf.a(__fmt_d.AA_o)
 .comment           0x1528         0x5c c:/program files/microchip/xc-dsc/v3.31/bin/bin/../../lib\libc99-elf.a(__fmt_fp.AA_o)
 .comment           0x1584         0x5c c:/program files/microchip/xc-dsc/v3.31/bin/bin/../../lib\libc99-elf.a(__fmt_o.AA_o)
 .comment           0x15e0         0x5c c:/program files/microchip/xc-dsc/v3.31/bin/bin/../../lib\libc99-elf.a(__fmt_s.AA_o)
 .comment           0x163c         0x5c c:/program files/microchip/xc-dsc/v3.31/bin/bin/../../lib\libc99-elf.a(__fmt_u.AA_o)
 .comment           0x1698         0x5c c:/program files/microchip/xc-dsc/v3.31/bin/bin/../../lib\libc99-elf.a(__fmt_x.AA_o)
 .comment           0x16f4         0x5c c:/program files/microchip/xc-dsc/v3.31/bin/bin/../../lib\libc99-elf.a(__int_vfprintf.AA_o)
 .comment           0x1750         0x5c c:/program files/microchip/xc-dsc/v3.31/bin/bin/../../lib\libc99-elf.a(__out.AA_o)
 .comment           0x17ac         0x5c c:/program files/microchip/xc-dsc/v3.31/bin/bin/../../lib\libc99-elf.a(__pop_float.AA_o)
 .comment           0x1808         0x5c c:/program files/microchip/xc-dsc/v3.31/bin/bin/../../lib\libc99-elf.a(__pop_int.AA_o)
 .comment           0x1864         0x5c c:/program files/microchip/xc-dsc/v3.31/bin/bin/../../lib\libc99-elf.a(__pop_ptr.AA_o)
 .comment           0x18c0         0x5c c:/program files/microchip/xc-dsc/v3.31/bin/bin/../../lib\libc99-elf.a(__printf_core.AA_o)
 .comment           0x191c         0x5c c:/program files/microchip/xc-dsc/v3.31/bin/bin/../../lib\libc99-elf.a(__stdio_close.AA_o)
 .comment           0x1978         0x5c c:/program files/microchip/xc-dsc/v3.31/bin/bin/../../lib\libc99-elf.a(atoi.AA_o)
 .comment           0x19d4         0x5c c:/program files/microchip/xc-dsc/v3.31/bin/bin/../../lib\libc99-elf.a(fputs.AA_o)
 .comment           0x1a30         0x5c c:/program files/microchip/xc-dsc/v3.31/bin/bin/../../lib\libc99-elf.a(fwrite.AA_o)
 .comment           0x1a8c         0x5c c:/program files/microchip/xc-dsc/v3.31/bin/bin/../../lib\libc99-elf.a(lseek.AA_o)
 .comment           0x1ae8         0x5c c:/program files/microchip/xc-dsc/v3.31/bin/bin/../../lib\libc99-elf.a(putc.AA_o)
 .comment           0x1b44         0x5c c:/program files/microchip/xc-dsc/v3.31/bin/bin/../../lib\libc99-elf.a(strcpy.AA_o)
 .comment           0x1ba0         0x5c c:/program files/microchip/xc-dsc/v3.31/bin/bin/../../lib\libc99-elf.a(strlen.AA_o)
 .comment           0x1bfc         0x5c c:/program files/microchip/xc-dsc/v3.31/bin/bin/../../lib\libc99-elf.a(syscall_ret.AA_o)
 .comment           0x1c58         0x5c c:/program files/microchip/xc-dsc/v3.31/bin/bin/../../lib\libc99-elf.a(tolower.AA_o)
 .comment           0x1cb4         0x5c c:/program files/microchip/xc-dsc/v3.31/bin/bin/../../lib\libc99-elf.a(toupper.AA_o)
 .comment           0x1d10         0x5c c:/program files/microchip/xc-dsc/v3.31/bin/bin/../../lib\libc99-elf.a(__cvt_u.AA_o)
 .comment           0x1d6c         0x5c c:/program files/microchip/xc-dsc/v3.31/bin/bin/../../lib\libc99-elf.a(stpcpy.AA_o)
 .comment           0x1dc8         0x5c c:/program files/microchip/xc-dsc/v3.31/bin/bin/../../lib\libc99-pic30-elf.a(close.AAMeo)
 .comment           0x1e24         0x5c c:/program files/microchip/xc-dsc/v3.31/bin/bin/../../lib\libc99-pic30-elf.a(divmoddi3.AA_eo)
 .comment           0x1e80         0x5c c:/program files/microchip/xc-dsc/v3.31/bin/bin/../../lib\libm-elf.a(floorl.AA_o)

.debug_info         0x0000      0x2c77a
 *(.debug_info)
 .debug_info        0x0000       0x1b42 build/dsPIC33AK512/production/_ext/659850406/adc5.o
 .debug_info        0x1b42       0x2291 build/dsPIC33AK512/production/_ext/659850406/adc3.o
 .debug_info        0x3dd3       0x1d84 build/dsPIC33AK512/production/_ext/659850406/adc4.o
 .debug_info        0x5b57        0x802 build/dsPIC33AK512/production/_ext/1538408868/float_conversion.o
 .debug_info        0x6359        0xac2 build/dsPIC33AK512/production/_ext/1538408868/gain_ctrl.o
 .debug_info        0x6e1b       0x1322 build/dsPIC33AK512/production/_ext/1538408868/tone_ctrl.o
 .debug_info        0x813d        0x45d build/dsPIC33AK512/production/_ext/1538408868/LED_level_meter.o
 .debug_info        0x859a        0x637 build/dsPIC33AK512/production/_ext/1538408868/snd_effect_play.o
 .debug_info        0x8bd1       0x22cf build/dsPIC33AK512/production/_ext/1538408868/engine_synth.o
 .debug_info        0xaea0       0x12f8 build/dsPIC33AK512/production/_ext/1538408868/widen_ctrl.o
 .debug_info        0xc198       0x2755 build/dsPIC33AK512/production/_ext/1538408868/bass_enhancer.o
 .debug_info        0xe8ed       0x1c7a build/dsPIC33AK512/production/_ext/1538408868/click_crack_synth.o
 .debug_info        0x10567        0xf31 build/dsPIC33AK512/production/_ext/1034234695/button_led.o
 .debug_info        0x11498        0x633 build/dsPIC33AK512/production/_ext/1034234695/pot.o
 .debug_info        0x11acb       0x12fc build/dsPIC33AK512/production/_ext/1536116519/app_debug.o
 .debug_info        0x12dc7        0xa10 build/dsPIC33AK512/production/_ext/1536116519/dbconsole.o
 .debug_info        0x137d7       0x2615 build/dsPIC33AK512/production/_ext/1521024571/touch.o
 .debug_info        0x15dec       0x15e3 build/dsPIC33AK512/production/_ext/1018880376/uart1.o
 .debug_info        0x173cf       0x277b build/dsPIC33AK512/production/_ext/1360937237/SPI_TDM_drv.o
 .debug_info        0x19b4a       0x1d81 build/dsPIC33AK512/production/_ext/1360937237/i2c.o
 .debug_info        0x1b8cb       0x1df1 build/dsPIC33AK512/production/_ext/1360937237/main.o
 .debug_info        0x1d6bc       0x18e2 build/dsPIC33AK512/production/_ext/1360937237/osc_drv.o
 .debug_info        0x1ef9e        0xb1d build/dsPIC33AK512/production/_ext/1360937237/tick_time.o
 .debug_info        0x1fabb       0x37f0 build/dsPIC33AK512/production/_ext/1360937237/pwm.o
 .debug_info        0x232ab        0xe8e build/dsPIC33AK512/production/_ext/1360937237/wm8904.o
 .debug_info        0x24139       0x14f1 build/dsPIC33AK512/production/_ext/1360937237/SPI3_drv.o
 .debug_info        0x2562a       0x1600 build/dsPIC33AK512/production/_ext/1360937237/SST26_drv.o
 .debug_info        0x26c2a       0x16f9 build/dsPIC33AK512/production/_ext/335358292/eq_api_33AK.o
 .debug_info        0x28323        0xfb7 build/dsPIC33AK512/production/_ext/335358292/eq_perseus_wrapper.o
 .debug_info        0x292da        0xf37 build/dsPIC33AK512/production/_ext/1536116519/eq_benchmark.o
 .debug_info        0x2a211        0xc7b build/dsPIC33AK512/production/_ext/1538408868/aec_33ak.o
 .debug_info        0x2ae8c        0x838 build/dsPIC33AK512/production/_ext/1538408868/aec_nlms_float.o
 .debug_info        0x2b6c4        0x844 build/dsPIC33AK512/production/_ext/1538408868/aec_src.o
 .debug_info        0x2bf08        0x826 build/dsPIC33AK512/production/_ext/1538408868/aec_vad_float.o
 .debug_info        0x2c72e         0x26 c:/program files/microchip/xc-dsc/v3.31/bin/bin/../../lib\libc99-pic30-elf.a(extendsfdf.aa.AA_eo)
 .debug_info        0x2c754         0x26 c:/program files/microchip/xc-dsc/v3.31/bin/bin/../../lib\libc99-pic30-elf.a(funpack.aa.AA_eo)
 *(.gnu.linkonce.wi.*)

.debug_abbrev       0x0000       0x5367
 *(.debug_abbrev)
 .debug_abbrev      0x0000        0x27b build/dsPIC33AK512/production/_ext/659850406/adc5.o
 .debug_abbrev      0x027b        0x254 build/dsPIC33AK512/production/_ext/659850406/adc3.o
 .debug_abbrev      0x04cf        0x199 build/dsPIC33AK512/production/_ext/659850406/adc4.o
 .debug_abbrev      0x0668        0x149 build/dsPIC33AK512/production/_ext/1538408868/float_conversion.o
 .debug_abbrev      0x07b1        0x2ca build/dsPIC33AK512/production/_ext/1538408868/gain_ctrl.o
 .debug_abbrev      0x0a7b        0x250 build/dsPIC33AK512/production/_ext/1538408868/tone_ctrl.o
 .debug_abbrev      0x0ccb         0xd9 build/dsPIC33AK512/production/_ext/1538408868/LED_level_meter.o
 .debug_abbrev      0x0da4        0x17f build/dsPIC33AK512/production/_ext/1538408868/snd_effect_play.o
 .debug_abbrev      0x0f23        0x455 build/dsPIC33AK512/production/_ext/1538408868/engine_synth.o
 .debug_abbrev      0x1378        0x2c6 build/dsPIC33AK512/production/_ext/1538408868/widen_ctrl.o
 .debug_abbrev      0x163e        0x3c1 build/dsPIC33AK512/production/_ext/1538408868/bass_enhancer.o
 .debug_abbrev      0x19ff        0x3e8 build/dsPIC33AK512/production/_ext/1538408868/click_crack_synth.o
 .debug_abbrev      0x1de7        0x275 build/dsPIC33AK512/production/_ext/1034234695/button_led.o
 .debug_abbrev      0x205c        0x1d0 build/dsPIC33AK512/production/_ext/1034234695/pot.o
 .debug_abbrev      0x222c        0x281 build/dsPIC33AK512/production/_ext/1536116519/app_debug.o
 .debug_abbrev      0x24ad        0x233 build/dsPIC33AK512/production/_ext/1536116519/dbconsole.o
 .debug_abbrev      0x26e0        0x34d build/dsPIC33AK512/production/_ext/1521024571/touch.o
 .debug_abbrev      0x2a2d        0x2e8 build/dsPIC33AK512/production/_ext/1018880376/uart1.o
 .debug_abbrev      0x2d15        0x31b build/dsPIC33AK512/production/_ext/1360937237/SPI_TDM_drv.o
 .debug_abbrev      0x3030        0x287 build/dsPIC33AK512/production/_ext/1360937237/i2c.o
 .debug_abbrev      0x32b7        0x31d build/dsPIC33AK512/production/_ext/1360937237/main.o
 .debug_abbrev      0x35d4        0x232 build/dsPIC33AK512/production/_ext/1360937237/osc_drv.o
 .debug_abbrev      0x3806        0x178 build/dsPIC33AK512/production/_ext/1360937237/tick_time.o
 .debug_abbrev      0x397e        0x1ff build/dsPIC33AK512/production/_ext/1360937237/pwm.o
 .debug_abbrev      0x3b7d        0x21e build/dsPIC33AK512/production/_ext/1360937237/wm8904.o
 .debug_abbrev      0x3d9b        0x19f build/dsPIC33AK512/production/_ext/1360937237/SPI3_drv.o
 .debug_abbrev      0x3f3a        0x2da build/dsPIC33AK512/production/_ext/1360937237/SST26_drv.o
 .debug_abbrev      0x4214        0x39e build/dsPIC33AK512/production/_ext/335358292/eq_api_33AK.o
 .debug_abbrev      0x45b2        0x2ce build/dsPIC33AK512/production/_ext/335358292/eq_perseus_wrapper.o
 .debug_abbrev      0x4880        0x277 build/dsPIC33AK512/production/_ext/1536116519/eq_benchmark.o
 .debug_abbrev      0x4af7        0x27a build/dsPIC33AK512/production/_ext/1538408868/aec_33ak.o
 .debug_abbrev      0x4d71        0x1e3 build/dsPIC33AK512/production/_ext/1538408868/aec_nlms_float.o
 .debug_abbrev      0x4f54        0x1b2 build/dsPIC33AK512/production/_ext/1538408868/aec_src.o
 .debug_abbrev      0x5106        0x239 build/dsPIC33AK512/production/_ext/1538408868/aec_vad_float.o
 .debug_abbrev      0x533f         0x14 c:/program files/microchip/xc-dsc/v3.31/bin/bin/../../lib\libc99-pic30-elf.a(extendsfdf.aa.AA_eo)
 .debug_abbrev      0x5353         0x14 c:/program files/microchip/xc-dsc/v3.31/bin/bin/../../lib\libc99-pic30-elf.a(funpack.aa.AA_eo)

.debug_line         0x0000       0xe251
 *(.debug_line)
 .debug_line        0x0000        0x819 build/dsPIC33AK512/production/_ext/659850406/adc5.o
 .debug_line        0x0819        0x638 build/dsPIC33AK512/production/_ext/659850406/adc3.o
 .debug_line        0x0e51        0x50b build/dsPIC33AK512/production/_ext/659850406/adc4.o
 .debug_line        0x135c        0x27e build/dsPIC33AK512/production/_ext/1538408868/float_conversion.o
 .debug_line        0x15da        0x4dd build/dsPIC33AK512/production/_ext/1538408868/gain_ctrl.o
 .debug_line        0x1ab7        0x927 build/dsPIC33AK512/production/_ext/1538408868/tone_ctrl.o
 .debug_line        0x23de        0x161 build/dsPIC33AK512/production/_ext/1538408868/LED_level_meter.o
 .debug_line        0x253f        0x29e build/dsPIC33AK512/production/_ext/1538408868/snd_effect_play.o
 .debug_line        0x27dd       0x136b build/dsPIC33AK512/production/_ext/1538408868/engine_synth.o
 .debug_line        0x3b48        0xb74 build/dsPIC33AK512/production/_ext/1538408868/widen_ctrl.o
 .debug_line        0x46bc       0x1763 build/dsPIC33AK512/production/_ext/1538408868/bass_enhancer.o
 .debug_line        0x5e1f        0xfba build/dsPIC33AK512/production/_ext/1538408868/click_crack_synth.o
 .debug_line        0x6dd9        0x65c build/dsPIC33AK512/production/_ext/1034234695/button_led.o
 .debug_line        0x7435        0x189 build/dsPIC33AK512/production/_ext/1034234695/pot.o
 .debug_line        0x75be        0x82e build/dsPIC33AK512/production/_ext/1536116519/app_debug.o
 .debug_line        0x7dec        0x4d8 build/dsPIC33AK512/production/_ext/1536116519/dbconsole.o
 .debug_line        0x82c4        0x5af build/dsPIC33AK512/production/_ext/1521024571/touch.o
 .debug_line        0x8873        0x50d build/dsPIC33AK512/production/_ext/1018880376/uart1.o
 .debug_line        0x8d80        0x7bc build/dsPIC33AK512/production/_ext/1360937237/SPI_TDM_drv.o
 .debug_line        0x953c        0xa33 build/dsPIC33AK512/production/_ext/1360937237/i2c.o
 .debug_line        0x9f6f        0x91e build/dsPIC33AK512/production/_ext/1360937237/main.o
 .debug_line        0xa88d        0x622 build/dsPIC33AK512/production/_ext/1360937237/osc_drv.o
 .debug_line        0xaeaf        0x1ba build/dsPIC33AK512/production/_ext/1360937237/tick_time.o
 .debug_line        0xb069        0x8ea build/dsPIC33AK512/production/_ext/1360937237/pwm.o
 .debug_line        0xb953        0x311 build/dsPIC33AK512/production/_ext/1360937237/wm8904.o
 .debug_line        0xbc64        0x30e build/dsPIC33AK512/production/_ext/1360937237/SPI3_drv.o
 .debug_line        0xbf72        0x4d0 build/dsPIC33AK512/production/_ext/1360937237/SST26_drv.o
 .debug_line        0xc442        0xbee build/dsPIC33AK512/production/_ext/335358292/eq_api_33AK.o
 .debug_line        0xd030        0x2ff build/dsPIC33AK512/production/_ext/335358292/eq_perseus_wrapper.o
 .debug_line        0xd32f        0x44f build/dsPIC33AK512/production/_ext/1536116519/eq_benchmark.o
 .debug_line        0xd77e        0x2a3 build/dsPIC33AK512/production/_ext/1538408868/aec_33ak.o
 .debug_line        0xda21        0x1db build/dsPIC33AK512/production/_ext/1538408868/aec_nlms_float.o
 .debug_line        0xdbfc        0x295 build/dsPIC33AK512/production/_ext/1538408868/aec_src.o
 .debug_line        0xde91        0x312 build/dsPIC33AK512/production/_ext/1538408868/aec_vad_float.o
 .debug_line        0xe1a3         0x5e c:/program files/microchip/xc-dsc/v3.31/bin/bin/../../lib\libc99-pic30-elf.a(extendsfdf.aa.AA_eo)
 .debug_line        0xe201         0x50 c:/program files/microchip/xc-dsc/v3.31/bin/bin/../../lib\libc99-pic30-elf.a(funpack.aa.AA_eo)

.debug_frame        0x0000       0x1e18
 *(.debug_frame)
 .debug_frame       0x0000        0x114 build/dsPIC33AK512/production/_ext/659850406/adc5.o
 .debug_frame       0x0114         0x88 build/dsPIC33AK512/production/_ext/659850406/adc3.o
 .debug_frame       0x019c         0x70 build/dsPIC33AK512/production/_ext/659850406/adc4.o
 .debug_frame       0x020c         0x8c build/dsPIC33AK512/production/_ext/1538408868/float_conversion.o
 .debug_frame       0x0298         0xd0 build/dsPIC33AK512/production/_ext/1538408868/gain_ctrl.o
 .debug_frame       0x0368        0x118 build/dsPIC33AK512/production/_ext/1538408868/tone_ctrl.o
 .debug_frame       0x0480         0x2c build/dsPIC33AK512/production/_ext/1538408868/LED_level_meter.o
 .debug_frame       0x04ac         0x48 build/dsPIC33AK512/production/_ext/1538408868/snd_effect_play.o
 .debug_frame       0x04f4        0x140 build/dsPIC33AK512/production/_ext/1538408868/engine_synth.o
 .debug_frame       0x0634         0xf8 build/dsPIC33AK512/production/_ext/1538408868/widen_ctrl.o
 .debug_frame       0x072c        0x168 build/dsPIC33AK512/production/_ext/1538408868/bass_enhancer.o
 .debug_frame       0x0894        0x168 build/dsPIC33AK512/production/_ext/1538408868/click_crack_synth.o
 .debug_frame       0x09fc         0xb8 build/dsPIC33AK512/production/_ext/1034234695/button_led.o
 .debug_frame       0x0ab4         0x44 build/dsPIC33AK512/production/_ext/1034234695/pot.o
 .debug_frame       0x0af8         0x5c build/dsPIC33AK512/production/_ext/1536116519/app_debug.o
 .debug_frame       0x0b54         0x44 build/dsPIC33AK512/production/_ext/1536116519/dbconsole.o
 .debug_frame       0x0b98        0x1c4 build/dsPIC33AK512/production/_ext/1521024571/touch.o
 .debug_frame       0x0d5c         0xdc build/dsPIC33AK512/production/_ext/1018880376/uart1.o
 .debug_frame       0x0e38         0xe4 build/dsPIC33AK512/production/_ext/1360937237/SPI_TDM_drv.o
 .debug_frame       0x0f1c        0x24c build/dsPIC33AK512/production/_ext/1360937237/i2c.o
 .debug_frame       0x1168        0x15c build/dsPIC33AK512/production/_ext/1360937237/main.o
 .debug_frame       0x12c4         0xbc build/dsPIC33AK512/production/_ext/1360937237/osc_drv.o
 .debug_frame       0x1380         0x64 build/dsPIC33AK512/production/_ext/1360937237/tick_time.o
 .debug_frame       0x13e4        0x14c build/dsPIC33AK512/production/_ext/1360937237/pwm.o
 .debug_frame       0x1530         0x64 build/dsPIC33AK512/production/_ext/1360937237/wm8904.o
 .debug_frame       0x1594         0x8c build/dsPIC33AK512/production/_ext/1360937237/SPI3_drv.o
 .debug_frame       0x1620        0x148 build/dsPIC33AK512/production/_ext/1360937237/SST26_drv.o
 .debug_frame       0x1768        0x1f0 build/dsPIC33AK512/production/_ext/335358292/eq_api_33AK.o
 .debug_frame       0x1958        0x154 build/dsPIC33AK512/production/_ext/335358292/eq_perseus_wrapper.o
 .debug_frame       0x1aac         0xd4 build/dsPIC33AK512/production/_ext/1536116519/eq_benchmark.o
 .debug_frame       0x1b80         0xb0 build/dsPIC33AK512/production/_ext/1538408868/aec_33ak.o
 .debug_frame       0x1c30         0x90 build/dsPIC33AK512/production/_ext/1538408868/aec_nlms_float.o
 .debug_frame       0x1cc0         0xb4 build/dsPIC33AK512/production/_ext/1538408868/aec_src.o
 .debug_frame       0x1d74         0xa4 build/dsPIC33AK512/production/_ext/1538408868/aec_vad_float.o

.debug_str          0x0000       0x10ed
 *(.debug_str)
 .debug_str         0x0000         0x32 build/dsPIC33AK512/production/_ext/659850406/adc5.o
 .debug_str         0x0032         0x11 build/dsPIC33AK512/production/_ext/659850406/adc3.o
 .debug_str         0x0043         0x37 build/dsPIC33AK512/production/_ext/659850406/adc4.o
 .debug_str         0x007a         0x2c build/dsPIC33AK512/production/_ext/1538408868/float_conversion.o
 .debug_str         0x00a6         0x36 build/dsPIC33AK512/production/_ext/1538408868/gain_ctrl.o
 .debug_str         0x00dc         0x26 build/dsPIC33AK512/production/_ext/1538408868/tone_ctrl.o
 .debug_str         0x0102          0xd build/dsPIC33AK512/production/_ext/1538408868/LED_level_meter.o
 .debug_str         0x010f         0x10 build/dsPIC33AK512/production/_ext/1538408868/snd_effect_play.o
 .debug_str         0x011f         0x33 build/dsPIC33AK512/production/_ext/1538408868/engine_synth.o
 .debug_str         0x0152         0x55 build/dsPIC33AK512/production/_ext/1538408868/widen_ctrl.o
 .debug_str         0x01a7         0x6a build/dsPIC33AK512/production/_ext/1538408868/bass_enhancer.o
 .debug_str         0x0211         0x5e build/dsPIC33AK512/production/_ext/1538408868/click_crack_synth.o
 .debug_str         0x026f         0x29 build/dsPIC33AK512/production/_ext/1034234695/button_led.o
 .debug_str         0x0298          0x0 build/dsPIC33AK512/production/_ext/1034234695/pot.o
 .debug_str         0x0298        0x17c build/dsPIC33AK512/production/_ext/1536116519/app_debug.o
 .debug_str         0x0414          0xa build/dsPIC33AK512/production/_ext/1536116519/dbconsole.o
 .debug_str         0x041e        0x1a2 build/dsPIC33AK512/production/_ext/1521024571/touch.o
 .debug_str         0x05c0          0x0 build/dsPIC33AK512/production/_ext/1018880376/uart1.o
 .debug_str         0x05c0        0x181 build/dsPIC33AK512/production/_ext/1360937237/SPI_TDM_drv.o
 .debug_str         0x0741         0x26 build/dsPIC33AK512/production/_ext/1360937237/i2c.o
 .debug_str         0x0767        0x383 build/dsPIC33AK512/production/_ext/1360937237/main.o
 .debug_str         0x0aea         0xce build/dsPIC33AK512/production/_ext/1360937237/osc_drv.o
 .debug_str         0x0bb8          0x0 build/dsPIC33AK512/production/_ext/1360937237/tick_time.o
 .debug_str         0x0bb8        0x1bf build/dsPIC33AK512/production/_ext/1360937237/pwm.o
 .debug_str         0x0d77         0x4e build/dsPIC33AK512/production/_ext/1360937237/wm8904.o
 .debug_str         0x0dc5          0x9 build/dsPIC33AK512/production/_ext/1360937237/SPI3_drv.o
 .debug_str         0x0dce         0x3d build/dsPIC33AK512/production/_ext/1360937237/SST26_drv.o
 .debug_str         0x0e0b         0x47 build/dsPIC33AK512/production/_ext/335358292/eq_api_33AK.o
 .debug_str         0x0e52         0x53 build/dsPIC33AK512/production/_ext/335358292/eq_perseus_wrapper.o
 .debug_str         0x0ea5         0xce build/dsPIC33AK512/production/_ext/1536116519/eq_benchmark.o
 .debug_str         0x0f73         0x5c build/dsPIC33AK512/production/_ext/1538408868/aec_33ak.o
 .debug_str         0x0fcf         0x35 build/dsPIC33AK512/production/_ext/1538408868/aec_nlms_float.o
 .debug_str         0x1004         0x2a build/dsPIC33AK512/production/_ext/1538408868/aec_src.o
 .debug_str         0x102e         0x1e build/dsPIC33AK512/production/_ext/1538408868/aec_vad_float.o
 .debug_str         0x104c         0x52 c:/program files/microchip/xc-dsc/v3.31/bin/bin/../../lib\libc99-pic30-elf.a(extendsfdf.aa.AA_eo)
 .debug_str         0x109e         0x4f c:/program files/microchip/xc-dsc/v3.31/bin/bin/../../lib\libc99-pic30-elf.a(funpack.aa.AA_eo)

.debug_loc          0x0000      0x161dd
 *(.debug_loc)
 .debug_loc         0x0000        0x381 build/dsPIC33AK512/production/_ext/659850406/adc5.o
 .debug_loc         0x0381        0x27b build/dsPIC33AK512/production/_ext/659850406/adc3.o
 .debug_loc         0x05fc         0x27 build/dsPIC33AK512/production/_ext/659850406/adc4.o
 .debug_loc         0x0623        0x5aa build/dsPIC33AK512/production/_ext/1538408868/float_conversion.o
 .debug_loc         0x0bcd        0x927 build/dsPIC33AK512/production/_ext/1538408868/gain_ctrl.o
 .debug_loc         0x14f4       0x12e6 build/dsPIC33AK512/production/_ext/1538408868/tone_ctrl.o
 .debug_loc         0x27da        0x27b build/dsPIC33AK512/production/_ext/1538408868/LED_level_meter.o
 .debug_loc         0x2a55        0x3a9 build/dsPIC33AK512/production/_ext/1538408868/snd_effect_play.o
 .debug_loc         0x2dfe       0x4016 build/dsPIC33AK512/production/_ext/1538408868/engine_synth.o
 .debug_loc         0x6e14       0x15ba build/dsPIC33AK512/production/_ext/1538408868/widen_ctrl.o
 .debug_loc         0x83ce       0x366f build/dsPIC33AK512/production/_ext/1538408868/bass_enhancer.o
 .debug_loc         0xba3d       0x197f build/dsPIC33AK512/production/_ext/1538408868/click_crack_synth.o
 .debug_loc         0xd3bc        0x300 build/dsPIC33AK512/production/_ext/1034234695/button_led.o
 .debug_loc         0xd6bc         0x28 build/dsPIC33AK512/production/_ext/1034234695/pot.o
 .debug_loc         0xd6e4        0x7ff build/dsPIC33AK512/production/_ext/1536116519/app_debug.o
 .debug_loc         0xdee3        0x803 build/dsPIC33AK512/production/_ext/1536116519/dbconsole.o
 .debug_loc         0xe6e6        0x51c build/dsPIC33AK512/production/_ext/1521024571/touch.o
 .debug_loc         0xec02        0x220 build/dsPIC33AK512/production/_ext/1018880376/uart1.o
 .debug_loc         0xee22        0x4de build/dsPIC33AK512/production/_ext/1360937237/SPI_TDM_drv.o
 .debug_loc         0xf300        0xbc4 build/dsPIC33AK512/production/_ext/1360937237/i2c.o
 .debug_loc         0xfec4        0x55b build/dsPIC33AK512/production/_ext/1360937237/main.o
 .debug_loc         0x1041f        0xa3b build/dsPIC33AK512/production/_ext/1360937237/osc_drv.o
 .debug_loc         0x10e5a         0x58 build/dsPIC33AK512/production/_ext/1360937237/tick_time.o
 .debug_loc         0x10eb2        0x3ed build/dsPIC33AK512/production/_ext/1360937237/pwm.o
 .debug_loc         0x1129f        0x20d build/dsPIC33AK512/production/_ext/1360937237/wm8904.o
 .debug_loc         0x114ac         0x33 build/dsPIC33AK512/production/_ext/1360937237/SPI3_drv.o
 .debug_loc         0x114df        0x7c5 build/dsPIC33AK512/production/_ext/1360937237/SST26_drv.o
 .debug_loc         0x11ca4       0x203d build/dsPIC33AK512/production/_ext/335358292/eq_api_33AK.o
 .debug_loc         0x13ce1        0x636 build/dsPIC33AK512/production/_ext/335358292/eq_perseus_wrapper.o
 .debug_loc         0x14317        0x619 build/dsPIC33AK512/production/_ext/1536116519/eq_benchmark.o
 .debug_loc         0x14930        0x471 build/dsPIC33AK512/production/_ext/1538408868/aec_33ak.o
 .debug_loc         0x14da1        0x75d build/dsPIC33AK512/production/_ext/1538408868/aec_nlms_float.o
 .debug_loc         0x154fe        0x781 build/dsPIC33AK512/production/_ext/1538408868/aec_src.o
 .debug_loc         0x15c7f        0x55e build/dsPIC33AK512/production/_ext/1538408868/aec_vad_float.o

.debug_macinfo
 *(.debug_macinfo)

.debug_pubnames
 *(.debug_pubnames)

.debug_ranges       0x0000       0x2dc8
 *(.debug_ranges)
 .debug_ranges      0x0000         0xc0 build/dsPIC33AK512/production/_ext/659850406/adc5.o
 .debug_ranges      0x00c0         0x50 build/dsPIC33AK512/production/_ext/659850406/adc3.o
 .debug_ranges      0x0110         0x20 build/dsPIC33AK512/production/_ext/659850406/adc4.o
 .debug_ranges      0x0130         0xc8 build/dsPIC33AK512/production/_ext/1538408868/float_conversion.o
 .debug_ranges      0x01f8         0x88 build/dsPIC33AK512/production/_ext/1538408868/gain_ctrl.o
 .debug_ranges      0x0280        0x100 build/dsPIC33AK512/production/_ext/1538408868/tone_ctrl.o
 .debug_ranges      0x0380         0x80 build/dsPIC33AK512/production/_ext/1538408868/LED_level_meter.o
 .debug_ranges      0x0400         0x30 build/dsPIC33AK512/production/_ext/1538408868/snd_effect_play.o
 .debug_ranges      0x0430        0x4f0 build/dsPIC33AK512/production/_ext/1538408868/engine_synth.o
 .debug_ranges      0x0920        0x2d8 build/dsPIC33AK512/production/_ext/1538408868/widen_ctrl.o
 .debug_ranges      0x0bf8        0x5e0 build/dsPIC33AK512/production/_ext/1538408868/bass_enhancer.o
 .debug_ranges      0x11d8        0x5f8 build/dsPIC33AK512/production/_ext/1538408868/click_crack_synth.o
 .debug_ranges      0x17d0         0xa8 build/dsPIC33AK512/production/_ext/1034234695/button_led.o
 .debug_ranges      0x1878         0x20 build/dsPIC33AK512/production/_ext/1034234695/pot.o
 .debug_ranges      0x1898        0x268 build/dsPIC33AK512/production/_ext/1536116519/app_debug.o
 .debug_ranges      0x1b00        0x1d8 build/dsPIC33AK512/production/_ext/1536116519/dbconsole.o
 .debug_ranges      0x1cd8        0x120 build/dsPIC33AK512/production/_ext/1521024571/touch.o
 .debug_ranges      0x1df8         0xb8 build/dsPIC33AK512/production/_ext/1018880376/uart1.o
 .debug_ranges      0x1eb0         0xb8 build/dsPIC33AK512/production/_ext/1360937237/SPI_TDM_drv.o
 .debug_ranges      0x1f68        0x378 build/dsPIC33AK512/production/_ext/1360937237/i2c.o
 .debug_ranges      0x22e0        0x1d0 build/dsPIC33AK512/production/_ext/1360937237/main.o
 .debug_ranges      0x24b0         0x48 build/dsPIC33AK512/production/_ext/1360937237/osc_drv.o
 .debug_ranges      0x24f8         0x30 build/dsPIC33AK512/production/_ext/1360937237/tick_time.o
 .debug_ranges      0x2528         0x88 build/dsPIC33AK512/production/_ext/1360937237/pwm.o
 .debug_ranges      0x25b0         0x38 build/dsPIC33AK512/production/_ext/1360937237/wm8904.o
 .debug_ranges      0x25e8         0x40 build/dsPIC33AK512/production/_ext/1360937237/SPI3_drv.o
 .debug_ranges      0x2628        0x1a0 build/dsPIC33AK512/production/_ext/1360937237/SST26_drv.o
 .debug_ranges      0x27c8        0x2a0 build/dsPIC33AK512/production/_ext/335358292/eq_api_33AK.o
 .debug_ranges      0x2a68        0x130 build/dsPIC33AK512/production/_ext/335358292/eq_perseus_wrapper.o
 .debug_ranges      0x2b98         0xb0 build/dsPIC33AK512/production/_ext/1536116519/eq_benchmark.o
 .debug_ranges      0x2c48         0x40 build/dsPIC33AK512/production/_ext/1538408868/aec_33ak.o
 .debug_ranges      0x2c88         0x40 build/dsPIC33AK512/production/_ext/1538408868/aec_nlms_float.o
 .debug_ranges      0x2cc8         0xa8 build/dsPIC33AK512/production/_ext/1538408868/aec_src.o
 .debug_ranges      0x2d70         0x58 build/dsPIC33AK512/production/_ext/1538408868/aec_vad_float.o

.debug_aranges      0x0000        0xc20
 *(.debug_aranges)
 .debug_aranges
                    0x0000         0x80 build/dsPIC33AK512/production/_ext/659850406/adc5.o
 .debug_aranges
                    0x0080         0x48 build/dsPIC33AK512/production/_ext/659850406/adc3.o
 .debug_aranges
                    0x00c8         0x30 build/dsPIC33AK512/production/_ext/659850406/adc4.o
 .debug_aranges
                    0x00f8         0x38 build/dsPIC33AK512/production/_ext/1538408868/float_conversion.o
 .debug_aranges
                    0x0130         0x60 build/dsPIC33AK512/production/_ext/1538408868/gain_ctrl.o
 .debug_aranges
                    0x0190         0x68 build/dsPIC33AK512/production/_ext/1538408868/tone_ctrl.o
 .debug_aranges
                    0x01f8         0x20 build/dsPIC33AK512/production/_ext/1538408868/LED_level_meter.o
 .debug_aranges
                    0x0218         0x28 build/dsPIC33AK512/production/_ext/1538408868/snd_effect_play.o
 .debug_aranges
                    0x0240         0x70 build/dsPIC33AK512/production/_ext/1538408868/engine_synth.o
 .debug_aranges
                    0x02b0         0x50 build/dsPIC33AK512/production/_ext/1538408868/widen_ctrl.o
 .debug_aranges
                    0x0300         0x60 build/dsPIC33AK512/production/_ext/1538408868/bass_enhancer.o
 .debug_aranges
                    0x0360         0x90 build/dsPIC33AK512/production/_ext/1538408868/click_crack_synth.o
 .debug_aranges
                    0x03f0         0x68 build/dsPIC33AK512/production/_ext/1034234695/button_led.o
 .debug_aranges
                    0x0458         0x30 build/dsPIC33AK512/production/_ext/1034234695/pot.o
 .debug_aranges
                    0x0488         0x28 build/dsPIC33AK512/production/_ext/1536116519/app_debug.o
 .debug_aranges
                    0x04b0         0x28 build/dsPIC33AK512/production/_ext/1536116519/dbconsole.o
 .debug_aranges
                    0x04d8         0xc8 build/dsPIC33AK512/production/_ext/1521024571/touch.o
 .debug_aranges
                    0x05a0         0x70 build/dsPIC33AK512/production/_ext/1018880376/uart1.o
 .debug_aranges
                    0x0610         0x40 build/dsPIC33AK512/production/_ext/1360937237/SPI_TDM_drv.o
 .debug_aranges
                    0x0650         0xb8 build/dsPIC33AK512/production/_ext/1360937237/i2c.o
 .debug_aranges
                    0x0708         0x28 build/dsPIC33AK512/production/_ext/1360937237/main.o
 .debug_aranges
                    0x0730         0x58 build/dsPIC33AK512/production/_ext/1360937237/osc_drv.o
 .debug_aranges
                    0x0788         0x40 build/dsPIC33AK512/production/_ext/1360937237/tick_time.o
 .debug_aranges
                    0x07c8         0x98 build/dsPIC33AK512/production/_ext/1360937237/pwm.o
 .debug_aranges
                    0x0860         0x30 build/dsPIC33AK512/production/_ext/1360937237/wm8904.o
 .debug_aranges
                    0x0890         0x50 build/dsPIC33AK512/production/_ext/1360937237/SPI3_drv.o
 .debug_aranges
                    0x08e0         0x60 build/dsPIC33AK512/production/_ext/1360937237/SST26_drv.o
 .debug_aranges
                    0x0940         0xb0 build/dsPIC33AK512/production/_ext/335358292/eq_api_33AK.o
 .debug_aranges
                    0x09f0         0x90 build/dsPIC33AK512/production/_ext/335358292/eq_perseus_wrapper.o
 .debug_aranges
                    0x0a80         0x30 build/dsPIC33AK512/production/_ext/1536116519/eq_benchmark.o
 .debug_aranges
                    0x0ab0         0x50 build/dsPIC33AK512/production/_ext/1538408868/aec_33ak.o
 .debug_aranges
                    0x0b00         0x50 build/dsPIC33AK512/production/_ext/1538408868/aec_nlms_float.o
 .debug_aranges
                    0x0b50         0x40 build/dsPIC33AK512/production/_ext/1538408868/aec_src.o
 .debug_aranges
                    0x0b90         0x50 build/dsPIC33AK512/production/_ext/1538408868/aec_vad_float.o
 .debug_aranges
                    0x0be0         0x20 c:/program files/microchip/xc-dsc/v3.31/bin/bin/../../lib\libc99-pic30-elf.a(extendsfdf.aa.AA_eo)
 .debug_aranges
                    0x0c00         0x20 c:/program files/microchip/xc-dsc/v3.31/bin/bin/../../lib\libc99-pic30-elf.a(funpack.aa.AA_eo)
                    0x0000                  PC = 0x0
                    0x0000                  _PC = 0x0
                    0x0000                  _PCbits = 0x0
                    0x0004                  SPLIM = 0x4
                    0x0004                  _SPLIM = 0x4
                    0x0004                  _SPLIMbits = 0x4
                    0x0008                  RCOUNT = 0x8
                    0x0008                  _RCOUNT = 0x8
                    0x000c                  DISIIPL = 0xc
                    0x000c                  _DISIIPL = 0xc
                    0x000c                  _DISIIPLbits = 0xc
                    0x0010                  CORCON = 0x10
                    0x0010                  _CORCON = 0x10
                    0x0010                  _CORCONbits = 0x10
                    0x0014                  MODCON = 0x14
                    0x0014                  _MODCON = 0x14
                    0x0014                  _MODCONbits = 0x14
                    0x0018                  XMODSRT = 0x18
                    0x0018                  _XMODSRT = 0x18
                    0x0018                  _XMODSRTbits = 0x18
                    0x001c                  XMODEND = 0x1c
                    0x001c                  _XMODEND = 0x1c
                    0x001c                  _XMODENDbits = 0x1c
                    0x0020                  YMODSRT = 0x20
                    0x0020                  _YMODSRT = 0x20
                    0x0020                  _YMODSRTbits = 0x20
                    0x0024                  YMODEND = 0x24
                    0x0024                  _YMODEND = 0x24
                    0x0024                  _YMODENDbits = 0x24
                    0x0028                  XBREV = 0x28
                    0x0028                  _XBREV = 0x28
                    0x0028                  _XBREVbits = 0x28
                    0x002c                  PCTRAP = 0x2c
                    0x002c                  _PCTRAP = 0x2c
                    0x002c                  _PCTRAPbits = 0x2c
                    0x0030                  FEX = 0x30
                    0x0030                  _FEX = 0x30
                    0x0034                  FEX2 = 0x34
                    0x0034                  _FEX2 = 0x34
                    0x0038                  PCHOLD = 0x38
                    0x0038                  _PCHOLD = 0x38
                    0x0038                  _PCHOLDbits = 0x38
                    0x003c                  VFA = 0x3c
                    0x003c                  _VFA = 0x3c
                    0x003c                  _VFAbits = 0x3c
                    0x0070                  INTCON1 = 0x70
                    0x0070                  _INTCON1 = 0x70
                    0x0070                  _INTCON1bits = 0x70
                    0x0074                  INTCON2 = 0x74
                    0x0074                  _INTCON2 = 0x74
                    0x0074                  _INTCON2bits = 0x74
                    0x0078                  INTCON3 = 0x78
                    0x0078                  _INTCON3 = 0x78
                    0x0078                  _INTCON3bits = 0x78
                    0x007c                  INTCON4 = 0x7c
                    0x007c                  _INTCON4 = 0x7c
                    0x007c                  _INTCON4bits = 0x7c
                    0x0080                  INTCON5 = 0x80
                    0x0080                  _INTCON5 = 0x80
                    0x0080                  _INTCON5bits = 0x80
                    0x0084                  INTTREG = 0x84
                    0x0084                  _INTTREG = 0x84
                    0x0084                  _INTTREGbits = 0x84
                    0x0088                  IVTBASE = 0x88
                    0x0088                  _IVTBASE = 0x88
                    0x0088                  _IVTBASEbits = 0x88
                    0x008c                  IVTCREG = 0x8c
                    0x008c                  _IVTCREG = 0x8c
                    0x008c                  _IVTCREGbits = 0x8c
                    0x0090                  IFS0 = 0x90
                    0x0090                  _IFS0 = 0x90
                    0x0090                  _IFS0bits = 0x90
                    0x0094                  IFS1 = 0x94
                    0x0094                  _IFS1 = 0x94
                    0x0094                  _IFS1bits = 0x94
                    0x0098                  IFS2 = 0x98
                    0x0098                  _IFS2 = 0x98
                    0x0098                  _IFS2bits = 0x98
                    0x009c                  IFS3 = 0x9c
                    0x009c                  _IFS3 = 0x9c
                    0x009c                  _IFS3bits = 0x9c
                    0x00a0                  IFS4 = 0xa0
                    0x00a0                  _IFS4 = 0xa0
                    0x00a0                  _IFS4bits = 0xa0
                    0x00a4                  IFS5 = 0xa4
                    0x00a4                  _IFS5 = 0xa4
                    0x00a4                  _IFS5bits = 0xa4
                    0x00a8                  IFS6 = 0xa8
                    0x00a8                  _IFS6 = 0xa8
                    0x00a8                  _IFS6bits = 0xa8
                    0x00ac                  IFS7 = 0xac
                    0x00ac                  _IFS7 = 0xac
                    0x00ac                  _IFS7bits = 0xac
                    0x00b0                  IFS8 = 0xb0
                    0x00b0                  _IFS8 = 0xb0
                    0x00b0                  _IFS8bits = 0xb0
                    0x00b4                  IFS9 = 0xb4
                    0x00b4                  _IFS9 = 0xb4
                    0x00b4                  _IFS9bits = 0xb4
                    0x00b8                  IFS10 = 0xb8
                    0x00b8                  _IFS10 = 0xb8
                    0x00b8                  _IFS10bits = 0xb8
                    0x00bc                  IFS11 = 0xbc
                    0x00bc                  _IFS11 = 0xbc
                    0x00bc                  _IFS11bits = 0xbc
                    0x00c0                  IEC0 = 0xc0
                    0x00c0                  _IEC0 = 0xc0
                    0x00c0                  _IEC0bits = 0xc0
                    0x00c4                  IEC1 = 0xc4
                    0x00c4                  _IEC1 = 0xc4
                    0x00c4                  _IEC1bits = 0xc4
                    0x00c8                  IEC2 = 0xc8
                    0x00c8                  _IEC2 = 0xc8
                    0x00c8                  _IEC2bits = 0xc8
                    0x00cc                  IEC3 = 0xcc
                    0x00cc                  _IEC3 = 0xcc
                    0x00cc                  _IEC3bits = 0xcc
                    0x00d0                  IEC4 = 0xd0
                    0x00d0                  _IEC4 = 0xd0
                    0x00d0                  _IEC4bits = 0xd0
                    0x00d4                  IEC5 = 0xd4
                    0x00d4                  _IEC5 = 0xd4
                    0x00d4                  _IEC5bits = 0xd4
                    0x00d8                  IEC6 = 0xd8
                    0x00d8                  _IEC6 = 0xd8
                    0x00d8                  _IEC6bits = 0xd8
                    0x00dc                  IEC7 = 0xdc
                    0x00dc                  _IEC7 = 0xdc
                    0x00dc                  _IEC7bits = 0xdc
                    0x00e0                  IEC8 = 0xe0
                    0x00e0                  _IEC8 = 0xe0
                    0x00e0                  _IEC8bits = 0xe0
                    0x00e4                  IEC9 = 0xe4
                    0x00e4                  _IEC9 = 0xe4
                    0x00e4                  _IEC9bits = 0xe4
                    0x00e8                  IEC10 = 0xe8
                    0x00e8                  _IEC10 = 0xe8
                    0x00e8                  _IEC10bits = 0xe8
                    0x00ec                  IEC11 = 0xec
                    0x00ec                  _IEC11 = 0xec
                    0x00ec                  _IEC11bits = 0xec
                    0x00f0                  IPC0 = 0xf0
                    0x00f0                  _IPC0 = 0xf0
                    0x00f0                  _IPC0bits = 0xf0
                    0x00f4                  IPC1 = 0xf4
                    0x00f4                  _IPC1 = 0xf4
                    0x00f4                  _IPC1bits = 0xf4
                    0x00f8                  IPC2 = 0xf8
                    0x00f8                  _IPC2 = 0xf8
                    0x00f8                  _IPC2bits = 0xf8
                    0x00fc                  IPC3 = 0xfc
                    0x00fc                  _IPC3 = 0xfc
                    0x00fc                  _IPC3bits = 0xfc
                    0x0100                  IPC4 = 0x100
                    0x0100                  _IPC4 = 0x100
                    0x0100                  _IPC4bits = 0x100
                    0x0104                  IPC5 = 0x104
                    0x0104                  _IPC5 = 0x104
                    0x0104                  _IPC5bits = 0x104
                    0x0108                  IPC6 = 0x108
                    0x0108                  _IPC6 = 0x108
                    0x0108                  _IPC6bits = 0x108
                    0x010c                  IPC7 = 0x10c
                    0x010c                  _IPC7 = 0x10c
                    0x010c                  _IPC7bits = 0x10c
                    0x0110                  IPC8 = 0x110
                    0x0110                  _IPC8 = 0x110
                    0x0110                  _IPC8bits = 0x110
                    0x0114                  IPC9 = 0x114
                    0x0114                  _IPC9 = 0x114
                    0x0114                  _IPC9bits = 0x114
                    0x0118                  IPC10 = 0x118
                    0x0118                  _IPC10 = 0x118
                    0x0118                  _IPC10bits = 0x118
                    0x011c                  IPC11 = 0x11c
                    0x011c                  _IPC11 = 0x11c
                    0x011c                  _IPC11bits = 0x11c
                    0x0120                  IPC12 = 0x120
                    0x0120                  _IPC12 = 0x120
                    0x0120                  _IPC12bits = 0x120
                    0x0124                  IPC13 = 0x124
                    0x0124                  _IPC13 = 0x124
                    0x0124                  _IPC13bits = 0x124
                    0x0128                  IPC14 = 0x128
                    0x0128                  _IPC14 = 0x128
                    0x0128                  _IPC14bits = 0x128
                    0x012c                  IPC15 = 0x12c
                    0x012c                  _IPC15 = 0x12c
                    0x012c                  _IPC15bits = 0x12c
                    0x0130                  IPC16 = 0x130
                    0x0130                  _IPC16 = 0x130
                    0x0130                  _IPC16bits = 0x130
                    0x0134                  IPC17 = 0x134
                    0x0134                  _IPC17 = 0x134
                    0x0134                  _IPC17bits = 0x134
                    0x0138                  IPC18 = 0x138
                    0x0138                  _IPC18 = 0x138
                    0x0138                  _IPC18bits = 0x138
                    0x013c                  IPC19 = 0x13c
                    0x013c                  _IPC19 = 0x13c
                    0x013c                  _IPC19bits = 0x13c
                    0x0140                  IPC20 = 0x140
                    0x0140                  _IPC20 = 0x140
                    0x0140                  _IPC20bits = 0x140
                    0x0144                  IPC21 = 0x144
                    0x0144                  _IPC21 = 0x144
                    0x0144                  _IPC21bits = 0x144
                    0x0148                  IPC22 = 0x148
                    0x0148                  _IPC22 = 0x148
                    0x0148                  _IPC22bits = 0x148
                    0x014c                  IPC23 = 0x14c
                    0x014c                  _IPC23 = 0x14c
                    0x014c                  _IPC23bits = 0x14c
                    0x0150                  IPC24 = 0x150
                    0x0150                  _IPC24 = 0x150
                    0x0150                  _IPC24bits = 0x150
                    0x0154                  IPC25 = 0x154
                    0x0154                  _IPC25 = 0x154
                    0x0154                  _IPC25bits = 0x154
                    0x0158                  IPC26 = 0x158
                    0x0158                  _IPC26 = 0x158
                    0x0158                  _IPC26bits = 0x158
                    0x015c                  IPC27 = 0x15c
                    0x015c                  _IPC27 = 0x15c
                    0x015c                  _IPC27bits = 0x15c
                    0x0160                  IPC28 = 0x160
                    0x0160                  _IPC28 = 0x160
                    0x0160                  _IPC28bits = 0x160
                    0x0164                  IPC29 = 0x164
                    0x0164                  _IPC29 = 0x164
                    0x0164                  _IPC29bits = 0x164
                    0x0168                  IPC30 = 0x168
                    0x0168                  _IPC30 = 0x168
                    0x0168                  _IPC30bits = 0x168
                    0x016c                  IPC31 = 0x16c
                    0x016c                  _IPC31 = 0x16c
                    0x016c                  _IPC31bits = 0x16c
                    0x0170                  IPC32 = 0x170
                    0x0170                  _IPC32 = 0x170
                    0x0170                  _IPC32bits = 0x170
                    0x0174                  IPC33 = 0x174
                    0x0174                  _IPC33 = 0x174
                    0x0174                  _IPC33bits = 0x174
                    0x0178                  IPC34 = 0x178
                    0x0178                  _IPC34 = 0x178
                    0x0178                  _IPC34bits = 0x178
                    0x017c                  IPC35 = 0x17c
                    0x017c                  _IPC35 = 0x17c
                    0x017c                  _IPC35bits = 0x17c
                    0x0180                  IPC36 = 0x180
                    0x0180                  _IPC36 = 0x180
                    0x0180                  _IPC36bits = 0x180
                    0x0184                  IPC37 = 0x184
                    0x0184                  _IPC37 = 0x184
                    0x0184                  _IPC37bits = 0x184
                    0x018c                  IPC39 = 0x18c
                    0x018c                  _IPC39 = 0x18c
                    0x018c                  _IPC39bits = 0x18c
                    0x0190                  IPC40 = 0x190
                    0x0190                  _IPC40 = 0x190
                    0x0190                  _IPC40bits = 0x190
                    0x0194                  IPC41 = 0x194
                    0x0194                  _IPC41 = 0x194
                    0x0194                  _IPC41bits = 0x194
                    0x0198                  IPC42 = 0x198
                    0x0198                  _IPC42 = 0x198
                    0x0198                  _IPC42bits = 0x198
                    0x019c                  IPC43 = 0x19c
                    0x019c                  _IPC43 = 0x19c
                    0x019c                  _IPC43bits = 0x19c
                    0x01a0                  IPC44 = 0x1a0
                    0x01a0                  _IPC44 = 0x1a0
                    0x01a0                  _IPC44bits = 0x1a0
                    0x0200                  PORTA = 0x200
                    0x0200                  _PORTA = 0x200
                    0x0200                  _PORTAbits = 0x200
                    0x0204                  LATA = 0x204
                    0x0204                  _LATA = 0x204
                    0x0204                  _LATAbits = 0x204
                    0x0208                  TRISA = 0x208
                    0x0208                  _TRISA = 0x208
                    0x0208                  _TRISAbits = 0x208
                    0x020c                  CNSTATA = 0x20c
                    0x020c                  _CNSTATA = 0x20c
                    0x020c                  _CNSTATAbits = 0x20c
                    0x0210                  CNFA = 0x210
                    0x0210                  _CNFA = 0x210
                    0x0210                  _CNFAbits = 0x210
                    0x0214                  PORTB = 0x214
                    0x0214                  _PORTB = 0x214
                    0x0214                  _PORTBbits = 0x214
                    0x0218                  LATB = 0x218
                    0x0218                  _LATB = 0x218
                    0x0218                  _LATBbits = 0x218
                    0x021c                  TRISB = 0x21c
                    0x021c                  _TRISB = 0x21c
                    0x021c                  _TRISBbits = 0x21c
                    0x0220                  CNSTATB = 0x220
                    0x0220                  _CNSTATB = 0x220
                    0x0220                  _CNSTATBbits = 0x220
                    0x0224                  CNFB = 0x224
                    0x0224                  _CNFB = 0x224
                    0x0224                  _CNFBbits = 0x224
                    0x0228                  PORTC = 0x228
                    0x0228                  _PORTC = 0x228
                    0x0228                  _PORTCbits = 0x228
                    0x022c                  LATC = 0x22c
                    0x022c                  _LATC = 0x22c
                    0x022c                  _LATCbits = 0x22c
                    0x0230                  TRISC = 0x230
                    0x0230                  _TRISC = 0x230
                    0x0230                  _TRISCbits = 0x230
                    0x0234                  CNSTATC = 0x234
                    0x0234                  _CNSTATC = 0x234
                    0x0234                  _CNSTATCbits = 0x234
                    0x0238                  CNFC = 0x238
                    0x0238                  _CNFC = 0x238
                    0x0238                  _CNFCbits = 0x238
                    0x023c                  PORTD = 0x23c
                    0x023c                  _PORTD = 0x23c
                    0x023c                  _PORTDbits = 0x23c
                    0x0240                  LATD = 0x240
                    0x0240                  _LATD = 0x240
                    0x0240                  _LATDbits = 0x240
                    0x0244                  TRISD = 0x244
                    0x0244                  _TRISD = 0x244
                    0x0244                  _TRISDbits = 0x244
                    0x0248                  CNSTATD = 0x248
                    0x0248                  _CNSTATD = 0x248
                    0x0248                  _CNSTATDbits = 0x248
                    0x024c                  CNFD = 0x24c
                    0x024c                  _CNFD = 0x24c
                    0x024c                  _CNFDbits = 0x24c
                    0x0250                  PORTE = 0x250
                    0x0250                  _PORTE = 0x250
                    0x0250                  _PORTEbits = 0x250
                    0x0254                  LATE = 0x254
                    0x0254                  _LATE = 0x254
                    0x0254                  _LATEbits = 0x254
                    0x0258                  TRISE = 0x258
                    0x0258                  _TRISE = 0x258
                    0x0258                  _TRISEbits = 0x258
                    0x025c                  CNSTATE = 0x25c
                    0x025c                  _CNSTATE = 0x25c
                    0x025c                  _CNSTATEbits = 0x25c
                    0x0260                  CNFE = 0x260
                    0x0260                  _CNFE = 0x260
                    0x0260                  _CNFEbits = 0x260
                    0x0264                  PORTF = 0x264
                    0x0264                  _PORTF = 0x264
                    0x0264                  _PORTFbits = 0x264
                    0x0268                  LATF = 0x268
                    0x0268                  _LATF = 0x268
                    0x0268                  _LATFbits = 0x268
                    0x026c                  TRISF = 0x26c
                    0x026c                  _TRISF = 0x26c
                    0x026c                  _TRISFbits = 0x26c
                    0x0270                  CNSTATF = 0x270
                    0x0270                  _CNSTATF = 0x270
                    0x0270                  _CNSTATFbits = 0x270
                    0x0274                  CNFF = 0x274
                    0x0274                  _CNFF = 0x274
                    0x0274                  _CNFFbits = 0x274
                    0x0278                  PORTG = 0x278
                    0x0278                  _PORTG = 0x278
                    0x0278                  _PORTGbits = 0x278
                    0x027c                  LATG = 0x27c
                    0x027c                  _LATG = 0x27c
                    0x027c                  _LATGbits = 0x27c
                    0x0280                  TRISG = 0x280
                    0x0280                  _TRISG = 0x280
                    0x0280                  _TRISGbits = 0x280
                    0x0284                  CNSTATG = 0x284
                    0x0284                  _CNSTATG = 0x284
                    0x0284                  _CNSTATGbits = 0x284
                    0x0288                  CNFG = 0x288
                    0x0288                  _CNFG = 0x288
                    0x0288                  _CNFGbits = 0x288
                    0x028c                  PORTH = 0x28c
                    0x028c                  _PORTH = 0x28c
                    0x028c                  _PORTHbits = 0x28c
                    0x0290                  LATH = 0x290
                    0x0290                  _LATH = 0x290
                    0x0290                  _LATHbits = 0x290
                    0x0294                  TRISH = 0x294
                    0x0294                  _TRISH = 0x294
                    0x0294                  _TRISHbits = 0x294
                    0x0298                  CNSTATH = 0x298
                    0x0298                  _CNSTATH = 0x298
                    0x0298                  _CNSTATHbits = 0x298
                    0x029c                  CNFH = 0x29c
                    0x029c                  _CNFH = 0x29c
                    0x029c                  _CNFHbits = 0x29c
                    0x02c8                  CRCCON = 0x2c8
                    0x02c8                  _CRCCON = 0x2c8
                    0x02c8                  _CRCCONbits = 0x2c8
                    0x02cc                  CRCXOR = 0x2cc
                    0x02cc                  _CRCXOR = 0x2cc
                    0x02cc                  _CRCXORbits = 0x2cc
                    0x02d0                  CRCDAT = 0x2d0
                    0x02d0                  _CRCDAT = 0x2d0
                    0x02d4                  CRCWDAT = 0x2d4
                    0x02d4                  _CRCWDAT = 0x2d4
                    0x02e0                  UCPROT = 0x2e0
                    0x02e0                  _UCPROT = 0x2e0
                    0x02e0                  _UCPROTbits = 0x2e0
                    0x02e4                  IRTCTRL = 0x2e4
                    0x02e4                  _IRTCTRL = 0x2e4
                    0x02e4                  _IRTCTRLbits = 0x2e4
                    0x02e8                  IRTSTAT = 0x2e8
                    0x02e8                  _IRTSTAT = 0x2e8
                    0x0300                  PR0CTRL = 0x300
                    0x0300                  _PR0CTRL = 0x300
                    0x0300                  _PR0CTRLbits = 0x300
                    0x0304                  PR0ST = 0x304
                    0x0304                  _PR0ST = 0x304
                    0x0304                  _PR0STbits = 0x304
                    0x0308                  PR0END = 0x308
                    0x0308                  _PR0END = 0x308
                    0x0308                  _PR0ENDbits = 0x308
                    0x030c                  PR0LOCK = 0x30c
                    0x030c                  _PR0LOCK = 0x30c
                    0x030c                  _PR0LOCKbits = 0x30c
                    0x0310                  PR1CTRL = 0x310
                    0x0310                  _PR1CTRL = 0x310
                    0x0310                  _PR1CTRLbits = 0x310
                    0x0314                  PR1ST = 0x314
                    0x0314                  _PR1ST = 0x314
                    0x0314                  _PR1STbits = 0x314
                    0x0318                  PR1END = 0x318
                    0x0318                  _PR1END = 0x318
                    0x0318                  _PR1ENDbits = 0x318
                    0x031c                  PR1LOCK = 0x31c
                    0x031c                  _PR1LOCK = 0x31c
                    0x031c                  _PR1LOCKbits = 0x31c
                    0x0320                  PR2CTRL = 0x320
                    0x0320                  _PR2CTRL = 0x320
                    0x0320                  _PR2CTRLbits = 0x320
                    0x0324                  PR2ST = 0x324
                    0x0324                  _PR2ST = 0x324
                    0x0324                  _PR2STbits = 0x324
                    0x0328                  PR2END = 0x328
                    0x0328                  _PR2END = 0x328
                    0x0328                  _PR2ENDbits = 0x328
                    0x032c                  PR2LOCK = 0x32c
                    0x032c                  _PR2LOCK = 0x32c
                    0x032c                  _PR2LOCKbits = 0x32c
                    0x0330                  PR3CTRL = 0x330
                    0x0330                  _PR3CTRL = 0x330
                    0x0330                  _PR3CTRLbits = 0x330
                    0x0334                  PR3ST = 0x334
                    0x0334                  _PR3ST = 0x334
                    0x0334                  _PR3STbits = 0x334
                    0x0338                  PR3END = 0x338
                    0x0338                  _PR3END = 0x338
                    0x0338                  _PR3ENDbits = 0x338
                    0x033c                  PR3LOCK = 0x33c
                    0x033c                  _PR3LOCK = 0x33c
                    0x033c                  _PR3LOCKbits = 0x33c
                    0x0340                  PR4CTRL = 0x340
                    0x0340                  _PR4CTRL = 0x340
                    0x0340                  _PR4CTRLbits = 0x340
                    0x0344                  PR4ST = 0x344
                    0x0344                  _PR4ST = 0x344
                    0x0344                  _PR4STbits = 0x344
                    0x0348                  PR4END = 0x348
                    0x0348                  _PR4END = 0x348
                    0x0348                  _PR4ENDbits = 0x348
                    0x034c                  PR4LOCK = 0x34c
                    0x034c                  _PR4LOCK = 0x34c
                    0x034c                  _PR4LOCKbits = 0x34c
                    0x0350                  PR5CTRL = 0x350
                    0x0350                  _PR5CTRL = 0x350
                    0x0350                  _PR5CTRLbits = 0x350
                    0x0354                  PR5ST = 0x354
                    0x0354                  _PR5ST = 0x354
                    0x0354                  _PR5STbits = 0x354
                    0x0358                  PR5END = 0x358
                    0x0358                  _PR5END = 0x358
                    0x0358                  _PR5ENDbits = 0x358
                    0x035c                  PR5LOCK = 0x35c
                    0x035c                  _PR5LOCK = 0x35c
                    0x035c                  _PR5LOCKbits = 0x35c
                    0x0360                  PR6CTRL = 0x360
                    0x0360                  _PR6CTRL = 0x360
                    0x0360                  _PR6CTRLbits = 0x360
                    0x0364                  PR6ST = 0x364
                    0x0364                  _PR6ST = 0x364
                    0x0364                  _PR6STbits = 0x364
                    0x0368                  PR6END = 0x368
                    0x0368                  _PR6END = 0x368
                    0x0368                  _PR6ENDbits = 0x368
                    0x036c                  PR6LOCK = 0x36c
                    0x036c                  _PR6LOCK = 0x36c
                    0x036c                  _PR6LOCKbits = 0x36c
                    0x0370                  PR7CTRL = 0x370
                    0x0370                  _PR7CTRL = 0x370
                    0x0370                  _PR7CTRLbits = 0x370
                    0x0374                  PR7ST = 0x374
                    0x0374                  _PR7ST = 0x374
                    0x0374                  _PR7STbits = 0x374
                    0x0378                  PR7END = 0x378
                    0x0378                  _PR7END = 0x378
                    0x0378                  _PR7ENDbits = 0x378
                    0x037c                  PR7LOCK = 0x37c
                    0x037c                  _PR7LOCK = 0x37c
                    0x037c                  _PR7LOCKbits = 0x37c
                    0x0380                  ITCCON1 = 0x380
                    0x0380                  _ITCCON1 = 0x380
                    0x0380                  _ITCCON1bits = 0x380
                    0x0384                  ITCCON2 = 0x384
                    0x0384                  _ITCCON2 = 0x384
                    0x0384                  _ITCCON2bits = 0x384
                    0x0388                  ITCSTAT = 0x388
                    0x0388                  _ITCSTAT = 0x388
                    0x0388                  _ITCSTATbits = 0x388
                    0x038c                  ITCTXA = 0x38c
                    0x038c                  _ITCTXA = 0x38c
                    0x038c                  _ITCTXAbits = 0x38c
                    0x0390                  ITCTXB = 0x390
                    0x0390                  _ITCTXB = 0x390
                    0x0390                  _ITCTXBbits = 0x390
                    0x0394                  ITCTXC = 0x394
                    0x0394                  _ITCTXC = 0x394
                    0x0394                  _ITCTXCbits = 0x394
                    0x0398                  ADHIT = 0x398
                    0x0398                  _ADHIT = 0x398
                    0x0398                  _ADHITbits = 0x398
                    0x039c                  ITCLS0CON = 0x39c
                    0x039c                  _ITCLS0CON = 0x39c
                    0x039c                  _ITCLS0CONbits = 0x39c
                    0x03a0                  ITCLS0STAT = 0x3a0
                    0x03a0                  _ITCLS0STAT = 0x3a0
                    0x03a0                  _ITCLS0STATbits = 0x3a0
                    0x03a4                  ITCLS0CMPHI = 0x3a4
                    0x03a4                  _ITCLS0CMPHI = 0x3a4
                    0x03a8                  ITCLS0CMPLO = 0x3a8
                    0x03a8                  _ITCLS0CMPLO = 0x3a8
                    0x03ac                  ITCLS0MUL = 0x3ac
                    0x03ac                  _ITCLS0MUL = 0x3ac
                    0x03ac                  _ITCLS0MULbits = 0x3ac
                    0x03b0                  ITCLS0SEQ = 0x3b0
                    0x03b0                  _ITCLS0SEQ = 0x3b0
                    0x03b0                  _ITCLS0SEQbits = 0x3b0
                    0x03b4                  ITCLS0TMR = 0x3b4
                    0x03b4                  _ITCLS0TMR = 0x3b4
                    0x03b4                  _ITCLS0TMRbits = 0x3b4
                    0x03b8                  ITCLS1CON = 0x3b8
                    0x03b8                  _ITCLS1CON = 0x3b8
                    0x03b8                  _ITCLS1CONbits = 0x3b8
                    0x03bc                  ITCLS1STAT = 0x3bc
                    0x03bc                  _ITCLS1STAT = 0x3bc
                    0x03bc                  _ITCLS1STATbits = 0x3bc
                    0x03c0                  ITCLS1CMPHI = 0x3c0
                    0x03c0                  _ITCLS1CMPHI = 0x3c0
                    0x03c4                  ITCLS1CMPLO = 0x3c4
                    0x03c4                  _ITCLS1CMPLO = 0x3c4
                    0x03c8                  ITCLS1MUL = 0x3c8
                    0x03c8                  _ITCLS1MUL = 0x3c8
                    0x03c8                  _ITCLS1MULbits = 0x3c8
                    0x03cc                  ITCLS1SEQ = 0x3cc
                    0x03cc                  _ITCLS1SEQ = 0x3cc
                    0x03cc                  _ITCLS1SEQbits = 0x3cc
                    0x03d0                  ITCLS1TMR = 0x3d0
                    0x03d0                  _ITCLS1TMR = 0x3d0
                    0x03d0                  _ITCLS1TMRbits = 0x3d0
                    0x03d4                  ITCLS2CON = 0x3d4
                    0x03d4                  _ITCLS2CON = 0x3d4
                    0x03d4                  _ITCLS2CONbits = 0x3d4
                    0x03d8                  ITCLS2STAT = 0x3d8
                    0x03d8                  _ITCLS2STAT = 0x3d8
                    0x03d8                  _ITCLS2STATbits = 0x3d8
                    0x03dc                  ITCLS2CMPHI = 0x3dc
                    0x03dc                  _ITCLS2CMPHI = 0x3dc
                    0x03e0                  ITCLS2CMPLO = 0x3e0
                    0x03e0                  _ITCLS2CMPLO = 0x3e0
                    0x03e4                  ITCLS2MUL = 0x3e4
                    0x03e4                  _ITCLS2MUL = 0x3e4
                    0x03e4                  _ITCLS2MULbits = 0x3e4
                    0x03e8                  ITCLS2SEQ = 0x3e8
                    0x03e8                  _ITCLS2SEQ = 0x3e8
                    0x03e8                  _ITCLS2SEQbits = 0x3e8
                    0x03ec                  ITCLS2TMR = 0x3ec
                    0x03ec                  _ITCLS2TMR = 0x3ec
                    0x03ec                  _ITCLS2TMRbits = 0x3ec
                    0x03f0                  ITCREC0 = 0x3f0
                    0x03f0                  _ITCREC0 = 0x3f0
                    0x03f0                  _ITCREC0bits = 0x3f0
                    0x03f4                  ITCREC1 = 0x3f4
                    0x03f4                  _ITCREC1 = 0x3f4
                    0x03f4                  _ITCREC1bits = 0x3f4
                    0x03f8                  ITCREC2 = 0x3f8
                    0x03f8                  _ITCREC2 = 0x3f8
                    0x03f8                  _ITCREC2bits = 0x3f8
                    0x03fc                  ITCREC3 = 0x3fc
                    0x03fc                  _ITCREC3 = 0x3fc
                    0x03fc                  _ITCREC3bits = 0x3fc
                    0x0400                  ITCREC4 = 0x400
                    0x0400                  _ITCREC4 = 0x400
                    0x0400                  _ITCREC4bits = 0x400
                    0x0404                  ITCREC5 = 0x404
                    0x0404                  _ITCREC5 = 0x404
                    0x0404                  _ITCREC5bits = 0x404
                    0x0408                  ITCREC6 = 0x408
                    0x0408                  _ITCREC6 = 0x408
                    0x0408                  _ITCREC6bits = 0x408
                    0x040c                  ITCREC7 = 0x40c
                    0x040c                  _ITCREC7 = 0x40c
                    0x040c                  _ITCREC7bits = 0x40c
                    0x0410                  ITCREC8 = 0x410
                    0x0410                  _ITCREC8 = 0x410
                    0x0410                  _ITCREC8bits = 0x410
                    0x0414                  ITCREC9 = 0x414
                    0x0414                  _ITCREC9 = 0x414
                    0x0414                  _ITCREC9bits = 0x414
                    0x0418                  ITCREC10 = 0x418
                    0x0418                  _ITCREC10 = 0x418
                    0x0418                  _ITCREC10bits = 0x418
                    0x041c                  ITCREC11 = 0x41c
                    0x041c                  _ITCREC11 = 0x41c
                    0x041c                  _ITCREC11bits = 0x41c
                    0x0420                  ITCREC12 = 0x420
                    0x0420                  _ITCREC12 = 0x420
                    0x0420                  _ITCREC12bits = 0x420
                    0x0424                  ITCREC13 = 0x424
                    0x0424                  _ITCREC13 = 0x424
                    0x0424                  _ITCREC13bits = 0x424
                    0x0428                  ITCREC14 = 0x428
                    0x0428                  _ITCREC14 = 0x428
                    0x0428                  _ITCREC14bits = 0x428
                    0x042c                  ITCREC15 = 0x42c
                    0x042c                  _ITCREC15 = 0x42c
                    0x042c                  _ITCREC15bits = 0x42c
                    0x0430                  ITCRES0 = 0x430
                    0x0430                  _ITCRES0 = 0x430
                    0x0434                  ITCRES1 = 0x434
                    0x0434                  _ITCRES1 = 0x434
                    0x0438                  ITCRES2 = 0x438
                    0x0438                  _ITCRES2 = 0x438
                    0x043c                  ITCRES3 = 0x43c
                    0x043c                  _ITCRES3 = 0x43c
                    0x0440                  ITCRES4 = 0x440
                    0x0440                  _ITCRES4 = 0x440
                    0x0444                  ITCRES5 = 0x444
                    0x0444                  _ITCRES5 = 0x444
                    0x0448                  ITCRES6 = 0x448
                    0x0448                  _ITCRES6 = 0x448
                    0x044c                  ITCRES7 = 0x44c
                    0x044c                  _ITCRES7 = 0x44c
                    0x0450                  ITCRES8 = 0x450
                    0x0450                  _ITCRES8 = 0x450
                    0x0454                  ITCRES9 = 0x454
                    0x0454                  _ITCRES9 = 0x454
                    0x0458                  ITCRES10 = 0x458
                    0x0458                  _ITCRES10 = 0x458
                    0x045c                  ITCRES11 = 0x45c
                    0x045c                  _ITCRES11 = 0x45c
                    0x0460                  ITCRES12 = 0x460
                    0x0460                  _ITCRES12 = 0x460
                    0x0464                  ITCRES13 = 0x464
                    0x0464                  _ITCRES13 = 0x464
                    0x0468                  ITCRES14 = 0x468
                    0x0468                  _ITCRES14 = 0x468
                    0x046c                  ITCRES15 = 0x46c
                    0x046c                  _ITCRES15 = 0x46c
                    0x0470                  ITCRES16 = 0x470
                    0x0470                  _ITCRES16 = 0x470
                    0x0474                  ITCRES17 = 0x474
                    0x0474                  _ITCRES17 = 0x474
                    0x0478                  ITCRES18 = 0x478
                    0x0478                  _ITCRES18 = 0x478
                    0x047c                  ITCRES19 = 0x47c
                    0x047c                  _ITCRES19 = 0x47c
                    0x0480                  ITCRES20 = 0x480
                    0x0480                  _ITCRES20 = 0x480
                    0x0484                  ITCRES21 = 0x484
                    0x0484                  _ITCRES21 = 0x484
                    0x0488                  ITCRES22 = 0x488
                    0x0488                  _ITCRES22 = 0x488
                    0x048c                  ITCRES23 = 0x48c
                    0x048c                  _ITCRES23 = 0x48c
                    0x0490                  ITCRES24 = 0x490
                    0x0490                  _ITCRES24 = 0x490
                    0x0494                  ITCRES25 = 0x494
                    0x0494                  _ITCRES25 = 0x494
                    0x0498                  ITCRES26 = 0x498
                    0x0498                  _ITCRES26 = 0x498
                    0x049c                  ITCRES27 = 0x49c
                    0x049c                  _ITCRES27 = 0x49c
                    0x04a0                  ITCRES28 = 0x4a0
                    0x04a0                  _ITCRES28 = 0x4a0
                    0x04a4                  ITCRES29 = 0x4a4
                    0x04a4                  _ITCRES29 = 0x4a4
                    0x04a8                  ITCRES30 = 0x4a8
                    0x04a8                  _ITCRES30 = 0x4a8
                    0x04ac                  ITCRES31 = 0x4ac
                    0x04ac                  _ITCRES31 = 0x4ac
                    0x04b0                  ITCCURRES = 0x4b0
                    0x04b0                  _ITCCURRES = 0x4b0
                    0x0770                  BMXINITPR = 0x770
                    0x0770                  _BMXINITPR = 0x770
                    0x0770                  _BMXINITPRbits = 0x770
                    0x0774                  BMXIRAML = 0x774
                    0x0774                  _BMXIRAML = 0x774
                    0x0778                  BMXIRAMH = 0x778
                    0x0778                  _BMXIRAMH = 0x778
                    0x077c                  BMXXDATERR = 0x77c
                    0x077c                  _BMXXDATERR = 0x77c
                    0x077c                  _BMXXDATERRbits = 0x77c
                    0x0780                  BMXYDATERR = 0x780
                    0x0780                  _BMXYDATERR = 0x780
                    0x0780                  _BMXYDATERRbits = 0x780
                    0x0784                  BMXDMAERR = 0x784
                    0x0784                  _BMXDMAERR = 0x784
                    0x0784                  _BMXDMAERRbits = 0x784
                    0x0788                  BMXCPUERR = 0x788
                    0x0788                  _BMXCPUERR = 0x788
                    0x0788                  _BMXCPUERRbits = 0x788
                    0x078c                  BMXCRYPTERR = 0x78c
                    0x078c                  _BMXCRYPTERR = 0x78c
                    0x078c                  _BMXCRYPTERRbits = 0x78c
                    0x0790                  BMXCAN1ERR = 0x790
                    0x0790                  _BMXCAN1ERR = 0x790
                    0x0790                  _BMXCAN1ERRbits = 0x790
                    0x0794                  BMXCAN2ERR = 0x794
                    0x0794                  _BMXCAN2ERR = 0x794
                    0x0794                  _BMXCAN2ERRbits = 0x794
                    0x0798                  BMXNVMERR = 0x798
                    0x0798                  _BMXNVMERR = 0x798
                    0x0798                  _BMXNVMERRbits = 0x798
                    0x079c                  BMXICDERR = 0x79c
                    0x079c                  _BMXICDERR = 0x79c
                    0x079c                  _BMXICDERRbits = 0x79c
                    0x0800                  AD1CON = 0x800
                    0x0800                  _AD1CON = 0x800
                    0x0800                  _AD1CONbits = 0x800
                    0x0804                  AD1DATAOVR = 0x804
                    0x0804                  _AD1DATAOVR = 0x804
                    0x0808                  AD1STAT = 0x808
                    0x0808                  _AD1STAT = 0x808
                    0x0808                  _AD1STATbits = 0x808
                    0x080c                  AD1RSTAT = 0x80c
                    0x080c                  _AD1RSTAT = 0x80c
                    0x080c                  _AD1RSTATbits = 0x80c
                    0x0810                  AD1CMPSTAT = 0x810
                    0x0810                  _AD1CMPSTAT = 0x810
                    0x0810                  _AD1CMPSTATbits = 0x810
                    0x0814                  AD1SWTRG = 0x814
                    0x0814                  _AD1SWTRG = 0x814
                    0x0814                  _AD1SWTRGbits = 0x814
                    0x0818                  AD1CH0CON1 = 0x818
                    0x0818                  _AD1CH0CON1 = 0x818
                    0x0818                  _AD1CH0CON1bits = 0x818
                    0x081c                  AD1CH0CON2 = 0x81c
                    0x081c                  _AD1CH0CON2 = 0x81c
                    0x081c                  _AD1CH0CON2bits = 0x81c
                    0x0820                  AD1CH0DATA = 0x820
                    0x0820                  _AD1CH0DATA = 0x820
                    0x0824                  AD1CH0RES = 0x824
                    0x0824                  _AD1CH0RES = 0x824
                    0x0824                  _AD1CH0RESbits = 0x824
                    0x0828                  AD1CH0CNT = 0x828
                    0x0828                  _AD1CH0CNT = 0x828
                    0x0828                  _AD1CH0CNTbits = 0x828
                    0x082c                  AD1CH0CMPLO = 0x82c
                    0x082c                  _AD1CH0CMPLO = 0x82c
                    0x0830                  AD1CH0CMPHI = 0x830
                    0x0830                  _AD1CH0CMPHI = 0x830
                    0x0838                  AD1CH1CON1 = 0x838
                    0x0838                  _AD1CH1CON1 = 0x838
                    0x0838                  _AD1CH1CON1bits = 0x838
                    0x083c                  AD1CH1CON2 = 0x83c
                    0x083c                  _AD1CH1CON2 = 0x83c
                    0x083c                  _AD1CH1CON2bits = 0x83c
                    0x0840                  AD1CH1DATA = 0x840
                    0x0840                  _AD1CH1DATA = 0x840
                    0x0844                  AD1CH1RES = 0x844
                    0x0844                  _AD1CH1RES = 0x844
                    0x0844                  _AD1CH1RESbits = 0x844
                    0x0848                  AD1CH1CNT = 0x848
                    0x0848                  _AD1CH1CNT = 0x848
                    0x0848                  _AD1CH1CNTbits = 0x848
                    0x084c                  AD1CH1CMPLO = 0x84c
                    0x084c                  _AD1CH1CMPLO = 0x84c
                    0x0850                  AD1CH1CMPHI = 0x850
                    0x0850                  _AD1CH1CMPHI = 0x850
                    0x0858                  AD1CH2CON1 = 0x858
                    0x0858                  _AD1CH2CON1 = 0x858
                    0x0858                  _AD1CH2CON1bits = 0x858
                    0x085c                  AD1CH2CON2 = 0x85c
                    0x085c                  _AD1CH2CON2 = 0x85c
                    0x085c                  _AD1CH2CON2bits = 0x85c
                    0x0860                  AD1CH2DATA = 0x860
                    0x0860                  _AD1CH2DATA = 0x860
                    0x0864                  AD1CH2RES = 0x864
                    0x0864                  _AD1CH2RES = 0x864
                    0x0864                  _AD1CH2RESbits = 0x864
                    0x0868                  AD1CH2CNT = 0x868
                    0x0868                  _AD1CH2CNT = 0x868
                    0x0868                  _AD1CH2CNTbits = 0x868
                    0x086c                  AD1CH2CMPLO = 0x86c
                    0x086c                  _AD1CH2CMPLO = 0x86c
                    0x0870                  AD1CH2CMPHI = 0x870
                    0x0870                  _AD1CH2CMPHI = 0x870
                    0x0878                  AD1CH3CON1 = 0x878
                    0x0878                  _AD1CH3CON1 = 0x878
                    0x0878                  _AD1CH3CON1bits = 0x878
                    0x087c                  AD1CH3CON2 = 0x87c
                    0x087c                  _AD1CH3CON2 = 0x87c
                    0x087c                  _AD1CH3CON2bits = 0x87c
                    0x0880                  AD1CH3DATA = 0x880
                    0x0880                  _AD1CH3DATA = 0x880
                    0x0884                  AD1CH3RES = 0x884
                    0x0884                  _AD1CH3RES = 0x884
                    0x0884                  _AD1CH3RESbits = 0x884
                    0x0888                  AD1CH3CNT = 0x888
                    0x0888                  _AD1CH3CNT = 0x888
                    0x0888                  _AD1CH3CNTbits = 0x888
                    0x088c                  AD1CH3CMPLO = 0x88c
                    0x088c                  _AD1CH3CMPLO = 0x88c
                    0x0890                  AD1CH3CMPHI = 0x890
                    0x0890                  _AD1CH3CMPHI = 0x890
                    0x0898                  AD1CH4CON1 = 0x898
                    0x0898                  _AD1CH4CON1 = 0x898
                    0x0898                  _AD1CH4CON1bits = 0x898
                    0x089c                  AD1CH4CON2 = 0x89c
                    0x089c                  _AD1CH4CON2 = 0x89c
                    0x089c                  _AD1CH4CON2bits = 0x89c
                    0x08a0                  AD1CH4DATA = 0x8a0
                    0x08a0                  _AD1CH4DATA = 0x8a0
                    0x08a4                  AD1CH4RES = 0x8a4
                    0x08a4                  _AD1CH4RES = 0x8a4
                    0x08a4                  _AD1CH4RESbits = 0x8a4
                    0x08a8                  AD1CH4CNT = 0x8a8
                    0x08a8                  _AD1CH4CNT = 0x8a8
                    0x08a8                  _AD1CH4CNTbits = 0x8a8
                    0x08ac                  AD1CH4CMPLO = 0x8ac
                    0x08ac                  _AD1CH4CMPLO = 0x8ac
                    0x08b0                  AD1CH4CMPHI = 0x8b0
                    0x08b0                  _AD1CH4CMPHI = 0x8b0
                    0x08b8                  AD1CH5CON1 = 0x8b8
                    0x08b8                  _AD1CH5CON1 = 0x8b8
                    0x08b8                  _AD1CH5CON1bits = 0x8b8
                    0x08bc                  AD1CH5CON2 = 0x8bc
                    0x08bc                  _AD1CH5CON2 = 0x8bc
                    0x08bc                  _AD1CH5CON2bits = 0x8bc
                    0x08c0                  AD1CH5DATA = 0x8c0
                    0x08c0                  _AD1CH5DATA = 0x8c0
                    0x08c4                  AD1CH5RES = 0x8c4
                    0x08c4                  _AD1CH5RES = 0x8c4
                    0x08c4                  _AD1CH5RESbits = 0x8c4
                    0x08c8                  AD1CH5CNT = 0x8c8
                    0x08c8                  _AD1CH5CNT = 0x8c8
                    0x08c8                  _AD1CH5CNTbits = 0x8c8
                    0x08cc                  AD1CH5CMPLO = 0x8cc
                    0x08cc                  _AD1CH5CMPLO = 0x8cc
                    0x08d0                  AD1CH5CMPHI = 0x8d0
                    0x08d0                  _AD1CH5CMPHI = 0x8d0
                    0x08d8                  AD1CH6CON1 = 0x8d8
                    0x08d8                  _AD1CH6CON1 = 0x8d8
                    0x08d8                  _AD1CH6CON1bits = 0x8d8
                    0x08dc                  AD1CH6CON2 = 0x8dc
                    0x08dc                  _AD1CH6CON2 = 0x8dc
                    0x08dc                  _AD1CH6CON2bits = 0x8dc
                    0x08e0                  AD1CH6DATA = 0x8e0
                    0x08e0                  _AD1CH6DATA = 0x8e0
                    0x08e4                  AD1CH6RES = 0x8e4
                    0x08e4                  _AD1CH6RES = 0x8e4
                    0x08e4                  _AD1CH6RESbits = 0x8e4
                    0x08e8                  AD1CH6CNT = 0x8e8
                    0x08e8                  _AD1CH6CNT = 0x8e8
                    0x08e8                  _AD1CH6CNTbits = 0x8e8
                    0x08ec                  AD1CH6CMPLO = 0x8ec
                    0x08ec                  _AD1CH6CMPLO = 0x8ec
                    0x08f0                  AD1CH6CMPHI = 0x8f0
                    0x08f0                  _AD1CH6CMPHI = 0x8f0
                    0x08f4                  AD1CH6ACC = 0x8f4
                    0x08f4                  _AD1CH6ACC = 0x8f4
                    0x08f8                  AD1CH7CON1 = 0x8f8
                    0x08f8                  _AD1CH7CON1 = 0x8f8
                    0x08f8                  _AD1CH7CON1bits = 0x8f8
                    0x08fc                  AD1CH7CON2 = 0x8fc
                    0x08fc                  _AD1CH7CON2 = 0x8fc
                    0x08fc                  _AD1CH7CON2bits = 0x8fc
                    0x0900                  AD1CH7DATA = 0x900
                    0x0900                  _AD1CH7DATA = 0x900
                    0x0904                  AD1CH7RES = 0x904
                    0x0904                  _AD1CH7RES = 0x904
                    0x0904                  _AD1CH7RESbits = 0x904
                    0x0908                  AD1CH7CNT = 0x908
                    0x0908                  _AD1CH7CNT = 0x908
                    0x0908                  _AD1CH7CNTbits = 0x908
                    0x090c                  AD1CH7CMPLO = 0x90c
                    0x090c                  _AD1CH7CMPLO = 0x90c
                    0x0910                  AD1CH7CMPHI = 0x910
                    0x0910                  _AD1CH7CMPHI = 0x910
                    0x0914                  AD1CH7ACC = 0x914
                    0x0914                  _AD1CH7ACC = 0x914
                    0x0a00                  AD2CON = 0xa00
                    0x0a00                  _AD2CON = 0xa00
                    0x0a00                  _AD2CONbits = 0xa00
                    0x0a04                  AD2DATAOVR = 0xa04
                    0x0a04                  _AD2DATAOVR = 0xa04
                    0x0a08                  AD2STAT = 0xa08
                    0x0a08                  _AD2STAT = 0xa08
                    0x0a08                  _AD2STATbits = 0xa08
                    0x0a0c                  AD2RSTAT = 0xa0c
                    0x0a0c                  _AD2RSTAT = 0xa0c
                    0x0a0c                  _AD2RSTATbits = 0xa0c
                    0x0a10                  AD2CMPSTAT = 0xa10
                    0x0a10                  _AD2CMPSTAT = 0xa10
                    0x0a10                  _AD2CMPSTATbits = 0xa10
                    0x0a14                  AD2SWTRG = 0xa14
                    0x0a14                  _AD2SWTRG = 0xa14
                    0x0a14                  _AD2SWTRGbits = 0xa14
                    0x0a18                  AD2CH0CON1 = 0xa18
                    0x0a18                  _AD2CH0CON1 = 0xa18
                    0x0a18                  _AD2CH0CON1bits = 0xa18
                    0x0a1c                  AD2CH0CON2 = 0xa1c
                    0x0a1c                  _AD2CH0CON2 = 0xa1c
                    0x0a1c                  _AD2CH0CON2bits = 0xa1c
                    0x0a20                  AD2CH0DATA = 0xa20
                    0x0a20                  _AD2CH0DATA = 0xa20
                    0x0a24                  AD2CH0RES = 0xa24
                    0x0a24                  _AD2CH0RES = 0xa24
                    0x0a24                  _AD2CH0RESbits = 0xa24
                    0x0a28                  AD2CH0CNT = 0xa28
                    0x0a28                  _AD2CH0CNT = 0xa28
                    0x0a28                  _AD2CH0CNTbits = 0xa28
                    0x0a2c                  AD2CH0CMPLO = 0xa2c
                    0x0a2c                  _AD2CH0CMPLO = 0xa2c
                    0x0a30                  AD2CH0CMPHI = 0xa30
                    0x0a30                  _AD2CH0CMPHI = 0xa30
                    0x0a38                  AD2CH1CON1 = 0xa38
                    0x0a38                  _AD2CH1CON1 = 0xa38
                    0x0a38                  _AD2CH1CON1bits = 0xa38
                    0x0a3c                  AD2CH1CON2 = 0xa3c
                    0x0a3c                  _AD2CH1CON2 = 0xa3c
                    0x0a3c                  _AD2CH1CON2bits = 0xa3c
                    0x0a40                  AD2CH1DATA = 0xa40
                    0x0a40                  _AD2CH1DATA = 0xa40
                    0x0a44                  AD2CH1RES = 0xa44
                    0x0a44                  _AD2CH1RES = 0xa44
                    0x0a44                  _AD2CH1RESbits = 0xa44
                    0x0a48                  AD2CH1CNT = 0xa48
                    0x0a48                  _AD2CH1CNT = 0xa48
                    0x0a48                  _AD2CH1CNTbits = 0xa48
                    0x0a4c                  AD2CH1CMPLO = 0xa4c
                    0x0a4c                  _AD2CH1CMPLO = 0xa4c
                    0x0a50                  AD2CH1CMPHI = 0xa50
                    0x0a50                  _AD2CH1CMPHI = 0xa50
                    0x0a58                  AD2CH2CON1 = 0xa58
                    0x0a58                  _AD2CH2CON1 = 0xa58
                    0x0a58                  _AD2CH2CON1bits = 0xa58
                    0x0a5c                  AD2CH2CON2 = 0xa5c
                    0x0a5c                  _AD2CH2CON2 = 0xa5c
                    0x0a5c                  _AD2CH2CON2bits = 0xa5c
                    0x0a60                  AD2CH2DATA = 0xa60
                    0x0a60                  _AD2CH2DATA = 0xa60
                    0x0a64                  AD2CH2RES = 0xa64
                    0x0a64                  _AD2CH2RES = 0xa64
                    0x0a64                  _AD2CH2RESbits = 0xa64
                    0x0a68                  AD2CH2CNT = 0xa68
                    0x0a68                  _AD2CH2CNT = 0xa68
                    0x0a68                  _AD2CH2CNTbits = 0xa68
                    0x0a6c                  AD2CH2CMPLO = 0xa6c
                    0x0a6c                  _AD2CH2CMPLO = 0xa6c
                    0x0a70                  AD2CH2CMPHI = 0xa70
                    0x0a70                  _AD2CH2CMPHI = 0xa70
                    0x0a78                  AD2CH3CON1 = 0xa78
                    0x0a78                  _AD2CH3CON1 = 0xa78
                    0x0a78                  _AD2CH3CON1bits = 0xa78
                    0x0a7c                  AD2CH3CON2 = 0xa7c
                    0x0a7c                  _AD2CH3CON2 = 0xa7c
                    0x0a7c                  _AD2CH3CON2bits = 0xa7c
                    0x0a80                  AD2CH3DATA = 0xa80
                    0x0a80                  _AD2CH3DATA = 0xa80
                    0x0a84                  AD2CH3RES = 0xa84
                    0x0a84                  _AD2CH3RES = 0xa84
                    0x0a84                  _AD2CH3RESbits = 0xa84
                    0x0a88                  AD2CH3CNT = 0xa88
                    0x0a88                  _AD2CH3CNT = 0xa88
                    0x0a88                  _AD2CH3CNTbits = 0xa88
                    0x0a8c                  AD2CH3CMPLO = 0xa8c
                    0x0a8c                  _AD2CH3CMPLO = 0xa8c
                    0x0a90                  AD2CH3CMPHI = 0xa90
                    0x0a90                  _AD2CH3CMPHI = 0xa90
                    0x0a98                  AD2CH4CON1 = 0xa98
                    0x0a98                  _AD2CH4CON1 = 0xa98
                    0x0a98                  _AD2CH4CON1bits = 0xa98
                    0x0a9c                  AD2CH4CON2 = 0xa9c
                    0x0a9c                  _AD2CH4CON2 = 0xa9c
                    0x0a9c                  _AD2CH4CON2bits = 0xa9c
                    0x0aa0                  AD2CH4DATA = 0xaa0
                    0x0aa0                  _AD2CH4DATA = 0xaa0
                    0x0aa4                  AD2CH4RES = 0xaa4
                    0x0aa4                  _AD2CH4RES = 0xaa4
                    0x0aa4                  _AD2CH4RESbits = 0xaa4
                    0x0aa8                  AD2CH4CNT = 0xaa8
                    0x0aa8                  _AD2CH4CNT = 0xaa8
                    0x0aa8                  _AD2CH4CNTbits = 0xaa8
                    0x0aac                  AD2CH4CMPLO = 0xaac
                    0x0aac                  _AD2CH4CMPLO = 0xaac
                    0x0ab0                  AD2CH4CMPHI = 0xab0
                    0x0ab0                  _AD2CH4CMPHI = 0xab0
                    0x0ab8                  AD2CH5CON1 = 0xab8
                    0x0ab8                  _AD2CH5CON1 = 0xab8
                    0x0ab8                  _AD2CH5CON1bits = 0xab8
                    0x0abc                  AD2CH5CON2 = 0xabc
                    0x0abc                  _AD2CH5CON2 = 0xabc
                    0x0abc                  _AD2CH5CON2bits = 0xabc
                    0x0ac0                  AD2CH5DATA = 0xac0
                    0x0ac0                  _AD2CH5DATA = 0xac0
                    0x0ac4                  AD2CH5RES = 0xac4
                    0x0ac4                  _AD2CH5RES = 0xac4
                    0x0ac4                  _AD2CH5RESbits = 0xac4
                    0x0ac8                  AD2CH5CNT = 0xac8
                    0x0ac8                  _AD2CH5CNT = 0xac8
                    0x0ac8                  _AD2CH5CNTbits = 0xac8
                    0x0acc                  AD2CH5CMPLO = 0xacc
                    0x0acc                  _AD2CH5CMPLO = 0xacc
                    0x0ad0                  AD2CH5CMPHI = 0xad0
                    0x0ad0                  _AD2CH5CMPHI = 0xad0
                    0x0ad8                  AD2CH6CON1 = 0xad8
                    0x0ad8                  _AD2CH6CON1 = 0xad8
                    0x0ad8                  _AD2CH6CON1bits = 0xad8
                    0x0adc                  AD2CH6CON2 = 0xadc
                    0x0adc                  _AD2CH6CON2 = 0xadc
                    0x0adc                  _AD2CH6CON2bits = 0xadc
                    0x0ae0                  AD2CH6DATA = 0xae0
                    0x0ae0                  _AD2CH6DATA = 0xae0
                    0x0ae4                  AD2CH6RES = 0xae4
                    0x0ae4                  _AD2CH6RES = 0xae4
                    0x0ae4                  _AD2CH6RESbits = 0xae4
                    0x0ae8                  AD2CH6CNT = 0xae8
                    0x0ae8                  _AD2CH6CNT = 0xae8
                    0x0ae8                  _AD2CH6CNTbits = 0xae8
                    0x0aec                  AD2CH6CMPLO = 0xaec
                    0x0aec                  _AD2CH6CMPLO = 0xaec
                    0x0af0                  AD2CH6CMPHI = 0xaf0
                    0x0af0                  _AD2CH6CMPHI = 0xaf0
                    0x0af4                  AD2CH6ACC = 0xaf4
                    0x0af4                  _AD2CH6ACC = 0xaf4
                    0x0af8                  AD2CH7CON1 = 0xaf8
                    0x0af8                  _AD2CH7CON1 = 0xaf8
                    0x0af8                  _AD2CH7CON1bits = 0xaf8
                    0x0afc                  AD2CH7CON2 = 0xafc
                    0x0afc                  _AD2CH7CON2 = 0xafc
                    0x0afc                  _AD2CH7CON2bits = 0xafc
                    0x0b00                  AD2CH7DATA = 0xb00
                    0x0b00                  _AD2CH7DATA = 0xb00
                    0x0b04                  AD2CH7RES = 0xb04
                    0x0b04                  _AD2CH7RES = 0xb04
                    0x0b04                  _AD2CH7RESbits = 0xb04
                    0x0b08                  AD2CH7CNT = 0xb08
                    0x0b08                  _AD2CH7CNT = 0xb08
                    0x0b08                  _AD2CH7CNTbits = 0xb08
                    0x0b0c                  AD2CH7CMPLO = 0xb0c
                    0x0b0c                  _AD2CH7CMPLO = 0xb0c
                    0x0b10                  AD2CH7CMPHI = 0xb10
                    0x0b10                  _AD2CH7CMPHI = 0xb10
                    0x0b14                  AD2CH7ACC = 0xb14
                    0x0b14                  _AD2CH7ACC = 0xb14
                    0x0b40                  AD3CON = 0xb40
                    0x0b40                  _AD3CON = 0xb40
                    0x0b40                  _AD3CONbits = 0xb40
                    0x0b44                  AD3DATAOVR = 0xb44
                    0x0b44                  _AD3DATAOVR = 0xb44
                    0x0b48                  AD3STAT = 0xb48
                    0x0b48                  _AD3STAT = 0xb48
                    0x0b48                  _AD3STATbits = 0xb48
                    0x0b4c                  AD3RSTAT = 0xb4c
                    0x0b4c                  _AD3RSTAT = 0xb4c
                    0x0b4c                  _AD3RSTATbits = 0xb4c
                    0x0b50                  AD3CMPSTAT = 0xb50
                    0x0b50                  _AD3CMPSTAT = 0xb50
                    0x0b50                  _AD3CMPSTATbits = 0xb50
                    0x0b54                  AD3SWTRG = 0xb54
                    0x0b54                  _AD3SWTRG = 0xb54
                    0x0b54                  _AD3SWTRGbits = 0xb54
                    0x0b58                  AD3CH0CON1 = 0xb58
                    0x0b58                  _AD3CH0CON1 = 0xb58
                    0x0b58                  _AD3CH0CON1bits = 0xb58
                    0x0b5c                  AD3CH0CON2 = 0xb5c
                    0x0b5c                  _AD3CH0CON2 = 0xb5c
                    0x0b5c                  _AD3CH0CON2bits = 0xb5c
                    0x0b60                  AD3CH0DATA = 0xb60
                    0x0b60                  _AD3CH0DATA = 0xb60
                    0x0b64                  AD3CH0RES = 0xb64
                    0x0b64                  _AD3CH0RES = 0xb64
                    0x0b64                  _AD3CH0RESbits = 0xb64
                    0x0b68                  AD3CH0CNT = 0xb68
                    0x0b68                  _AD3CH0CNT = 0xb68
                    0x0b68                  _AD3CH0CNTbits = 0xb68
                    0x0b6c                  AD3CH0CMPLO = 0xb6c
                    0x0b6c                  _AD3CH0CMPLO = 0xb6c
                    0x0b70                  AD3CH0CMPHI = 0xb70
                    0x0b70                  _AD3CH0CMPHI = 0xb70
                    0x0b78                  AD3CH1CON1 = 0xb78
                    0x0b78                  _AD3CH1CON1 = 0xb78
                    0x0b78                  _AD3CH1CON1bits = 0xb78
                    0x0b7c                  AD3CH1CON2 = 0xb7c
                    0x0b7c                  _AD3CH1CON2 = 0xb7c
                    0x0b7c                  _AD3CH1CON2bits = 0xb7c
                    0x0b80                  AD3CH1DATA = 0xb80
                    0x0b80                  _AD3CH1DATA = 0xb80
                    0x0b84                  AD3CH1RES = 0xb84
                    0x0b84                  _AD3CH1RES = 0xb84
                    0x0b84                  _AD3CH1RESbits = 0xb84
                    0x0b88                  AD3CH1CNT = 0xb88
                    0x0b88                  _AD3CH1CNT = 0xb88
                    0x0b88                  _AD3CH1CNTbits = 0xb88
                    0x0b8c                  AD3CH1CMPLO = 0xb8c
                    0x0b8c                  _AD3CH1CMPLO = 0xb8c
                    0x0b90                  AD3CH1CMPHI = 0xb90
                    0x0b90                  _AD3CH1CMPHI = 0xb90
                    0x0b98                  AD3CH2CON1 = 0xb98
                    0x0b98                  _AD3CH2CON1 = 0xb98
                    0x0b98                  _AD3CH2CON1bits = 0xb98
                    0x0b9c                  AD3CH2CON2 = 0xb9c
                    0x0b9c                  _AD3CH2CON2 = 0xb9c
                    0x0b9c                  _AD3CH2CON2bits = 0xb9c
                    0x0ba0                  AD3CH2DATA = 0xba0
                    0x0ba0                  _AD3CH2DATA = 0xba0
                    0x0ba4                  AD3CH2RES = 0xba4
                    0x0ba4                  _AD3CH2RES = 0xba4
                    0x0ba4                  _AD3CH2RESbits = 0xba4
                    0x0ba8                  AD3CH2CNT = 0xba8
                    0x0ba8                  _AD3CH2CNT = 0xba8
                    0x0ba8                  _AD3CH2CNTbits = 0xba8
                    0x0bac                  AD3CH2CMPLO = 0xbac
                    0x0bac                  _AD3CH2CMPLO = 0xbac
                    0x0bb0                  AD3CH2CMPHI = 0xbb0
                    0x0bb0                  _AD3CH2CMPHI = 0xbb0
                    0x0bb8                  AD3CH3CON1 = 0xbb8
                    0x0bb8                  _AD3CH3CON1 = 0xbb8
                    0x0bb8                  _AD3CH3CON1bits = 0xbb8
                    0x0bbc                  AD3CH3CON2 = 0xbbc
                    0x0bbc                  _AD3CH3CON2 = 0xbbc
                    0x0bbc                  _AD3CH3CON2bits = 0xbbc
                    0x0bc0                  AD3CH3DATA = 0xbc0
                    0x0bc0                  _AD3CH3DATA = 0xbc0
                    0x0bc4                  AD3CH3RES = 0xbc4
                    0x0bc4                  _AD3CH3RES = 0xbc4
                    0x0bc4                  _AD3CH3RESbits = 0xbc4
                    0x0bc8                  AD3CH3CNT = 0xbc8
                    0x0bc8                  _AD3CH3CNT = 0xbc8
                    0x0bc8                  _AD3CH3CNTbits = 0xbc8
                    0x0bcc                  AD3CH3CMPLO = 0xbcc
                    0x0bcc                  _AD3CH3CMPLO = 0xbcc
                    0x0bd0                  AD3CH3CMPHI = 0xbd0
                    0x0bd0                  _AD3CH3CMPHI = 0xbd0
                    0x0bd8                  AD3CH4CON1 = 0xbd8
                    0x0bd8                  _AD3CH4CON1 = 0xbd8
                    0x0bd8                  _AD3CH4CON1bits = 0xbd8
                    0x0bdc                  AD3CH4CON2 = 0xbdc
                    0x0bdc                  _AD3CH4CON2 = 0xbdc
                    0x0bdc                  _AD3CH4CON2bits = 0xbdc
                    0x0be0                  AD3CH4DATA = 0xbe0
                    0x0be0                  _AD3CH4DATA = 0xbe0
                    0x0be4                  AD3CH4RES = 0xbe4
                    0x0be4                  _AD3CH4RES = 0xbe4
                    0x0be4                  _AD3CH4RESbits = 0xbe4
                    0x0be8                  AD3CH4CNT = 0xbe8
                    0x0be8                  _AD3CH4CNT = 0xbe8
                    0x0be8                  _AD3CH4CNTbits = 0xbe8
                    0x0bec                  AD3CH4CMPLO = 0xbec
                    0x0bec                  _AD3CH4CMPLO = 0xbec
                    0x0bf0                  AD3CH4CMPHI = 0xbf0
                    0x0bf0                  _AD3CH4CMPHI = 0xbf0
                    0x0bf8                  AD3CH5CON1 = 0xbf8
                    0x0bf8                  _AD3CH5CON1 = 0xbf8
                    0x0bf8                  _AD3CH5CON1bits = 0xbf8
                    0x0bfc                  AD3CH5CON2 = 0xbfc
                    0x0bfc                  _AD3CH5CON2 = 0xbfc
                    0x0bfc                  _AD3CH5CON2bits = 0xbfc
                    0x0c00                  AD3CH5DATA = 0xc00
                    0x0c00                  _AD3CH5DATA = 0xc00
                    0x0c04                  AD3CH5RES = 0xc04
                    0x0c04                  _AD3CH5RES = 0xc04
                    0x0c04                  _AD3CH5RESbits = 0xc04
                    0x0c08                  AD3CH5CNT = 0xc08
                    0x0c08                  _AD3CH5CNT = 0xc08
                    0x0c08                  _AD3CH5CNTbits = 0xc08
                    0x0c0c                  AD3CH5CMPLO = 0xc0c
                    0x0c0c                  _AD3CH5CMPLO = 0xc0c
                    0x0c10                  AD3CH5CMPHI = 0xc10
                    0x0c10                  _AD3CH5CMPHI = 0xc10
                    0x0c18                  AD3CH6CON1 = 0xc18
                    0x0c18                  _AD3CH6CON1 = 0xc18
                    0x0c18                  _AD3CH6CON1bits = 0xc18
                    0x0c1c                  AD3CH6CON2 = 0xc1c
                    0x0c1c                  _AD3CH6CON2 = 0xc1c
                    0x0c1c                  _AD3CH6CON2bits = 0xc1c
                    0x0c20                  AD3CH6DATA = 0xc20
                    0x0c20                  _AD3CH6DATA = 0xc20
                    0x0c24                  AD3CH6RES = 0xc24
                    0x0c24                  _AD3CH6RES = 0xc24
                    0x0c24                  _AD3CH6RESbits = 0xc24
                    0x0c28                  AD3CH6CNT = 0xc28
                    0x0c28                  _AD3CH6CNT = 0xc28
                    0x0c28                  _AD3CH6CNTbits = 0xc28
                    0x0c2c                  AD3CH6CMPLO = 0xc2c
                    0x0c2c                  _AD3CH6CMPLO = 0xc2c
                    0x0c30                  AD3CH6CMPHI = 0xc30
                    0x0c30                  _AD3CH6CMPHI = 0xc30
                    0x0c34                  AD3CH6ACC = 0xc34
                    0x0c34                  _AD3CH6ACC = 0xc34
                    0x0c38                  AD3CH7CON1 = 0xc38
                    0x0c38                  _AD3CH7CON1 = 0xc38
                    0x0c38                  _AD3CH7CON1bits = 0xc38
                    0x0c3c                  AD3CH7CON2 = 0xc3c
                    0x0c3c                  _AD3CH7CON2 = 0xc3c
                    0x0c3c                  _AD3CH7CON2bits = 0xc3c
                    0x0c40                  AD3CH7DATA = 0xc40
                    0x0c40                  _AD3CH7DATA = 0xc40
                    0x0c44                  AD3CH7RES = 0xc44
                    0x0c44                  _AD3CH7RES = 0xc44
                    0x0c44                  _AD3CH7RESbits = 0xc44
                    0x0c48                  AD3CH7CNT = 0xc48
                    0x0c48                  _AD3CH7CNT = 0xc48
                    0x0c48                  _AD3CH7CNTbits = 0xc48
                    0x0c4c                  AD3CH7CMPLO = 0xc4c
                    0x0c4c                  _AD3CH7CMPLO = 0xc4c
                    0x0c50                  AD3CH7CMPHI = 0xc50
                    0x0c50                  _AD3CH7CMPHI = 0xc50
                    0x0c54                  AD3CH7ACC = 0xc54
                    0x0c54                  _AD3CH7ACC = 0xc54
                    0x0c60                  AD4CON = 0xc60
                    0x0c60                  _AD4CON = 0xc60
                    0x0c60                  _AD4CONbits = 0xc60
                    0x0c64                  AD4DATAOVR = 0xc64
                    0x0c64                  _AD4DATAOVR = 0xc64
                    0x0c68                  AD4STAT = 0xc68
                    0x0c68                  _AD4STAT = 0xc68
                    0x0c68                  _AD4STATbits = 0xc68
                    0x0c6c                  AD4RSTAT = 0xc6c
                    0x0c6c                  _AD4RSTAT = 0xc6c
                    0x0c6c                  _AD4RSTATbits = 0xc6c
                    0x0c70                  AD4CMPSTAT = 0xc70
                    0x0c70                  _AD4CMPSTAT = 0xc70
                    0x0c70                  _AD4CMPSTATbits = 0xc70
                    0x0c74                  AD4SWTRG = 0xc74
                    0x0c74                  _AD4SWTRG = 0xc74
                    0x0c74                  _AD4SWTRGbits = 0xc74
                    0x0c78                  AD4CH0CON1 = 0xc78
                    0x0c78                  _AD4CH0CON1 = 0xc78
                    0x0c78                  _AD4CH0CON1bits = 0xc78
                    0x0c7c                  AD4CH0CON2 = 0xc7c
                    0x0c7c                  _AD4CH0CON2 = 0xc7c
                    0x0c7c                  _AD4CH0CON2bits = 0xc7c
                    0x0c80                  AD4CH0DATA = 0xc80
                    0x0c80                  _AD4CH0DATA = 0xc80
                    0x0c84                  AD4CH0RES = 0xc84
                    0x0c84                  _AD4CH0RES = 0xc84
                    0x0c84                  _AD4CH0RESbits = 0xc84
                    0x0c88                  AD4CH0CNT = 0xc88
                    0x0c88                  _AD4CH0CNT = 0xc88
                    0x0c88                  _AD4CH0CNTbits = 0xc88
                    0x0c8c                  AD4CH0CMPLO = 0xc8c
                    0x0c8c                  _AD4CH0CMPLO = 0xc8c
                    0x0c90                  AD4CH0CMPHI = 0xc90
                    0x0c90                  _AD4CH0CMPHI = 0xc90
                    0x0c98                  AD4CH1CON1 = 0xc98
                    0x0c98                  _AD4CH1CON1 = 0xc98
                    0x0c98                  _AD4CH1CON1bits = 0xc98
                    0x0c9c                  AD4CH1CON2 = 0xc9c
                    0x0c9c                  _AD4CH1CON2 = 0xc9c
                    0x0c9c                  _AD4CH1CON2bits = 0xc9c
                    0x0ca0                  AD4CH1DATA = 0xca0
                    0x0ca0                  _AD4CH1DATA = 0xca0
                    0x0ca4                  AD4CH1RES = 0xca4
                    0x0ca4                  _AD4CH1RES = 0xca4
                    0x0ca4                  _AD4CH1RESbits = 0xca4
                    0x0ca8                  AD4CH1CNT = 0xca8
                    0x0ca8                  _AD4CH1CNT = 0xca8
                    0x0ca8                  _AD4CH1CNTbits = 0xca8
                    0x0cac                  AD4CH1CMPLO = 0xcac
                    0x0cac                  _AD4CH1CMPLO = 0xcac
                    0x0cb0                  AD4CH1CMPHI = 0xcb0
                    0x0cb0                  _AD4CH1CMPHI = 0xcb0
                    0x0cb8                  AD4CH2CON1 = 0xcb8
                    0x0cb8                  _AD4CH2CON1 = 0xcb8
                    0x0cb8                  _AD4CH2CON1bits = 0xcb8
                    0x0cbc                  AD4CH2CON2 = 0xcbc
                    0x0cbc                  _AD4CH2CON2 = 0xcbc
                    0x0cbc                  _AD4CH2CON2bits = 0xcbc
                    0x0cc0                  AD4CH2DATA = 0xcc0
                    0x0cc0                  _AD4CH2DATA = 0xcc0
                    0x0cc4                  AD4CH2RES = 0xcc4
                    0x0cc4                  _AD4CH2RES = 0xcc4
                    0x0cc4                  _AD4CH2RESbits = 0xcc4
                    0x0cc8                  AD4CH2CNT = 0xcc8
                    0x0cc8                  _AD4CH2CNT = 0xcc8
                    0x0cc8                  _AD4CH2CNTbits = 0xcc8
                    0x0ccc                  AD4CH2CMPLO = 0xccc
                    0x0ccc                  _AD4CH2CMPLO = 0xccc
                    0x0cd0                  AD4CH2CMPHI = 0xcd0
                    0x0cd0                  _AD4CH2CMPHI = 0xcd0
                    0x0cd8                  AD4CH3CON1 = 0xcd8
                    0x0cd8                  _AD4CH3CON1 = 0xcd8
                    0x0cd8                  _AD4CH3CON1bits = 0xcd8
                    0x0cdc                  AD4CH3CON2 = 0xcdc
                    0x0cdc                  _AD4CH3CON2 = 0xcdc
                    0x0cdc                  _AD4CH3CON2bits = 0xcdc
                    0x0ce0                  AD4CH3DATA = 0xce0
                    0x0ce0                  _AD4CH3DATA = 0xce0
                    0x0ce4                  AD4CH3RES = 0xce4
                    0x0ce4                  _AD4CH3RES = 0xce4
                    0x0ce4                  _AD4CH3RESbits = 0xce4
                    0x0ce8                  AD4CH3CNT = 0xce8
                    0x0ce8                  _AD4CH3CNT = 0xce8
                    0x0ce8                  _AD4CH3CNTbits = 0xce8
                    0x0cec                  AD4CH3CMPLO = 0xcec
                    0x0cec                  _AD4CH3CMPLO = 0xcec
                    0x0cf0                  AD4CH3CMPHI = 0xcf0
                    0x0cf0                  _AD4CH3CMPHI = 0xcf0
                    0x0cf8                  AD4CH4CON1 = 0xcf8
                    0x0cf8                  _AD4CH4CON1 = 0xcf8
                    0x0cf8                  _AD4CH4CON1bits = 0xcf8
                    0x0cfc                  AD4CH4CON2 = 0xcfc
                    0x0cfc                  _AD4CH4CON2 = 0xcfc
                    0x0cfc                  _AD4CH4CON2bits = 0xcfc
                    0x0d00                  AD4CH4DATA = 0xd00
                    0x0d00                  _AD4CH4DATA = 0xd00
                    0x0d04                  AD4CH4RES = 0xd04
                    0x0d04                  _AD4CH4RES = 0xd04
                    0x0d04                  _AD4CH4RESbits = 0xd04
                    0x0d08                  AD4CH4CNT = 0xd08
                    0x0d08                  _AD4CH4CNT = 0xd08
                    0x0d08                  _AD4CH4CNTbits = 0xd08
                    0x0d0c                  AD4CH4CMPLO = 0xd0c
                    0x0d0c                  _AD4CH4CMPLO = 0xd0c
                    0x0d10                  AD4CH4CMPHI = 0xd10
                    0x0d10                  _AD4CH4CMPHI = 0xd10
                    0x0d18                  AD4CH5CON1 = 0xd18
                    0x0d18                  _AD4CH5CON1 = 0xd18
                    0x0d18                  _AD4CH5CON1bits = 0xd18
                    0x0d1c                  AD4CH5CON2 = 0xd1c
                    0x0d1c                  _AD4CH5CON2 = 0xd1c
                    0x0d1c                  _AD4CH5CON2bits = 0xd1c
                    0x0d20                  AD4CH5DATA = 0xd20
                    0x0d20                  _AD4CH5DATA = 0xd20
                    0x0d24                  AD4CH5RES = 0xd24
                    0x0d24                  _AD4CH5RES = 0xd24
                    0x0d24                  _AD4CH5RESbits = 0xd24
                    0x0d28                  AD4CH5CNT = 0xd28
                    0x0d28                  _AD4CH5CNT = 0xd28
                    0x0d28                  _AD4CH5CNTbits = 0xd28
                    0x0d2c                  AD4CH5CMPLO = 0xd2c
                    0x0d2c                  _AD4CH5CMPLO = 0xd2c
                    0x0d30                  AD4CH5CMPHI = 0xd30
                    0x0d30                  _AD4CH5CMPHI = 0xd30
                    0x0d38                  AD4CH6CON1 = 0xd38
                    0x0d38                  _AD4CH6CON1 = 0xd38
                    0x0d38                  _AD4CH6CON1bits = 0xd38
                    0x0d3c                  AD4CH6CON2 = 0xd3c
                    0x0d3c                  _AD4CH6CON2 = 0xd3c
                    0x0d3c                  _AD4CH6CON2bits = 0xd3c
                    0x0d40                  AD4CH6DATA = 0xd40
                    0x0d40                  _AD4CH6DATA = 0xd40
                    0x0d44                  AD4CH6RES = 0xd44
                    0x0d44                  _AD4CH6RES = 0xd44
                    0x0d44                  _AD4CH6RESbits = 0xd44
                    0x0d48                  AD4CH6CNT = 0xd48
                    0x0d48                  _AD4CH6CNT = 0xd48
                    0x0d48                  _AD4CH6CNTbits = 0xd48
                    0x0d4c                  AD4CH6CMPLO = 0xd4c
                    0x0d4c                  _AD4CH6CMPLO = 0xd4c
                    0x0d50                  AD4CH6CMPHI = 0xd50
                    0x0d50                  _AD4CH6CMPHI = 0xd50
                    0x0d54                  AD4CH6ACC = 0xd54
                    0x0d54                  _AD4CH6ACC = 0xd54
                    0x0d58                  AD4CH7CON1 = 0xd58
                    0x0d58                  _AD4CH7CON1 = 0xd58
                    0x0d58                  _AD4CH7CON1bits = 0xd58
                    0x0d5c                  AD4CH7CON2 = 0xd5c
                    0x0d5c                  _AD4CH7CON2 = 0xd5c
                    0x0d5c                  _AD4CH7CON2bits = 0xd5c
                    0x0d60                  AD4CH7DATA = 0xd60
                    0x0d60                  _AD4CH7DATA = 0xd60
                    0x0d64                  AD4CH7RES = 0xd64
                    0x0d64                  _AD4CH7RES = 0xd64
                    0x0d64                  _AD4CH7RESbits = 0xd64
                    0x0d68                  AD4CH7CNT = 0xd68
                    0x0d68                  _AD4CH7CNT = 0xd68
                    0x0d68                  _AD4CH7CNTbits = 0xd68
                    0x0d6c                  AD4CH7CMPLO = 0xd6c
                    0x0d6c                  _AD4CH7CMPLO = 0xd6c
                    0x0d70                  AD4CH7CMPHI = 0xd70
                    0x0d70                  _AD4CH7CMPHI = 0xd70
                    0x0d74                  AD4CH7ACC = 0xd74
                    0x0d74                  _AD4CH7ACC = 0xd74
                    0x0d80                  AD5CON = 0xd80
                    0x0d80                  _AD5CON = 0xd80
                    0x0d80                  _AD5CONbits = 0xd80
                    0x0d84                  AD5DATAOVR = 0xd84
                    0x0d84                  _AD5DATAOVR = 0xd84
                    0x0d88                  AD5STAT = 0xd88
                    0x0d88                  _AD5STAT = 0xd88
                    0x0d88                  _AD5STATbits = 0xd88
                    0x0d8c                  AD5RSTAT = 0xd8c
                    0x0d8c                  _AD5RSTAT = 0xd8c
                    0x0d8c                  _AD5RSTATbits = 0xd8c
                    0x0d90                  AD5CMPSTAT = 0xd90
                    0x0d90                  _AD5CMPSTAT = 0xd90
                    0x0d90                  _AD5CMPSTATbits = 0xd90
                    0x0d94                  AD5SWTRG = 0xd94
                    0x0d94                  _AD5SWTRG = 0xd94
                    0x0d94                  _AD5SWTRGbits = 0xd94
                    0x0d98                  AD5CH0CON1 = 0xd98
                    0x0d98                  _AD5CH0CON1 = 0xd98
                    0x0d98                  _AD5CH0CON1bits = 0xd98
                    0x0d9c                  AD5CH0CON2 = 0xd9c
                    0x0d9c                  _AD5CH0CON2 = 0xd9c
                    0x0d9c                  _AD5CH0CON2bits = 0xd9c
                    0x0da0                  AD5CH0DATA = 0xda0
                    0x0da0                  _AD5CH0DATA = 0xda0
                    0x0da4                  AD5CH0RES = 0xda4
                    0x0da4                  _AD5CH0RES = 0xda4
                    0x0da4                  _AD5CH0RESbits = 0xda4
                    0x0da8                  AD5CH0CNT = 0xda8
                    0x0da8                  _AD5CH0CNT = 0xda8
                    0x0da8                  _AD5CH0CNTbits = 0xda8
                    0x0dac                  AD5CH0CMPLO = 0xdac
                    0x0dac                  _AD5CH0CMPLO = 0xdac
                    0x0db0                  AD5CH0CMPHI = 0xdb0
                    0x0db0                  _AD5CH0CMPHI = 0xdb0
                    0x0db8                  AD5CH1CON1 = 0xdb8
                    0x0db8                  _AD5CH1CON1 = 0xdb8
                    0x0db8                  _AD5CH1CON1bits = 0xdb8
                    0x0dbc                  AD5CH1CON2 = 0xdbc
                    0x0dbc                  _AD5CH1CON2 = 0xdbc
                    0x0dbc                  _AD5CH1CON2bits = 0xdbc
                    0x0dc0                  AD5CH1DATA = 0xdc0
                    0x0dc0                  _AD5CH1DATA = 0xdc0
                    0x0dc4                  AD5CH1RES = 0xdc4
                    0x0dc4                  _AD5CH1RES = 0xdc4
                    0x0dc4                  _AD5CH1RESbits = 0xdc4
                    0x0dc8                  AD5CH1CNT = 0xdc8
                    0x0dc8                  _AD5CH1CNT = 0xdc8
                    0x0dc8                  _AD5CH1CNTbits = 0xdc8
                    0x0dcc                  AD5CH1CMPLO = 0xdcc
                    0x0dcc                  _AD5CH1CMPLO = 0xdcc
                    0x0dd0                  AD5CH1CMPHI = 0xdd0
                    0x0dd0                  _AD5CH1CMPHI = 0xdd0
                    0x0dd8                  AD5CH2CON1 = 0xdd8
                    0x0dd8                  _AD5CH2CON1 = 0xdd8
                    0x0dd8                  _AD5CH2CON1bits = 0xdd8
                    0x0ddc                  AD5CH2CON2 = 0xddc
                    0x0ddc                  _AD5CH2CON2 = 0xddc
                    0x0ddc                  _AD5CH2CON2bits = 0xddc
                    0x0de0                  AD5CH2DATA = 0xde0
                    0x0de0                  _AD5CH2DATA = 0xde0
                    0x0de4                  AD5CH2RES = 0xde4
                    0x0de4                  _AD5CH2RES = 0xde4
                    0x0de4                  _AD5CH2RESbits = 0xde4
                    0x0de8                  AD5CH2CNT = 0xde8
                    0x0de8                  _AD5CH2CNT = 0xde8
                    0x0de8                  _AD5CH2CNTbits = 0xde8
                    0x0dec                  AD5CH2CMPLO = 0xdec
                    0x0dec                  _AD5CH2CMPLO = 0xdec
                    0x0df0                  AD5CH2CMPHI = 0xdf0
                    0x0df0                  _AD5CH2CMPHI = 0xdf0
                    0x0df8                  AD5CH3CON1 = 0xdf8
                    0x0df8                  _AD5CH3CON1 = 0xdf8
                    0x0df8                  _AD5CH3CON1bits = 0xdf8
                    0x0dfc                  AD5CH3CON2 = 0xdfc
                    0x0dfc                  _AD5CH3CON2 = 0xdfc
                    0x0dfc                  _AD5CH3CON2bits = 0xdfc
                    0x0e00                  AD5CH3DATA = 0xe00
                    0x0e00                  _AD5CH3DATA = 0xe00
                    0x0e04                  AD5CH3RES = 0xe04
                    0x0e04                  _AD5CH3RES = 0xe04
                    0x0e04                  _AD5CH3RESbits = 0xe04
                    0x0e08                  AD5CH3CNT = 0xe08
                    0x0e08                  _AD5CH3CNT = 0xe08
                    0x0e08                  _AD5CH3CNTbits = 0xe08
                    0x0e0c                  AD5CH3CMPLO = 0xe0c
                    0x0e0c                  _AD5CH3CMPLO = 0xe0c
                    0x0e10                  AD5CH3CMPHI = 0xe10
                    0x0e10                  _AD5CH3CMPHI = 0xe10
                    0x0e18                  AD5CH4CON1 = 0xe18
                    0x0e18                  _AD5CH4CON1 = 0xe18
                    0x0e18                  _AD5CH4CON1bits = 0xe18
                    0x0e1c                  AD5CH4CON2 = 0xe1c
                    0x0e1c                  _AD5CH4CON2 = 0xe1c
                    0x0e1c                  _AD5CH4CON2bits = 0xe1c
                    0x0e20                  AD5CH4DATA = 0xe20
                    0x0e20                  _AD5CH4DATA = 0xe20
                    0x0e24                  AD5CH4RES = 0xe24
                    0x0e24                  _AD5CH4RES = 0xe24
                    0x0e24                  _AD5CH4RESbits = 0xe24
                    0x0e28                  AD5CH4CNT = 0xe28
                    0x0e28                  _AD5CH4CNT = 0xe28
                    0x0e28                  _AD5CH4CNTbits = 0xe28
                    0x0e2c                  AD5CH4CMPLO = 0xe2c
                    0x0e2c                  _AD5CH4CMPLO = 0xe2c
                    0x0e30                  AD5CH4CMPHI = 0xe30
                    0x0e30                  _AD5CH4CMPHI = 0xe30
                    0x0e38                  AD5CH5CON1 = 0xe38
                    0x0e38                  _AD5CH5CON1 = 0xe38
                    0x0e38                  _AD5CH5CON1bits = 0xe38
                    0x0e3c                  AD5CH5CON2 = 0xe3c
                    0x0e3c                  _AD5CH5CON2 = 0xe3c
                    0x0e3c                  _AD5CH5CON2bits = 0xe3c
                    0x0e40                  AD5CH5DATA = 0xe40
                    0x0e40                  _AD5CH5DATA = 0xe40
                    0x0e44                  AD5CH5RES = 0xe44
                    0x0e44                  _AD5CH5RES = 0xe44
                    0x0e44                  _AD5CH5RESbits = 0xe44
                    0x0e48                  AD5CH5CNT = 0xe48
                    0x0e48                  _AD5CH5CNT = 0xe48
                    0x0e48                  _AD5CH5CNTbits = 0xe48
                    0x0e4c                  AD5CH5CMPLO = 0xe4c
                    0x0e4c                  _AD5CH5CMPLO = 0xe4c
                    0x0e50                  AD5CH5CMPHI = 0xe50
                    0x0e50                  _AD5CH5CMPHI = 0xe50
                    0x0e58                  AD5CH6CON1 = 0xe58
                    0x0e58                  _AD5CH6CON1 = 0xe58
                    0x0e58                  _AD5CH6CON1bits = 0xe58
                    0x0e5c                  AD5CH6CON2 = 0xe5c
                    0x0e5c                  _AD5CH6CON2 = 0xe5c
                    0x0e5c                  _AD5CH6CON2bits = 0xe5c
                    0x0e60                  AD5CH6DATA = 0xe60
                    0x0e60                  _AD5CH6DATA = 0xe60
                    0x0e64                  AD5CH6RES = 0xe64
                    0x0e64                  _AD5CH6RES = 0xe64
                    0x0e64                  _AD5CH6RESbits = 0xe64
                    0x0e68                  AD5CH6CNT = 0xe68
                    0x0e68                  _AD5CH6CNT = 0xe68
                    0x0e68                  _AD5CH6CNTbits = 0xe68
                    0x0e6c                  AD5CH6CMPLO = 0xe6c
                    0x0e6c                  _AD5CH6CMPLO = 0xe6c
                    0x0e70                  AD5CH6CMPHI = 0xe70
                    0x0e70                  _AD5CH6CMPHI = 0xe70
                    0x0e78                  AD5CH7CON1 = 0xe78
                    0x0e78                  _AD5CH7CON1 = 0xe78
                    0x0e78                  _AD5CH7CON1bits = 0xe78
                    0x0e7c                  AD5CH7CON2 = 0xe7c
                    0x0e7c                  _AD5CH7CON2 = 0xe7c
                    0x0e7c                  _AD5CH7CON2bits = 0xe7c
                    0x0e80                  AD5CH7DATA = 0xe80
                    0x0e80                  _AD5CH7DATA = 0xe80
                    0x0e84                  AD5CH7RES = 0xe84
                    0x0e84                  _AD5CH7RES = 0xe84
                    0x0e84                  _AD5CH7RESbits = 0xe84
                    0x0e88                  AD5CH7CNT = 0xe88
                    0x0e88                  _AD5CH7CNT = 0xe88
                    0x0e88                  _AD5CH7CNTbits = 0xe88
                    0x0e8c                  AD5CH7CMPLO = 0xe8c
                    0x0e8c                  _AD5CH7CMPLO = 0xe8c
                    0x0e90                  AD5CH7CMPHI = 0xe90
                    0x0e90                  _AD5CH7CMPHI = 0xe90
                    0x0e98                  AD5CH8CON1 = 0xe98
                    0x0e98                  _AD5CH8CON1 = 0xe98
                    0x0e98                  _AD5CH8CON1bits = 0xe98
                    0x0e9c                  AD5CH8CON2 = 0xe9c
                    0x0e9c                  _AD5CH8CON2 = 0xe9c
                    0x0e9c                  _AD5CH8CON2bits = 0xe9c
                    0x0ea0                  AD5CH8DATA = 0xea0
                    0x0ea0                  _AD5CH8DATA = 0xea0
                    0x0ea4                  AD5CH8RES = 0xea4
                    0x0ea4                  _AD5CH8RES = 0xea4
                    0x0ea4                  _AD5CH8RESbits = 0xea4
                    0x0ea8                  AD5CH8CNT = 0xea8
                    0x0ea8                  _AD5CH8CNT = 0xea8
                    0x0ea8                  _AD5CH8CNTbits = 0xea8
                    0x0eac                  AD5CH8CMPLO = 0xeac
                    0x0eac                  _AD5CH8CMPLO = 0xeac
                    0x0eb0                  AD5CH8CMPHI = 0xeb0
                    0x0eb0                  _AD5CH8CMPHI = 0xeb0
                    0x0eb8                  AD5CH9CON1 = 0xeb8
                    0x0eb8                  _AD5CH9CON1 = 0xeb8
                    0x0eb8                  _AD5CH9CON1bits = 0xeb8
                    0x0ebc                  AD5CH9CON2 = 0xebc
                    0x0ebc                  _AD5CH9CON2 = 0xebc
                    0x0ebc                  _AD5CH9CON2bits = 0xebc
                    0x0ec0                  AD5CH9DATA = 0xec0
                    0x0ec0                  _AD5CH9DATA = 0xec0
                    0x0ec4                  AD5CH9RES = 0xec4
                    0x0ec4                  _AD5CH9RES = 0xec4
                    0x0ec4                  _AD5CH9RESbits = 0xec4
                    0x0ec8                  AD5CH9CNT = 0xec8
                    0x0ec8                  _AD5CH9CNT = 0xec8
                    0x0ec8                  _AD5CH9CNTbits = 0xec8
                    0x0ecc                  AD5CH9CMPLO = 0xecc
                    0x0ecc                  _AD5CH9CMPLO = 0xecc
                    0x0ed0                  AD5CH9CMPHI = 0xed0
                    0x0ed0                  _AD5CH9CMPHI = 0xed0
                    0x0ed8                  AD5CH10CON1 = 0xed8
                    0x0ed8                  _AD5CH10CON1 = 0xed8
                    0x0ed8                  _AD5CH10CON1bits = 0xed8
                    0x0edc                  AD5CH10CON2 = 0xedc
                    0x0edc                  _AD5CH10CON2 = 0xedc
                    0x0edc                  _AD5CH10CON2bits = 0xedc
                    0x0ee0                  AD5CH10DATA = 0xee0
                    0x0ee0                  _AD5CH10DATA = 0xee0
                    0x0ee4                  AD5CH10RES = 0xee4
                    0x0ee4                  _AD5CH10RES = 0xee4
                    0x0ee4                  _AD5CH10RESbits = 0xee4
                    0x0ee8                  AD5CH10CNT = 0xee8
                    0x0ee8                  _AD5CH10CNT = 0xee8
                    0x0ee8                  _AD5CH10CNTbits = 0xee8
                    0x0eec                  AD5CH10CMPLO = 0xeec
                    0x0eec                  _AD5CH10CMPLO = 0xeec
                    0x0ef0                  AD5CH10CMPHI = 0xef0
                    0x0ef0                  _AD5CH10CMPHI = 0xef0
                    0x0ef8                  AD5CH11CON1 = 0xef8
                    0x0ef8                  _AD5CH11CON1 = 0xef8
                    0x0ef8                  _AD5CH11CON1bits = 0xef8
                    0x0efc                  AD5CH11CON2 = 0xefc
                    0x0efc                  _AD5CH11CON2 = 0xefc
                    0x0efc                  _AD5CH11CON2bits = 0xefc
                    0x0f00                  AD5CH11DATA = 0xf00
                    0x0f00                  _AD5CH11DATA = 0xf00
                    0x0f04                  AD5CH11RES = 0xf04
                    0x0f04                  _AD5CH11RES = 0xf04
                    0x0f04                  _AD5CH11RESbits = 0xf04
                    0x0f08                  AD5CH11CNT = 0xf08
                    0x0f08                  _AD5CH11CNT = 0xf08
                    0x0f08                  _AD5CH11CNTbits = 0xf08
                    0x0f0c                  AD5CH11CMPLO = 0xf0c
                    0x0f0c                  _AD5CH11CMPLO = 0xf0c
                    0x0f10                  AD5CH11CMPHI = 0xf10
                    0x0f10                  _AD5CH11CMPHI = 0xf10
                    0x0f18                  AD5CH12CON1 = 0xf18
                    0x0f18                  _AD5CH12CON1 = 0xf18
                    0x0f18                  _AD5CH12CON1bits = 0xf18
                    0x0f1c                  AD5CH12CON2 = 0xf1c
                    0x0f1c                  _AD5CH12CON2 = 0xf1c
                    0x0f1c                  _AD5CH12CON2bits = 0xf1c
                    0x0f20                  AD5CH12DATA = 0xf20
                    0x0f20                  _AD5CH12DATA = 0xf20
                    0x0f24                  AD5CH12RES = 0xf24
                    0x0f24                  _AD5CH12RES = 0xf24
                    0x0f24                  _AD5CH12RESbits = 0xf24
                    0x0f28                  AD5CH12CNT = 0xf28
                    0x0f28                  _AD5CH12CNT = 0xf28
                    0x0f28                  _AD5CH12CNTbits = 0xf28
                    0x0f2c                  AD5CH12CMPLO = 0xf2c
                    0x0f2c                  _AD5CH12CMPLO = 0xf2c
                    0x0f30                  AD5CH12CMPHI = 0xf30
                    0x0f30                  _AD5CH12CMPHI = 0xf30
                    0x0f38                  AD5CH13CON1 = 0xf38
                    0x0f38                  _AD5CH13CON1 = 0xf38
                    0x0f38                  _AD5CH13CON1bits = 0xf38
                    0x0f3c                  AD5CH13CON2 = 0xf3c
                    0x0f3c                  _AD5CH13CON2 = 0xf3c
                    0x0f3c                  _AD5CH13CON2bits = 0xf3c
                    0x0f40                  AD5CH13DATA = 0xf40
                    0x0f40                  _AD5CH13DATA = 0xf40
                    0x0f44                  AD5CH13RES = 0xf44
                    0x0f44                  _AD5CH13RES = 0xf44
                    0x0f44                  _AD5CH13RESbits = 0xf44
                    0x0f48                  AD5CH13CNT = 0xf48
                    0x0f48                  _AD5CH13CNT = 0xf48
                    0x0f48                  _AD5CH13CNTbits = 0xf48
                    0x0f4c                  AD5CH13CMPLO = 0xf4c
                    0x0f4c                  _AD5CH13CMPLO = 0xf4c
                    0x0f50                  AD5CH13CMPHI = 0xf50
                    0x0f50                  _AD5CH13CMPHI = 0xf50
                    0x0f58                  AD5CH14CON1 = 0xf58
                    0x0f58                  _AD5CH14CON1 = 0xf58
                    0x0f58                  _AD5CH14CON1bits = 0xf58
                    0x0f5c                  AD5CH14CON2 = 0xf5c
                    0x0f5c                  _AD5CH14CON2 = 0xf5c
                    0x0f5c                  _AD5CH14CON2bits = 0xf5c
                    0x0f60                  AD5CH14DATA = 0xf60
                    0x0f60                  _AD5CH14DATA = 0xf60
                    0x0f64                  AD5CH14RES = 0xf64
                    0x0f64                  _AD5CH14RES = 0xf64
                    0x0f64                  _AD5CH14RESbits = 0xf64
                    0x0f68                  AD5CH14CNT = 0xf68
                    0x0f68                  _AD5CH14CNT = 0xf68
                    0x0f68                  _AD5CH14CNTbits = 0xf68
                    0x0f6c                  AD5CH14CMPLO = 0xf6c
                    0x0f6c                  _AD5CH14CMPLO = 0xf6c
                    0x0f70                  AD5CH14CMPHI = 0xf70
                    0x0f70                  _AD5CH14CMPHI = 0xf70
                    0x0f74                  AD5CH14ACC = 0xf74
                    0x0f74                  _AD5CH14ACC = 0xf74
                    0x0f78                  AD5CH15CON1 = 0xf78
                    0x0f78                  _AD5CH15CON1 = 0xf78
                    0x0f78                  _AD5CH15CON1bits = 0xf78
                    0x0f7c                  AD5CH15CON2 = 0xf7c
                    0x0f7c                  _AD5CH15CON2 = 0xf7c
                    0x0f7c                  _AD5CH15CON2bits = 0xf7c
                    0x0f80                  AD5CH15DATA = 0xf80
                    0x0f80                  _AD5CH15DATA = 0xf80
                    0x0f84                  AD5CH15RES = 0xf84
                    0x0f84                  _AD5CH15RES = 0xf84
                    0x0f84                  _AD5CH15RESbits = 0xf84
                    0x0f88                  AD5CH15CNT = 0xf88
                    0x0f88                  _AD5CH15CNT = 0xf88
                    0x0f88                  _AD5CH15CNTbits = 0xf88
                    0x0f8c                  AD5CH15CMPLO = 0xf8c
                    0x0f8c                  _AD5CH15CMPLO = 0xf8c
                    0x0f90                  AD5CH15CMPHI = 0xf90
                    0x0f90                  _AD5CH15CMPHI = 0xf90
                    0x0f94                  AD5CH15ACC = 0xf94
                    0x0f94                  _AD5CH15ACC = 0xf94
                    0x1000                  PCLKCON = 0x1000
                    0x1000                  _PCLKCON = 0x1000
                    0x1000                  _PCLKCONbits = 0x1000
                    0x1004                  FSCL = 0x1004
                    0x1004                  _FSCL = 0x1004
                    0x1004                  _FSCLbits = 0x1004
                    0x1008                  FSMINPER = 0x1008
                    0x1008                  _FSMINPER = 0x1008
                    0x1008                  _FSMINPERbits = 0x1008
                    0x100c                  MPHASE = 0x100c
                    0x100c                  _MPHASE = 0x100c
                    0x100c                  _MPHASEbits = 0x100c
                    0x1010                  MDC = 0x1010
                    0x1010                  _MDC = 0x1010
                    0x1010                  _MDCbits = 0x1010
                    0x1014                  MPER = 0x1014
                    0x1014                  _MPER = 0x1014
                    0x1014                  _MPERbits = 0x1014
                    0x1018                  LFSR = 0x1018
                    0x1018                  _LFSR = 0x1018
                    0x1018                  _LFSRbits = 0x1018
                    0x101c                  CMBTRIG = 0x101c
                    0x101c                  _CMBTRIG = 0x101c
                    0x101c                  _CMBTRIGbits = 0x101c
                    0x1020                  LOGCONA = 0x1020
                    0x1020                  _LOGCONA = 0x1020
                    0x1020                  _LOGCONAbits = 0x1020
                    0x1024                  LOGCONB = 0x1024
                    0x1024                  _LOGCONB = 0x1024
                    0x1024                  _LOGCONBbits = 0x1024
                    0x1028                  LOGCONC = 0x1028
                    0x1028                  _LOGCONC = 0x1028
                    0x1028                  _LOGCONCbits = 0x1028
                    0x102c                  LOGCOND = 0x102c
                    0x102c                  _LOGCOND = 0x102c
                    0x102c                  _LOGCONDbits = 0x102c
                    0x1030                  LOGCONE = 0x1030
                    0x1030                  _LOGCONE = 0x1030
                    0x1030                  _LOGCONEbits = 0x1030
                    0x1034                  LOGCONF = 0x1034
                    0x1034                  _LOGCONF = 0x1034
                    0x1034                  _LOGCONFbits = 0x1034
                    0x1038                  PWMEVTA = 0x1038
                    0x1038                  _PWMEVTA = 0x1038
                    0x1038                  _PWMEVTAbits = 0x1038
                    0x103c                  PWMEVTB = 0x103c
                    0x103c                  _PWMEVTB = 0x103c
                    0x103c                  _PWMEVTBbits = 0x103c
                    0x1040                  PWMEVTC = 0x1040
                    0x1040                  _PWMEVTC = 0x1040
                    0x1040                  _PWMEVTCbits = 0x1040
                    0x1044                  PWMEVTD = 0x1044
                    0x1044                  _PWMEVTD = 0x1044
                    0x1044                  _PWMEVTDbits = 0x1044
                    0x1048                  PWMEVTE = 0x1048
                    0x1048                  _PWMEVTE = 0x1048
                    0x1048                  _PWMEVTEbits = 0x1048
                    0x104c                  PWMEVTF = 0x104c
                    0x104c                  _PWMEVTF = 0x104c
                    0x104c                  _PWMEVTFbits = 0x104c
                    0x1050                  PG1CON = 0x1050
                    0x1050                  _PG1CON = 0x1050
                    0x1050                  _PG1CONbits = 0x1050
                    0x1054                  PG1STAT = 0x1054
                    0x1054                  _PG1STAT = 0x1054
                    0x1054                  _PG1STATbits = 0x1054
                    0x1058                  PG1IOCON1 = 0x1058
                    0x1058                  _PG1IOCON1 = 0x1058
                    0x1058                  _PG1IOCON1bits = 0x1058
                    0x105c                  PG1IOCON2 = 0x105c
                    0x105c                  _PG1IOCON2 = 0x105c
                    0x105c                  _PG1IOCON2bits = 0x105c
                    0x1060                  PG1EVT1 = 0x1060
                    0x1060                  _PG1EVT1 = 0x1060
                    0x1060                  _PG1EVT1bits = 0x1060
                    0x1064                  PG1EVT2 = 0x1064
                    0x1064                  _PG1EVT2 = 0x1064
                    0x1064                  _PG1EVT2bits = 0x1064
                    0x1068                  PG1F1PCI1 = 0x1068
                    0x1068                  _PG1F1PCI1 = 0x1068
                    0x1068                  _PG1F1PCI1bits = 0x1068
                    0x106c                  PG1F1PCI2 = 0x106c
                    0x106c                  _PG1F1PCI2 = 0x106c
                    0x1070                  PG1F2PCI1 = 0x1070
                    0x1070                  _PG1F2PCI1 = 0x1070
                    0x1070                  _PG1F2PCI1bits = 0x1070
                    0x1074                  PG1F2PCI2 = 0x1074
                    0x1074                  _PG1F2PCI2 = 0x1074
                    0x1078                  PG1CLPCI1 = 0x1078
                    0x1078                  _PG1CLPCI1 = 0x1078
                    0x1078                  _PG1CLPCI1bits = 0x1078
                    0x107c                  PG1CLPCI2 = 0x107c
                    0x107c                  _PG1CLPCI2 = 0x107c
                    0x1080                  PG1FFPCI1 = 0x1080
                    0x1080                  _PG1FFPCI1 = 0x1080
                    0x1080                  _PG1FFPCI1bits = 0x1080
                    0x1084                  PG1FFPCI2 = 0x1084
                    0x1084                  _PG1FFPCI2 = 0x1084
                    0x1088                  PG1SPCI1 = 0x1088
                    0x1088                  _PG1SPCI1 = 0x1088
                    0x1088                  _PG1SPCI1bits = 0x1088
                    0x108c                  PG1SPCI2 = 0x108c
                    0x108c                  _PG1SPCI2 = 0x108c
                    0x1090                  PG1LEB = 0x1090
                    0x1090                  _PG1LEB = 0x1090
                    0x1090                  _PG1LEBbits = 0x1090
                    0x1094                  PG1PHASE = 0x1094
                    0x1094                  _PG1PHASE = 0x1094
                    0x1094                  _PG1PHASEbits = 0x1094
                    0x1098                  PG1DC = 0x1098
                    0x1098                  _PG1DC = 0x1098
                    0x1098                  _PG1DCbits = 0x1098
                    0x109c                  PG1DCA = 0x109c
                    0x109c                  _PG1DCA = 0x109c
                    0x109c                  _PG1DCAbits = 0x109c
                    0x10a0                  PG1PER = 0x10a0
                    0x10a0                  _PG1PER = 0x10a0
                    0x10a0                  _PG1PERbits = 0x10a0
                    0x10a4                  PG1TRIGA = 0x10a4
                    0x10a4                  _PG1TRIGA = 0x10a4
                    0x10a4                  _PG1TRIGAbits = 0x10a4
                    0x10a8                  PG1TRIGB = 0x10a8
                    0x10a8                  _PG1TRIGB = 0x10a8
                    0x10a8                  _PG1TRIGBbits = 0x10a8
                    0x10ac                  PG1TRIGC = 0x10ac
                    0x10ac                  _PG1TRIGC = 0x10ac
                    0x10ac                  _PG1TRIGCbits = 0x10ac
                    0x10b0                  PG1TRIGD = 0x10b0
                    0x10b0                  _PG1TRIGD = 0x10b0
                    0x10b0                  _PG1TRIGDbits = 0x10b0
                    0x10b4                  PG1TRIGE = 0x10b4
                    0x10b4                  _PG1TRIGE = 0x10b4
                    0x10b4                  _PG1TRIGEbits = 0x10b4
                    0x10b8                  PG1TRIGF = 0x10b8
                    0x10b8                  _PG1TRIGF = 0x10b8
                    0x10b8                  _PG1TRIGFbits = 0x10b8
                    0x10bc                  PG1DT = 0x10bc
                    0x10bc                  _PG1DT = 0x10bc
                    0x10bc                  _PG1DTbits = 0x10bc
                    0x10c0                  PG1CAP = 0x10c0
                    0x10c0                  _PG1CAP = 0x10c0
                    0x10c0                  _PG1CAPbits = 0x10c0
                    0x10c4                  PG2CON = 0x10c4
                    0x10c4                  _PG2CON = 0x10c4
                    0x10c4                  _PG2CONbits = 0x10c4
                    0x10c8                  PG2STAT = 0x10c8
                    0x10c8                  _PG2STAT = 0x10c8
                    0x10c8                  _PG2STATbits = 0x10c8
                    0x10cc                  PG2IOCON1 = 0x10cc
                    0x10cc                  _PG2IOCON1 = 0x10cc
                    0x10cc                  _PG2IOCON1bits = 0x10cc
                    0x10d0                  PG2IOCON2 = 0x10d0
                    0x10d0                  _PG2IOCON2 = 0x10d0
                    0x10d0                  _PG2IOCON2bits = 0x10d0
                    0x10d4                  PG2EVT1 = 0x10d4
                    0x10d4                  _PG2EVT1 = 0x10d4
                    0x10d4                  _PG2EVT1bits = 0x10d4
                    0x10d8                  PG2EVT2 = 0x10d8
                    0x10d8                  _PG2EVT2 = 0x10d8
                    0x10d8                  _PG2EVT2bits = 0x10d8
                    0x10dc                  PG2F1PCI1 = 0x10dc
                    0x10dc                  _PG2F1PCI1 = 0x10dc
                    0x10dc                  _PG2F1PCI1bits = 0x10dc
                    0x10e0                  PG2F1PCI2 = 0x10e0
                    0x10e0                  _PG2F1PCI2 = 0x10e0
                    0x10e4                  PG2F2PCI1 = 0x10e4
                    0x10e4                  _PG2F2PCI1 = 0x10e4
                    0x10e4                  _PG2F2PCI1bits = 0x10e4
                    0x10e8                  PG2F2PCI2 = 0x10e8
                    0x10e8                  _PG2F2PCI2 = 0x10e8
                    0x10ec                  PG2CLPCI1 = 0x10ec
                    0x10ec                  _PG2CLPCI1 = 0x10ec
                    0x10ec                  _PG2CLPCI1bits = 0x10ec
                    0x10f0                  PG2CLPCI2 = 0x10f0
                    0x10f0                  _PG2CLPCI2 = 0x10f0
                    0x10f4                  PG2FFPCI1 = 0x10f4
                    0x10f4                  _PG2FFPCI1 = 0x10f4
                    0x10f4                  _PG2FFPCI1bits = 0x10f4
                    0x10f8                  PG2FFPCI2 = 0x10f8
                    0x10f8                  _PG2FFPCI2 = 0x10f8
                    0x10fc                  PG2SPCI1 = 0x10fc
                    0x10fc                  _PG2SPCI1 = 0x10fc
                    0x10fc                  _PG2SPCI1bits = 0x10fc
                    0x1100                  PG2SPCI2 = 0x1100
                    0x1100                  _PG2SPCI2 = 0x1100
                    0x1104                  PG2LEB = 0x1104
                    0x1104                  _PG2LEB = 0x1104
                    0x1104                  _PG2LEBbits = 0x1104
                    0x1108                  PG2PHASE = 0x1108
                    0x1108                  _PG2PHASE = 0x1108
                    0x1108                  _PG2PHASEbits = 0x1108
                    0x110c                  PG2DC = 0x110c
                    0x110c                  _PG2DC = 0x110c
                    0x110c                  _PG2DCbits = 0x110c
                    0x1110                  PG2DCA = 0x1110
                    0x1110                  _PG2DCA = 0x1110
                    0x1110                  _PG2DCAbits = 0x1110
                    0x1114                  PG2PER = 0x1114
                    0x1114                  _PG2PER = 0x1114
                    0x1114                  _PG2PERbits = 0x1114
                    0x1118                  PG2TRIGA = 0x1118
                    0x1118                  _PG2TRIGA = 0x1118
                    0x1118                  _PG2TRIGAbits = 0x1118
                    0x111c                  PG2TRIGB = 0x111c
                    0x111c                  _PG2TRIGB = 0x111c
                    0x111c                  _PG2TRIGBbits = 0x111c
                    0x1120                  PG2TRIGC = 0x1120
                    0x1120                  _PG2TRIGC = 0x1120
                    0x1120                  _PG2TRIGCbits = 0x1120
                    0x1124                  PG2TRIGD = 0x1124
                    0x1124                  _PG2TRIGD = 0x1124
                    0x1124                  _PG2TRIGDbits = 0x1124
                    0x1128                  PG2TRIGE = 0x1128
                    0x1128                  _PG2TRIGE = 0x1128
                    0x1128                  _PG2TRIGEbits = 0x1128
                    0x112c                  PG2TRIGF = 0x112c
                    0x112c                  _PG2TRIGF = 0x112c
                    0x112c                  _PG2TRIGFbits = 0x112c
                    0x1130                  PG2DT = 0x1130
                    0x1130                  _PG2DT = 0x1130
                    0x1130                  _PG2DTbits = 0x1130
                    0x1134                  PG2CAP = 0x1134
                    0x1134                  _PG2CAP = 0x1134
                    0x1134                  _PG2CAPbits = 0x1134
                    0x1138                  PG3CON = 0x1138
                    0x1138                  _PG3CON = 0x1138
                    0x1138                  _PG3CONbits = 0x1138
                    0x113c                  PG3STAT = 0x113c
                    0x113c                  _PG3STAT = 0x113c
                    0x113c                  _PG3STATbits = 0x113c
                    0x1140                  PG3IOCON1 = 0x1140
                    0x1140                  _PG3IOCON1 = 0x1140
                    0x1140                  _PG3IOCON1bits = 0x1140
                    0x1144                  PG3IOCON2 = 0x1144
                    0x1144                  _PG3IOCON2 = 0x1144
                    0x1144                  _PG3IOCON2bits = 0x1144
                    0x1148                  PG3EVT1 = 0x1148
                    0x1148                  _PG3EVT1 = 0x1148
                    0x1148                  _PG3EVT1bits = 0x1148
                    0x114c                  PG3EVT2 = 0x114c
                    0x114c                  _PG3EVT2 = 0x114c
                    0x114c                  _PG3EVT2bits = 0x114c
                    0x1150                  PG3F1PCI1 = 0x1150
                    0x1150                  _PG3F1PCI1 = 0x1150
                    0x1150                  _PG3F1PCI1bits = 0x1150
                    0x1154                  PG3F1PCI2 = 0x1154
                    0x1154                  _PG3F1PCI2 = 0x1154
                    0x1158                  PG3F2PCI1 = 0x1158
                    0x1158                  _PG3F2PCI1 = 0x1158
                    0x1158                  _PG3F2PCI1bits = 0x1158
                    0x115c                  PG3F2PCI2 = 0x115c
                    0x115c                  _PG3F2PCI2 = 0x115c
                    0x1160                  PG3CLPCI1 = 0x1160
                    0x1160                  _PG3CLPCI1 = 0x1160
                    0x1160                  _PG3CLPCI1bits = 0x1160
                    0x1164                  PG3CLPCI2 = 0x1164
                    0x1164                  _PG3CLPCI2 = 0x1164
                    0x1168                  PG3FFPCI1 = 0x1168
                    0x1168                  _PG3FFPCI1 = 0x1168
                    0x1168                  _PG3FFPCI1bits = 0x1168
                    0x116c                  PG3FFPCI2 = 0x116c
                    0x116c                  _PG3FFPCI2 = 0x116c
                    0x1170                  PG3SPCI1 = 0x1170
                    0x1170                  _PG3SPCI1 = 0x1170
                    0x1170                  _PG3SPCI1bits = 0x1170
                    0x1174                  PG3SPCI2 = 0x1174
                    0x1174                  _PG3SPCI2 = 0x1174
                    0x1178                  PG3LEB = 0x1178
                    0x1178                  _PG3LEB = 0x1178
                    0x1178                  _PG3LEBbits = 0x1178
                    0x117c                  PG3PHASE = 0x117c
                    0x117c                  _PG3PHASE = 0x117c
                    0x117c                  _PG3PHASEbits = 0x117c
                    0x1180                  PG3DC = 0x1180
                    0x1180                  _PG3DC = 0x1180
                    0x1180                  _PG3DCbits = 0x1180
                    0x1184                  PG3DCA = 0x1184
                    0x1184                  _PG3DCA = 0x1184
                    0x1184                  _PG3DCAbits = 0x1184
                    0x1188                  PG3PER = 0x1188
                    0x1188                  _PG3PER = 0x1188
                    0x1188                  _PG3PERbits = 0x1188
                    0x118c                  PG3TRIGA = 0x118c
                    0x118c                  _PG3TRIGA = 0x118c
                    0x118c                  _PG3TRIGAbits = 0x118c
                    0x1190                  PG3TRIGB = 0x1190
                    0x1190                  _PG3TRIGB = 0x1190
                    0x1190                  _PG3TRIGBbits = 0x1190
                    0x1194                  PG3TRIGC = 0x1194
                    0x1194                  _PG3TRIGC = 0x1194
                    0x1194                  _PG3TRIGCbits = 0x1194
                    0x1198                  PG3TRIGD = 0x1198
                    0x1198                  _PG3TRIGD = 0x1198
                    0x1198                  _PG3TRIGDbits = 0x1198
                    0x119c                  PG3TRIGE = 0x119c
                    0x119c                  _PG3TRIGE = 0x119c
                    0x119c                  _PG3TRIGEbits = 0x119c
                    0x11a0                  PG3TRIGF = 0x11a0
                    0x11a0                  _PG3TRIGF = 0x11a0
                    0x11a0                  _PG3TRIGFbits = 0x11a0
                    0x11a4                  PG3DT = 0x11a4
                    0x11a4                  _PG3DT = 0x11a4
                    0x11a4                  _PG3DTbits = 0x11a4
                    0x11a8                  PG3CAP = 0x11a8
                    0x11a8                  _PG3CAP = 0x11a8
                    0x11a8                  _PG3CAPbits = 0x11a8
                    0x11ac                  PG4CON = 0x11ac
                    0x11ac                  _PG4CON = 0x11ac
                    0x11ac                  _PG4CONbits = 0x11ac
                    0x11b0                  PG4STAT = 0x11b0
                    0x11b0                  _PG4STAT = 0x11b0
                    0x11b0                  _PG4STATbits = 0x11b0
                    0x11b4                  PG4IOCON1 = 0x11b4
                    0x11b4                  _PG4IOCON1 = 0x11b4
                    0x11b4                  _PG4IOCON1bits = 0x11b4
                    0x11b8                  PG4IOCON2 = 0x11b8
                    0x11b8                  _PG4IOCON2 = 0x11b8
                    0x11b8                  _PG4IOCON2bits = 0x11b8
                    0x11bc                  PG4EVT1 = 0x11bc
                    0x11bc                  _PG4EVT1 = 0x11bc
                    0x11bc                  _PG4EVT1bits = 0x11bc
                    0x11c0                  PG4EVT2 = 0x11c0
                    0x11c0                  _PG4EVT2 = 0x11c0
                    0x11c0                  _PG4EVT2bits = 0x11c0
                    0x11c4                  PG4F1PCI1 = 0x11c4
                    0x11c4                  _PG4F1PCI1 = 0x11c4
                    0x11c4                  _PG4F1PCI1bits = 0x11c4
                    0x11c8                  PG4F1PCI2 = 0x11c8
                    0x11c8                  _PG4F1PCI2 = 0x11c8
                    0x11cc                  PG4F2PCI1 = 0x11cc
                    0x11cc                  _PG4F2PCI1 = 0x11cc
                    0x11cc                  _PG4F2PCI1bits = 0x11cc
                    0x11d0                  PG4F2PCI2 = 0x11d0
                    0x11d0                  _PG4F2PCI2 = 0x11d0
                    0x11d4                  PG4CLPCI1 = 0x11d4
                    0x11d4                  _PG4CLPCI1 = 0x11d4
                    0x11d4                  _PG4CLPCI1bits = 0x11d4
                    0x11d8                  PG4CLPCI2 = 0x11d8
                    0x11d8                  _PG4CLPCI2 = 0x11d8
                    0x11dc                  PG4FFPCI1 = 0x11dc
                    0x11dc                  _PG4FFPCI1 = 0x11dc
                    0x11dc                  _PG4FFPCI1bits = 0x11dc
                    0x11e0                  PG4FFPCI2 = 0x11e0
                    0x11e0                  _PG4FFPCI2 = 0x11e0
                    0x11e4                  PG4SPCI1 = 0x11e4
                    0x11e4                  _PG4SPCI1 = 0x11e4
                    0x11e4                  _PG4SPCI1bits = 0x11e4
                    0x11e8                  PG4SPCI2 = 0x11e8
                    0x11e8                  _PG4SPCI2 = 0x11e8
                    0x11ec                  PG4LEB = 0x11ec
                    0x11ec                  _PG4LEB = 0x11ec
                    0x11ec                  _PG4LEBbits = 0x11ec
                    0x11f0                  PG4PHASE = 0x11f0
                    0x11f0                  _PG4PHASE = 0x11f0
                    0x11f0                  _PG4PHASEbits = 0x11f0
                    0x11f4                  PG4DC = 0x11f4
                    0x11f4                  _PG4DC = 0x11f4
                    0x11f4                  _PG4DCbits = 0x11f4
                    0x11f8                  PG4DCA = 0x11f8
                    0x11f8                  _PG4DCA = 0x11f8
                    0x11f8                  _PG4DCAbits = 0x11f8
                    0x11fc                  PG4PER = 0x11fc
                    0x11fc                  _PG4PER = 0x11fc
                    0x11fc                  _PG4PERbits = 0x11fc
                    0x1200                  PG4TRIGA = 0x1200
                    0x1200                  _PG4TRIGA = 0x1200
                    0x1200                  _PG4TRIGAbits = 0x1200
                    0x1204                  PG4TRIGB = 0x1204
                    0x1204                  _PG4TRIGB = 0x1204
                    0x1204                  _PG4TRIGBbits = 0x1204
                    0x1208                  PG4TRIGC = 0x1208
                    0x1208                  _PG4TRIGC = 0x1208
                    0x1208                  _PG4TRIGCbits = 0x1208
                    0x120c                  PG4TRIGD = 0x120c
                    0x120c                  _PG4TRIGD = 0x120c
                    0x120c                  _PG4TRIGDbits = 0x120c
                    0x1210                  PG4TRIGE = 0x1210
                    0x1210                  _PG4TRIGE = 0x1210
                    0x1210                  _PG4TRIGEbits = 0x1210
                    0x1214                  PG4TRIGF = 0x1214
                    0x1214                  _PG4TRIGF = 0x1214
                    0x1214                  _PG4TRIGFbits = 0x1214
                    0x1218                  PG4DT = 0x1218
                    0x1218                  _PG4DT = 0x1218
                    0x1218                  _PG4DTbits = 0x1218
                    0x121c                  PG4CAP = 0x121c
                    0x121c                  _PG4CAP = 0x121c
                    0x121c                  _PG4CAPbits = 0x121c
                    0x1220                  PG5CON = 0x1220
                    0x1220                  _PG5CON = 0x1220
                    0x1220                  _PG5CONbits = 0x1220
                    0x1224                  PG5STAT = 0x1224
                    0x1224                  _PG5STAT = 0x1224
                    0x1224                  _PG5STATbits = 0x1224
                    0x1228                  PG5IOCON1 = 0x1228
                    0x1228                  _PG5IOCON1 = 0x1228
                    0x1228                  _PG5IOCON1bits = 0x1228
                    0x122c                  PG5IOCON2 = 0x122c
                    0x122c                  _PG5IOCON2 = 0x122c
                    0x122c                  _PG5IOCON2bits = 0x122c
                    0x1230                  PG5EVT1 = 0x1230
                    0x1230                  _PG5EVT1 = 0x1230
                    0x1230                  _PG5EVT1bits = 0x1230
                    0x1234                  PG5EVT2 = 0x1234
                    0x1234                  _PG5EVT2 = 0x1234
                    0x1234                  _PG5EVT2bits = 0x1234
                    0x1238                  PG5F1PCI1 = 0x1238
                    0x1238                  _PG5F1PCI1 = 0x1238
                    0x1238                  _PG5F1PCI1bits = 0x1238
                    0x123c                  PG5F1PCI2 = 0x123c
                    0x123c                  _PG5F1PCI2 = 0x123c
                    0x1240                  PG5F2PCI1 = 0x1240
                    0x1240                  _PG5F2PCI1 = 0x1240
                    0x1240                  _PG5F2PCI1bits = 0x1240
                    0x1244                  PG5F2PCI2 = 0x1244
                    0x1244                  _PG5F2PCI2 = 0x1244
                    0x1248                  PG5CLPCI1 = 0x1248
                    0x1248                  _PG5CLPCI1 = 0x1248
                    0x1248                  _PG5CLPCI1bits = 0x1248
                    0x124c                  PG5CLPCI2 = 0x124c
                    0x124c                  _PG5CLPCI2 = 0x124c
                    0x1250                  PG5FFPCI1 = 0x1250
                    0x1250                  _PG5FFPCI1 = 0x1250
                    0x1250                  _PG5FFPCI1bits = 0x1250
                    0x1254                  PG5FFPCI2 = 0x1254
                    0x1254                  _PG5FFPCI2 = 0x1254
                    0x1258                  PG5SPCI1 = 0x1258
                    0x1258                  _PG5SPCI1 = 0x1258
                    0x1258                  _PG5SPCI1bits = 0x1258
                    0x125c                  PG5SPCI2 = 0x125c
                    0x125c                  _PG5SPCI2 = 0x125c
                    0x1260                  PG5LEB = 0x1260
                    0x1260                  _PG5LEB = 0x1260
                    0x1260                  _PG5LEBbits = 0x1260
                    0x1264                  PG5PHASE = 0x1264
                    0x1264                  _PG5PHASE = 0x1264
                    0x1264                  _PG5PHASEbits = 0x1264
                    0x1268                  PG5DC = 0x1268
                    0x1268                  _PG5DC = 0x1268
                    0x1268                  _PG5DCbits = 0x1268
                    0x126c                  PG5DCA = 0x126c
                    0x126c                  _PG5DCA = 0x126c
                    0x126c                  _PG5DCAbits = 0x126c
                    0x1270                  PG5PER = 0x1270
                    0x1270                  _PG5PER = 0x1270
                    0x1270                  _PG5PERbits = 0x1270
                    0x1274                  PG5TRIGA = 0x1274
                    0x1274                  _PG5TRIGA = 0x1274
                    0x1274                  _PG5TRIGAbits = 0x1274
                    0x1278                  PG5TRIGB = 0x1278
                    0x1278                  _PG5TRIGB = 0x1278
                    0x1278                  _PG5TRIGBbits = 0x1278
                    0x127c                  PG5TRIGC = 0x127c
                    0x127c                  _PG5TRIGC = 0x127c
                    0x127c                  _PG5TRIGCbits = 0x127c
                    0x1280                  PG5TRIGD = 0x1280
                    0x1280                  _PG5TRIGD = 0x1280
                    0x1280                  _PG5TRIGDbits = 0x1280
                    0x1284                  PG5TRIGE = 0x1284
                    0x1284                  _PG5TRIGE = 0x1284
                    0x1284                  _PG5TRIGEbits = 0x1284
                    0x1288                  PG5TRIGF = 0x1288
                    0x1288                  _PG5TRIGF = 0x1288
                    0x1288                  _PG5TRIGFbits = 0x1288
                    0x128c                  PG5DT = 0x128c
                    0x128c                  _PG5DT = 0x128c
                    0x128c                  _PG5DTbits = 0x128c
                    0x1290                  PG5CAP = 0x1290
                    0x1290                  _PG5CAP = 0x1290
                    0x1290                  _PG5CAPbits = 0x1290
                    0x1294                  PG6CON = 0x1294
                    0x1294                  _PG6CON = 0x1294
                    0x1294                  _PG6CONbits = 0x1294
                    0x1298                  PG6STAT = 0x1298
                    0x1298                  _PG6STAT = 0x1298
                    0x1298                  _PG6STATbits = 0x1298
                    0x129c                  PG6IOCON1 = 0x129c
                    0x129c                  _PG6IOCON1 = 0x129c
                    0x129c                  _PG6IOCON1bits = 0x129c
                    0x12a0                  PG6IOCON2 = 0x12a0
                    0x12a0                  _PG6IOCON2 = 0x12a0
                    0x12a0                  _PG6IOCON2bits = 0x12a0
                    0x12a4                  PG6EVT1 = 0x12a4
                    0x12a4                  _PG6EVT1 = 0x12a4
                    0x12a4                  _PG6EVT1bits = 0x12a4
                    0x12a8                  PG6EVT2 = 0x12a8
                    0x12a8                  _PG6EVT2 = 0x12a8
                    0x12a8                  _PG6EVT2bits = 0x12a8
                    0x12ac                  PG6F1PCI1 = 0x12ac
                    0x12ac                  _PG6F1PCI1 = 0x12ac
                    0x12ac                  _PG6F1PCI1bits = 0x12ac
                    0x12b0                  PG6F1PCI2 = 0x12b0
                    0x12b0                  _PG6F1PCI2 = 0x12b0
                    0x12b4                  PG6F2PCI1 = 0x12b4
                    0x12b4                  _PG6F2PCI1 = 0x12b4
                    0x12b4                  _PG6F2PCI1bits = 0x12b4
                    0x12b8                  PG6F2PCI2 = 0x12b8
                    0x12b8                  _PG6F2PCI2 = 0x12b8
                    0x12bc                  PG6CLPCI1 = 0x12bc
                    0x12bc                  _PG6CLPCI1 = 0x12bc
                    0x12bc                  _PG6CLPCI1bits = 0x12bc
                    0x12c0                  PG6CLPCI2 = 0x12c0
                    0x12c0                  _PG6CLPCI2 = 0x12c0
                    0x12c4                  PG6FFPCI1 = 0x12c4
                    0x12c4                  _PG6FFPCI1 = 0x12c4
                    0x12c4                  _PG6FFPCI1bits = 0x12c4
                    0x12c8                  PG6FFPCI2 = 0x12c8
                    0x12c8                  _PG6FFPCI2 = 0x12c8
                    0x12cc                  PG6SPCI1 = 0x12cc
                    0x12cc                  _PG6SPCI1 = 0x12cc
                    0x12cc                  _PG6SPCI1bits = 0x12cc
                    0x12d0                  PG6SPCI2 = 0x12d0
                    0x12d0                  _PG6SPCI2 = 0x12d0
                    0x12d4                  PG6LEB = 0x12d4
                    0x12d4                  _PG6LEB = 0x12d4
                    0x12d4                  _PG6LEBbits = 0x12d4
                    0x12d8                  PG6PHASE = 0x12d8
                    0x12d8                  _PG6PHASE = 0x12d8
                    0x12d8                  _PG6PHASEbits = 0x12d8
                    0x12dc                  PG6DC = 0x12dc
                    0x12dc                  _PG6DC = 0x12dc
                    0x12dc                  _PG6DCbits = 0x12dc
                    0x12e0                  PG6DCA = 0x12e0
                    0x12e0                  _PG6DCA = 0x12e0
                    0x12e0                  _PG6DCAbits = 0x12e0
                    0x12e4                  PG6PER = 0x12e4
                    0x12e4                  _PG6PER = 0x12e4
                    0x12e4                  _PG6PERbits = 0x12e4
                    0x12e8                  PG6TRIGA = 0x12e8
                    0x12e8                  _PG6TRIGA = 0x12e8
                    0x12e8                  _PG6TRIGAbits = 0x12e8
                    0x12ec                  PG6TRIGB = 0x12ec
                    0x12ec                  _PG6TRIGB = 0x12ec
                    0x12ec                  _PG6TRIGBbits = 0x12ec
                    0x12f0                  PG6TRIGC = 0x12f0
                    0x12f0                  _PG6TRIGC = 0x12f0
                    0x12f0                  _PG6TRIGCbits = 0x12f0
                    0x12f4                  PG6TRIGD = 0x12f4
                    0x12f4                  _PG6TRIGD = 0x12f4
                    0x12f4                  _PG6TRIGDbits = 0x12f4
                    0x12f8                  PG6TRIGE = 0x12f8
                    0x12f8                  _PG6TRIGE = 0x12f8
                    0x12f8                  _PG6TRIGEbits = 0x12f8
                    0x12fc                  PG6TRIGF = 0x12fc
                    0x12fc                  _PG6TRIGF = 0x12fc
                    0x12fc                  _PG6TRIGFbits = 0x12fc
                    0x1300                  PG6DT = 0x1300
                    0x1300                  _PG6DT = 0x1300
                    0x1300                  _PG6DTbits = 0x1300
                    0x1304                  PG6CAP = 0x1304
                    0x1304                  _PG6CAP = 0x1304
                    0x1304                  _PG6CAPbits = 0x1304
                    0x1308                  PG7CON = 0x1308
                    0x1308                  _PG7CON = 0x1308
                    0x1308                  _PG7CONbits = 0x1308
                    0x130c                  PG7STAT = 0x130c
                    0x130c                  _PG7STAT = 0x130c
                    0x130c                  _PG7STATbits = 0x130c
                    0x1310                  PG7IOCON1 = 0x1310
                    0x1310                  _PG7IOCON1 = 0x1310
                    0x1310                  _PG7IOCON1bits = 0x1310
                    0x1314                  PG7IOCON2 = 0x1314
                    0x1314                  _PG7IOCON2 = 0x1314
                    0x1314                  _PG7IOCON2bits = 0x1314
                    0x1318                  PG7EVT1 = 0x1318
                    0x1318                  _PG7EVT1 = 0x1318
                    0x1318                  _PG7EVT1bits = 0x1318
                    0x131c                  PG7EVT2 = 0x131c
                    0x131c                  _PG7EVT2 = 0x131c
                    0x131c                  _PG7EVT2bits = 0x131c
                    0x1320                  PG7F1PCI1 = 0x1320
                    0x1320                  _PG7F1PCI1 = 0x1320
                    0x1320                  _PG7F1PCI1bits = 0x1320
                    0x1324                  PG7F1PCI2 = 0x1324
                    0x1324                  _PG7F1PCI2 = 0x1324
                    0x1328                  PG7F2PCI1 = 0x1328
                    0x1328                  _PG7F2PCI1 = 0x1328
                    0x1328                  _PG7F2PCI1bits = 0x1328
                    0x132c                  PG7F2PCI2 = 0x132c
                    0x132c                  _PG7F2PCI2 = 0x132c
                    0x1330                  PG7CLPCI1 = 0x1330
                    0x1330                  _PG7CLPCI1 = 0x1330
                    0x1330                  _PG7CLPCI1bits = 0x1330
                    0x1334                  PG7CLPCI2 = 0x1334
                    0x1334                  _PG7CLPCI2 = 0x1334
                    0x1338                  PG7FFPCI1 = 0x1338
                    0x1338                  _PG7FFPCI1 = 0x1338
                    0x1338                  _PG7FFPCI1bits = 0x1338
                    0x133c                  PG7FFPCI2 = 0x133c
                    0x133c                  _PG7FFPCI2 = 0x133c
                    0x1340                  PG7SPCI1 = 0x1340
                    0x1340                  _PG7SPCI1 = 0x1340
                    0x1340                  _PG7SPCI1bits = 0x1340
                    0x1344                  PG7SPCI2 = 0x1344
                    0x1344                  _PG7SPCI2 = 0x1344
                    0x1348                  PG7LEB = 0x1348
                    0x1348                  _PG7LEB = 0x1348
                    0x1348                  _PG7LEBbits = 0x1348
                    0x134c                  PG7PHASE = 0x134c
                    0x134c                  _PG7PHASE = 0x134c
                    0x134c                  _PG7PHASEbits = 0x134c
                    0x1350                  PG7DC = 0x1350
                    0x1350                  _PG7DC = 0x1350
                    0x1350                  _PG7DCbits = 0x1350
                    0x1354                  PG7DCA = 0x1354
                    0x1354                  _PG7DCA = 0x1354
                    0x1354                  _PG7DCAbits = 0x1354
                    0x1358                  PG7PER = 0x1358
                    0x1358                  _PG7PER = 0x1358
                    0x1358                  _PG7PERbits = 0x1358
                    0x135c                  PG7TRIGA = 0x135c
                    0x135c                  _PG7TRIGA = 0x135c
                    0x135c                  _PG7TRIGAbits = 0x135c
                    0x1360                  PG7TRIGB = 0x1360
                    0x1360                  _PG7TRIGB = 0x1360
                    0x1360                  _PG7TRIGBbits = 0x1360
                    0x1364                  PG7TRIGC = 0x1364
                    0x1364                  _PG7TRIGC = 0x1364
                    0x1364                  _PG7TRIGCbits = 0x1364
                    0x1368                  PG7TRIGD = 0x1368
                    0x1368                  _PG7TRIGD = 0x1368
                    0x1368                  _PG7TRIGDbits = 0x1368
                    0x136c                  PG7TRIGE = 0x136c
                    0x136c                  _PG7TRIGE = 0x136c
                    0x136c                  _PG7TRIGEbits = 0x136c
                    0x1370                  PG7TRIGF = 0x1370
                    0x1370                  _PG7TRIGF = 0x1370
                    0x1370                  _PG7TRIGFbits = 0x1370
                    0x1374                  PG7DT = 0x1374
                    0x1374                  _PG7DT = 0x1374
                    0x1374                  _PG7DTbits = 0x1374
                    0x1378                  PG7CAP = 0x1378
                    0x1378                  _PG7CAP = 0x1378
                    0x1378                  _PG7CAPbits = 0x1378
                    0x137c                  PG8CON = 0x137c
                    0x137c                  _PG8CON = 0x137c
                    0x137c                  _PG8CONbits = 0x137c
                    0x1380                  PG8STAT = 0x1380
                    0x1380                  _PG8STAT = 0x1380
                    0x1380                  _PG8STATbits = 0x1380
                    0x1384                  PG8IOCON1 = 0x1384
                    0x1384                  _PG8IOCON1 = 0x1384
                    0x1384                  _PG8IOCON1bits = 0x1384
                    0x1388                  PG8IOCON2 = 0x1388
                    0x1388                  _PG8IOCON2 = 0x1388
                    0x1388                  _PG8IOCON2bits = 0x1388
                    0x138c                  PG8EVT1 = 0x138c
                    0x138c                  _PG8EVT1 = 0x138c
                    0x138c                  _PG8EVT1bits = 0x138c
                    0x1390                  PG8EVT2 = 0x1390
                    0x1390                  _PG8EVT2 = 0x1390
                    0x1390                  _PG8EVT2bits = 0x1390
                    0x1394                  PG8F1PCI1 = 0x1394
                    0x1394                  _PG8F1PCI1 = 0x1394
                    0x1394                  _PG8F1PCI1bits = 0x1394
                    0x1398                  PG8F1PCI2 = 0x1398
                    0x1398                  _PG8F1PCI2 = 0x1398
                    0x139c                  PG8F2PCI1 = 0x139c
                    0x139c                  _PG8F2PCI1 = 0x139c
                    0x139c                  _PG8F2PCI1bits = 0x139c
                    0x13a0                  PG8F2PCI2 = 0x13a0
                    0x13a0                  _PG8F2PCI2 = 0x13a0
                    0x13a4                  PG8CLPCI1 = 0x13a4
                    0x13a4                  _PG8CLPCI1 = 0x13a4
                    0x13a4                  _PG8CLPCI1bits = 0x13a4
                    0x13a8                  PG8CLPCI2 = 0x13a8
                    0x13a8                  _PG8CLPCI2 = 0x13a8
                    0x13ac                  PG8FFPCI1 = 0x13ac
                    0x13ac                  _PG8FFPCI1 = 0x13ac
                    0x13ac                  _PG8FFPCI1bits = 0x13ac
                    0x13b0                  PG8FFPCI2 = 0x13b0
                    0x13b0                  _PG8FFPCI2 = 0x13b0
                    0x13b4                  PG8SPCI1 = 0x13b4
                    0x13b4                  _PG8SPCI1 = 0x13b4
                    0x13b4                  _PG8SPCI1bits = 0x13b4
                    0x13b8                  PG8SPCI2 = 0x13b8
                    0x13b8                  _PG8SPCI2 = 0x13b8
                    0x13bc                  PG8LEB = 0x13bc
                    0x13bc                  _PG8LEB = 0x13bc
                    0x13bc                  _PG8LEBbits = 0x13bc
                    0x13c0                  PG8PHASE = 0x13c0
                    0x13c0                  _PG8PHASE = 0x13c0
                    0x13c0                  _PG8PHASEbits = 0x13c0
                    0x13c4                  PG8DC = 0x13c4
                    0x13c4                  _PG8DC = 0x13c4
                    0x13c4                  _PG8DCbits = 0x13c4
                    0x13c8                  PG8DCA = 0x13c8
                    0x13c8                  _PG8DCA = 0x13c8
                    0x13c8                  _PG8DCAbits = 0x13c8
                    0x13cc                  PG8PER = 0x13cc
                    0x13cc                  _PG8PER = 0x13cc
                    0x13cc                  _PG8PERbits = 0x13cc
                    0x13d0                  PG8TRIGA = 0x13d0
                    0x13d0                  _PG8TRIGA = 0x13d0
                    0x13d0                  _PG8TRIGAbits = 0x13d0
                    0x13d4                  PG8TRIGB = 0x13d4
                    0x13d4                  _PG8TRIGB = 0x13d4
                    0x13d4                  _PG8TRIGBbits = 0x13d4
                    0x13d8                  PG8TRIGC = 0x13d8
                    0x13d8                  _PG8TRIGC = 0x13d8
                    0x13d8                  _PG8TRIGCbits = 0x13d8
                    0x13dc                  PG8TRIGD = 0x13dc
                    0x13dc                  _PG8TRIGD = 0x13dc
                    0x13dc                  _PG8TRIGDbits = 0x13dc
                    0x13e0                  PG8TRIGE = 0x13e0
                    0x13e0                  _PG8TRIGE = 0x13e0
                    0x13e0                  _PG8TRIGEbits = 0x13e0
                    0x13e4                  PG8TRIGF = 0x13e4
                    0x13e4                  _PG8TRIGF = 0x13e4
                    0x13e4                  _PG8TRIGFbits = 0x13e4
                    0x13e8                  PG8DT = 0x13e8
                    0x13e8                  _PG8DT = 0x13e8
                    0x13e8                  _PG8DTbits = 0x13e8
                    0x13ec                  PG8CAP = 0x13ec
                    0x13ec                  _PG8CAP = 0x13ec
                    0x13ec                  _PG8CAPbits = 0x13ec
                    0x1400                  APCLKCON = 0x1400
                    0x1400                  _APCLKCON = 0x1400
                    0x1400                  _APCLKCONbits = 0x1400
                    0x1404                  AFSCL = 0x1404
                    0x1404                  _AFSCL = 0x1404
                    0x1404                  _AFSCLbits = 0x1404
                    0x1408                  AFSMINPER = 0x1408
                    0x1408                  _AFSMINPER = 0x1408
                    0x1408                  _AFSMINPERbits = 0x1408
                    0x140c                  AMPHASE = 0x140c
                    0x140c                  _AMPHASE = 0x140c
                    0x140c                  _AMPHASEbits = 0x140c
                    0x1410                  AMDC = 0x1410
                    0x1410                  _AMDC = 0x1410
                    0x1410                  _AMDCbits = 0x1410
                    0x1414                  AMPER = 0x1414
                    0x1414                  _AMPER = 0x1414
                    0x1414                  _AMPERbits = 0x1414
                    0x1418                  ALFSR = 0x1418
                    0x1418                  _ALFSR = 0x1418
                    0x1418                  _ALFSRbits = 0x1418
                    0x141c                  ACMBTRIG = 0x141c
                    0x141c                  _ACMBTRIG = 0x141c
                    0x141c                  _ACMBTRIGbits = 0x141c
                    0x1420                  ALOGCONA = 0x1420
                    0x1420                  _ALOGCONA = 0x1420
                    0x1420                  _ALOGCONAbits = 0x1420
                    0x1424                  ALOGCONB = 0x1424
                    0x1424                  _ALOGCONB = 0x1424
                    0x1424                  _ALOGCONBbits = 0x1424
                    0x1428                  APWMEVTA = 0x1428
                    0x1428                  _APWMEVTA = 0x1428
                    0x1428                  _APWMEVTAbits = 0x1428
                    0x142c                  APWMEVTB = 0x142c
                    0x142c                  _APWMEVTB = 0x142c
                    0x142c                  _APWMEVTBbits = 0x142c
                    0x1430                  APWMEVTC = 0x1430
                    0x1430                  _APWMEVTC = 0x1430
                    0x1430                  _APWMEVTCbits = 0x1430
                    0x1434                  APWMEVTD = 0x1434
                    0x1434                  _APWMEVTD = 0x1434
                    0x1434                  _APWMEVTDbits = 0x1434
                    0x1438                  APG1CON = 0x1438
                    0x1438                  _APG1CON = 0x1438
                    0x1438                  _APG1CONbits = 0x1438
                    0x143c                  APG1STAT = 0x143c
                    0x143c                  _APG1STAT = 0x143c
                    0x143c                  _APG1STATbits = 0x143c
                    0x1440                  APG1IOCON1 = 0x1440
                    0x1440                  _APG1IOCON1 = 0x1440
                    0x1440                  _APG1IOCON1bits = 0x1440
                    0x1444                  APG1IOCON2 = 0x1444
                    0x1444                  _APG1IOCON2 = 0x1444
                    0x1444                  _APG1IOCON2bits = 0x1444
                    0x1448                  APG1EVT1 = 0x1448
                    0x1448                  _APG1EVT1 = 0x1448
                    0x1448                  _APG1EVT1bits = 0x1448
                    0x144c                  APG1EVT2 = 0x144c
                    0x144c                  _APG1EVT2 = 0x144c
                    0x144c                  _APG1EVT2bits = 0x144c
                    0x1450                  APG1F1PCI1 = 0x1450
                    0x1450                  _APG1F1PCI1 = 0x1450
                    0x1450                  _APG1F1PCI1bits = 0x1450
                    0x1454                  APG1F1PCI2 = 0x1454
                    0x1454                  _APG1F1PCI2 = 0x1454
                    0x1458                  APG1F2PCI1 = 0x1458
                    0x1458                  _APG1F2PCI1 = 0x1458
                    0x1458                  _APG1F2PCI1bits = 0x1458
                    0x145c                  APG1F2PCI2 = 0x145c
                    0x145c                  _APG1F2PCI2 = 0x145c
                    0x1460                  APG1CLPCI1 = 0x1460
                    0x1460                  _APG1CLPCI1 = 0x1460
                    0x1460                  _APG1CLPCI1bits = 0x1460
                    0x1464                  APG1CLPCI2 = 0x1464
                    0x1464                  _APG1CLPCI2 = 0x1464
                    0x1468                  APG1FFPCI1 = 0x1468
                    0x1468                  _APG1FFPCI1 = 0x1468
                    0x1468                  _APG1FFPCI1bits = 0x1468
                    0x146c                  APG1FFPCI2 = 0x146c
                    0x146c                  _APG1FFPCI2 = 0x146c
                    0x1470                  APG1SPCI1 = 0x1470
                    0x1470                  _APG1SPCI1 = 0x1470
                    0x1470                  _APG1SPCI1bits = 0x1470
                    0x1474                  APG1SPCI2 = 0x1474
                    0x1474                  _APG1SPCI2 = 0x1474
                    0x1478                  APG1LEB = 0x1478
                    0x1478                  _APG1LEB = 0x1478
                    0x1478                  _APG1LEBbits = 0x1478
                    0x147c                  APG1PHASE = 0x147c
                    0x147c                  _APG1PHASE = 0x147c
                    0x147c                  _APG1PHASEbits = 0x147c
                    0x1480                  APG1DC = 0x1480
                    0x1480                  _APG1DC = 0x1480
                    0x1480                  _APG1DCbits = 0x1480
                    0x1484                  APG1DCA = 0x1484
                    0x1484                  _APG1DCA = 0x1484
                    0x1484                  _APG1DCAbits = 0x1484
                    0x1488                  APG1PER = 0x1488
                    0x1488                  _APG1PER = 0x1488
                    0x1488                  _APG1PERbits = 0x1488
                    0x148c                  APG1TRIGA = 0x148c
                    0x148c                  _APG1TRIGA = 0x148c
                    0x148c                  _APG1TRIGAbits = 0x148c
                    0x1490                  APG1TRIGB = 0x1490
                    0x1490                  _APG1TRIGB = 0x1490
                    0x1490                  _APG1TRIGBbits = 0x1490
                    0x1494                  APG1TRIGC = 0x1494
                    0x1494                  _APG1TRIGC = 0x1494
                    0x1494                  _APG1TRIGCbits = 0x1494
                    0x1498                  APG1TRIGD = 0x1498
                    0x1498                  _APG1TRIGD = 0x1498
                    0x1498                  _APG1TRIGDbits = 0x1498
                    0x149c                  APG1TRIGE = 0x149c
                    0x149c                  _APG1TRIGE = 0x149c
                    0x149c                  _APG1TRIGEbits = 0x149c
                    0x14a0                  APG1TRIGF = 0x14a0
                    0x14a0                  _APG1TRIGF = 0x14a0
                    0x14a0                  _APG1TRIGFbits = 0x14a0
                    0x14a4                  APG1DT = 0x14a4
                    0x14a4                  _APG1DT = 0x14a4
                    0x14a4                  _APG1DTbits = 0x14a4
                    0x14a8                  APG1CAP = 0x14a8
                    0x14a8                  _APG1CAP = 0x14a8
                    0x14a8                  _APG1CAPbits = 0x14a8
                    0x14ac                  APG2CON = 0x14ac
                    0x14ac                  _APG2CON = 0x14ac
                    0x14ac                  _APG2CONbits = 0x14ac
                    0x14b0                  APG2STAT = 0x14b0
                    0x14b0                  _APG2STAT = 0x14b0
                    0x14b0                  _APG2STATbits = 0x14b0
                    0x14b4                  APG2IOCON1 = 0x14b4
                    0x14b4                  _APG2IOCON1 = 0x14b4
                    0x14b4                  _APG2IOCON1bits = 0x14b4
                    0x14b8                  APG2IOCON2 = 0x14b8
                    0x14b8                  _APG2IOCON2 = 0x14b8
                    0x14b8                  _APG2IOCON2bits = 0x14b8
                    0x14bc                  APG2EVT1 = 0x14bc
                    0x14bc                  _APG2EVT1 = 0x14bc
                    0x14bc                  _APG2EVT1bits = 0x14bc
                    0x14c0                  APG2EVT2 = 0x14c0
                    0x14c0                  _APG2EVT2 = 0x14c0
                    0x14c0                  _APG2EVT2bits = 0x14c0
                    0x14c4                  APG2F1PCI1 = 0x14c4
                    0x14c4                  _APG2F1PCI1 = 0x14c4
                    0x14c4                  _APG2F1PCI1bits = 0x14c4
                    0x14c8                  APG2F1PCI2 = 0x14c8
                    0x14c8                  _APG2F1PCI2 = 0x14c8
                    0x14cc                  APG2F2PCI1 = 0x14cc
                    0x14cc                  _APG2F2PCI1 = 0x14cc
                    0x14cc                  _APG2F2PCI1bits = 0x14cc
                    0x14d0                  APG2F2PCI2 = 0x14d0
                    0x14d0                  _APG2F2PCI2 = 0x14d0
                    0x14d4                  APG2CLPCI1 = 0x14d4
                    0x14d4                  _APG2CLPCI1 = 0x14d4
                    0x14d4                  _APG2CLPCI1bits = 0x14d4
                    0x14d8                  APG2CLPCI2 = 0x14d8
                    0x14d8                  _APG2CLPCI2 = 0x14d8
                    0x14dc                  APG2FFPCI1 = 0x14dc
                    0x14dc                  _APG2FFPCI1 = 0x14dc
                    0x14dc                  _APG2FFPCI1bits = 0x14dc
                    0x14e0                  APG2FFPCI2 = 0x14e0
                    0x14e0                  _APG2FFPCI2 = 0x14e0
                    0x14e4                  APG2SPCI1 = 0x14e4
                    0x14e4                  _APG2SPCI1 = 0x14e4
                    0x14e4                  _APG2SPCI1bits = 0x14e4
                    0x14e8                  APG2SPCI2 = 0x14e8
                    0x14e8                  _APG2SPCI2 = 0x14e8
                    0x14ec                  APG2LEB = 0x14ec
                    0x14ec                  _APG2LEB = 0x14ec
                    0x14ec                  _APG2LEBbits = 0x14ec
                    0x14f0                  APG2PHASE = 0x14f0
                    0x14f0                  _APG2PHASE = 0x14f0
                    0x14f0                  _APG2PHASEbits = 0x14f0
                    0x14f4                  APG2DC = 0x14f4
                    0x14f4                  _APG2DC = 0x14f4
                    0x14f4                  _APG2DCbits = 0x14f4
                    0x14f8                  APG2DCA = 0x14f8
                    0x14f8                  _APG2DCA = 0x14f8
                    0x14f8                  _APG2DCAbits = 0x14f8
                    0x14fc                  APG2PER = 0x14fc
                    0x14fc                  _APG2PER = 0x14fc
                    0x14fc                  _APG2PERbits = 0x14fc
                    0x1500                  APG2TRIGA = 0x1500
                    0x1500                  _APG2TRIGA = 0x1500
                    0x1500                  _APG2TRIGAbits = 0x1500
                    0x1504                  APG2TRIGB = 0x1504
                    0x1504                  _APG2TRIGB = 0x1504
                    0x1504                  _APG2TRIGBbits = 0x1504
                    0x1508                  APG2TRIGC = 0x1508
                    0x1508                  _APG2TRIGC = 0x1508
                    0x1508                  _APG2TRIGCbits = 0x1508
                    0x150c                  APG2TRIGD = 0x150c
                    0x150c                  _APG2TRIGD = 0x150c
                    0x150c                  _APG2TRIGDbits = 0x150c
                    0x1510                  APG2TRIGE = 0x1510
                    0x1510                  _APG2TRIGE = 0x1510
                    0x1510                  _APG2TRIGEbits = 0x1510
                    0x1514                  APG2TRIGF = 0x1514
                    0x1514                  _APG2TRIGF = 0x1514
                    0x1514                  _APG2TRIGFbits = 0x1514
                    0x1518                  APG2DT = 0x1518
                    0x1518                  _APG2DT = 0x1518
                    0x1518                  _APG2DTbits = 0x1518
                    0x151c                  APG2CAP = 0x151c
                    0x151c                  _APG2CAP = 0x151c
                    0x151c                  _APG2CAPbits = 0x151c
                    0x1520                  APG3CON = 0x1520
                    0x1520                  _APG3CON = 0x1520
                    0x1520                  _APG3CONbits = 0x1520
                    0x1524                  APG3STAT = 0x1524
                    0x1524                  _APG3STAT = 0x1524
                    0x1524                  _APG3STATbits = 0x1524
                    0x1528                  APG3IOCON1 = 0x1528
                    0x1528                  _APG3IOCON1 = 0x1528
                    0x1528                  _APG3IOCON1bits = 0x1528
                    0x152c                  APG3IOCON2 = 0x152c
                    0x152c                  _APG3IOCON2 = 0x152c
                    0x152c                  _APG3IOCON2bits = 0x152c
                    0x1530                  APG3EVT1 = 0x1530
                    0x1530                  _APG3EVT1 = 0x1530
                    0x1530                  _APG3EVT1bits = 0x1530
                    0x1534                  APG3EVT2 = 0x1534
                    0x1534                  _APG3EVT2 = 0x1534
                    0x1534                  _APG3EVT2bits = 0x1534
                    0x1538                  APG3F1PCI1 = 0x1538
                    0x1538                  _APG3F1PCI1 = 0x1538
                    0x1538                  _APG3F1PCI1bits = 0x1538
                    0x153c                  APG3F1PCI2 = 0x153c
                    0x153c                  _APG3F1PCI2 = 0x153c
                    0x1540                  APG3F2PCI1 = 0x1540
                    0x1540                  _APG3F2PCI1 = 0x1540
                    0x1540                  _APG3F2PCI1bits = 0x1540
                    0x1544                  APG3F2PCI2 = 0x1544
                    0x1544                  _APG3F2PCI2 = 0x1544
                    0x1548                  APG3CLPCI1 = 0x1548
                    0x1548                  _APG3CLPCI1 = 0x1548
                    0x1548                  _APG3CLPCI1bits = 0x1548
                    0x154c                  APG3CLPCI2 = 0x154c
                    0x154c                  _APG3CLPCI2 = 0x154c
                    0x1550                  APG3FFPCI1 = 0x1550
                    0x1550                  _APG3FFPCI1 = 0x1550
                    0x1550                  _APG3FFPCI1bits = 0x1550
                    0x1554                  APG3FFPCI2 = 0x1554
                    0x1554                  _APG3FFPCI2 = 0x1554
                    0x1558                  APG3SPCI1 = 0x1558
                    0x1558                  _APG3SPCI1 = 0x1558
                    0x1558                  _APG3SPCI1bits = 0x1558
                    0x155c                  APG3SPCI2 = 0x155c
                    0x155c                  _APG3SPCI2 = 0x155c
                    0x1560                  APG3LEB = 0x1560
                    0x1560                  _APG3LEB = 0x1560
                    0x1560                  _APG3LEBbits = 0x1560
                    0x1564                  APG3PHASE = 0x1564
                    0x1564                  _APG3PHASE = 0x1564
                    0x1564                  _APG3PHASEbits = 0x1564
                    0x1568                  APG3DC = 0x1568
                    0x1568                  _APG3DC = 0x1568
                    0x1568                  _APG3DCbits = 0x1568
                    0x156c                  APG3DCA = 0x156c
                    0x156c                  _APG3DCA = 0x156c
                    0x156c                  _APG3DCAbits = 0x156c
                    0x1570                  APG3PER = 0x1570
                    0x1570                  _APG3PER = 0x1570
                    0x1570                  _APG3PERbits = 0x1570
                    0x1574                  APG3TRIGA = 0x1574
                    0x1574                  _APG3TRIGA = 0x1574
                    0x1574                  _APG3TRIGAbits = 0x1574
                    0x1578                  APG3TRIGB = 0x1578
                    0x1578                  _APG3TRIGB = 0x1578
                    0x1578                  _APG3TRIGBbits = 0x1578
                    0x157c                  APG3TRIGC = 0x157c
                    0x157c                  _APG3TRIGC = 0x157c
                    0x157c                  _APG3TRIGCbits = 0x157c
                    0x1580                  APG3TRIGD = 0x1580
                    0x1580                  _APG3TRIGD = 0x1580
                    0x1580                  _APG3TRIGDbits = 0x1580
                    0x1584                  APG3TRIGE = 0x1584
                    0x1584                  _APG3TRIGE = 0x1584
                    0x1584                  _APG3TRIGEbits = 0x1584
                    0x1588                  APG3TRIGF = 0x1588
                    0x1588                  _APG3TRIGF = 0x1588
                    0x1588                  _APG3TRIGFbits = 0x1588
                    0x158c                  APG3DT = 0x158c
                    0x158c                  _APG3DT = 0x158c
                    0x158c                  _APG3DTbits = 0x158c
                    0x1590                  APG3CAP = 0x1590
                    0x1590                  _APG3CAP = 0x1590
                    0x1590                  _APG3CAPbits = 0x1590
                    0x1594                  APG4CON = 0x1594
                    0x1594                  _APG4CON = 0x1594
                    0x1594                  _APG4CONbits = 0x1594
                    0x1598                  APG4STAT = 0x1598
                    0x1598                  _APG4STAT = 0x1598
                    0x1598                  _APG4STATbits = 0x1598
                    0x159c                  APG4IOCON1 = 0x159c
                    0x159c                  _APG4IOCON1 = 0x159c
                    0x159c                  _APG4IOCON1bits = 0x159c
                    0x15a0                  APG4IOCON2 = 0x15a0
                    0x15a0                  _APG4IOCON2 = 0x15a0
                    0x15a0                  _APG4IOCON2bits = 0x15a0
                    0x15a4                  APG4EVT1 = 0x15a4
                    0x15a4                  _APG4EVT1 = 0x15a4
                    0x15a4                  _APG4EVT1bits = 0x15a4
                    0x15a8                  APG4EVT2 = 0x15a8
                    0x15a8                  _APG4EVT2 = 0x15a8
                    0x15a8                  _APG4EVT2bits = 0x15a8
                    0x15ac                  APG4F1PCI1 = 0x15ac
                    0x15ac                  _APG4F1PCI1 = 0x15ac
                    0x15ac                  _APG4F1PCI1bits = 0x15ac
                    0x15b0                  APG4F1PCI2 = 0x15b0
                    0x15b0                  _APG4F1PCI2 = 0x15b0
                    0x15b4                  APG4F2PCI1 = 0x15b4
                    0x15b4                  _APG4F2PCI1 = 0x15b4
                    0x15b4                  _APG4F2PCI1bits = 0x15b4
                    0x15b8                  APG4F2PCI2 = 0x15b8
                    0x15b8                  _APG4F2PCI2 = 0x15b8
                    0x15bc                  APG4CLPCI1 = 0x15bc
                    0x15bc                  _APG4CLPCI1 = 0x15bc
                    0x15bc                  _APG4CLPCI1bits = 0x15bc
                    0x15c0                  APG4CLPCI2 = 0x15c0
                    0x15c0                  _APG4CLPCI2 = 0x15c0
                    0x15c4                  APG4FFPCI1 = 0x15c4
                    0x15c4                  _APG4FFPCI1 = 0x15c4
                    0x15c4                  _APG4FFPCI1bits = 0x15c4
                    0x15c8                  APG4FFPCI2 = 0x15c8
                    0x15c8                  _APG4FFPCI2 = 0x15c8
                    0x15cc                  APG4SPCI1 = 0x15cc
                    0x15cc                  _APG4SPCI1 = 0x15cc
                    0x15cc                  _APG4SPCI1bits = 0x15cc
                    0x15d0                  APG4SPCI2 = 0x15d0
                    0x15d0                  _APG4SPCI2 = 0x15d0
                    0x15d4                  APG4LEB = 0x15d4
                    0x15d4                  _APG4LEB = 0x15d4
                    0x15d4                  _APG4LEBbits = 0x15d4
                    0x15d8                  APG4PHASE = 0x15d8
                    0x15d8                  _APG4PHASE = 0x15d8
                    0x15d8                  _APG4PHASEbits = 0x15d8
                    0x15dc                  APG4DC = 0x15dc
                    0x15dc                  _APG4DC = 0x15dc
                    0x15dc                  _APG4DCbits = 0x15dc
                    0x15e0                  APG4DCA = 0x15e0
                    0x15e0                  _APG4DCA = 0x15e0
                    0x15e0                  _APG4DCAbits = 0x15e0
                    0x15e4                  APG4PER = 0x15e4
                    0x15e4                  _APG4PER = 0x15e4
                    0x15e4                  _APG4PERbits = 0x15e4
                    0x15e8                  APG4TRIGA = 0x15e8
                    0x15e8                  _APG4TRIGA = 0x15e8
                    0x15e8                  _APG4TRIGAbits = 0x15e8
                    0x15ec                  APG4TRIGB = 0x15ec
                    0x15ec                  _APG4TRIGB = 0x15ec
                    0x15ec                  _APG4TRIGBbits = 0x15ec
                    0x15f0                  APG4TRIGC = 0x15f0
                    0x15f0                  _APG4TRIGC = 0x15f0
                    0x15f0                  _APG4TRIGCbits = 0x15f0
                    0x15f4                  APG4TRIGD = 0x15f4
                    0x15f4                  _APG4TRIGD = 0x15f4
                    0x15f4                  _APG4TRIGDbits = 0x15f4
                    0x15f8                  APG4TRIGE = 0x15f8
                    0x15f8                  _APG4TRIGE = 0x15f8
                    0x15f8                  _APG4TRIGEbits = 0x15f8
                    0x15fc                  APG4TRIGF = 0x15fc
                    0x15fc                  _APG4TRIGF = 0x15fc
                    0x15fc                  _APG4TRIGFbits = 0x15fc
                    0x1600                  APG4DT = 0x1600
                    0x1600                  _APG4DT = 0x1600
                    0x1600                  _APG4DTbits = 0x1600
                    0x1604                  APG4CAP = 0x1604
                    0x1604                  _APG4CAP = 0x1604
                    0x1604                  _APG4CAPbits = 0x1604
                    0x1700                  U1CON = 0x1700
                    0x1700                  _U1CON = 0x1700
                    0x1700                  _U1CONbits = 0x1700
                    0x1704                  U1STAT = 0x1704
                    0x1704                  _U1STAT = 0x1704
                    0x1704                  _U1STATbits = 0x1704
                    0x1708                  U1BRG = 0x1708
                    0x1708                  _U1BRG = 0x1708
                    0x1708                  _U1BRGbits = 0x1708
                    0x170c                  U1RXB = 0x170c
                    0x170c                  _U1RXB = 0x170c
                    0x170c                  _U1RXBbits = 0x170c
                    0x1710                  U1TXB = 0x1710
                    0x1710                  _U1TXB = 0x1710
                    0x1710                  _U1TXBbits = 0x1710
                    0x1714                  U1PA = 0x1714
                    0x1714                  _U1PA = 0x1714
                    0x1714                  _U1PAbits = 0x1714
                    0x1718                  U1PB = 0x1718
                    0x1718                  _U1PB = 0x1718
                    0x1718                  _U1PBbits = 0x1718
                    0x171c                  U1CHK = 0x171c
                    0x171c                  _U1CHK = 0x171c
                    0x171c                  _U1CHKbits = 0x171c
                    0x1720                  U1SCCON = 0x1720
                    0x1720                  _U1SCCON = 0x1720
                    0x1720                  _U1SCCONbits = 0x1720
                    0x1724                  U1UIR = 0x1724
                    0x1724                  _U1UIR = 0x1724
                    0x1724                  _U1UIRbits = 0x1724
                    0x1740                  U2CON = 0x1740
                    0x1740                  _U2CON = 0x1740
                    0x1740                  _U2CONbits = 0x1740
                    0x1744                  U2STAT = 0x1744
                    0x1744                  _U2STAT = 0x1744
                    0x1744                  _U2STATbits = 0x1744
                    0x1748                  U2BRG = 0x1748
                    0x1748                  _U2BRG = 0x1748
                    0x1748                  _U2BRGbits = 0x1748
                    0x174c                  U2RXB = 0x174c
                    0x174c                  _U2RXB = 0x174c
                    0x174c                  _U2RXBbits = 0x174c
                    0x1750                  U2TXB = 0x1750
                    0x1750                  _U2TXB = 0x1750
                    0x1750                  _U2TXBbits = 0x1750
                    0x1754                  U2PA = 0x1754
                    0x1754                  _U2PA = 0x1754
                    0x1754                  _U2PAbits = 0x1754
                    0x1758                  U2PB = 0x1758
                    0x1758                  _U2PB = 0x1758
                    0x1758                  _U2PBbits = 0x1758
                    0x175c                  U2CHK = 0x175c
                    0x175c                  _U2CHK = 0x175c
                    0x175c                  _U2CHKbits = 0x175c
                    0x1760                  U2SCCON = 0x1760
                    0x1760                  _U2SCCON = 0x1760
                    0x1760                  _U2SCCONbits = 0x1760
                    0x1764                  U2UIR = 0x1764
                    0x1764                  _U2UIR = 0x1764
                    0x1764                  _U2UIRbits = 0x1764
                    0x1780                  U3CON = 0x1780
                    0x1780                  _U3CON = 0x1780
                    0x1780                  _U3CONbits = 0x1780
                    0x1784                  U3STAT = 0x1784
                    0x1784                  _U3STAT = 0x1784
                    0x1784                  _U3STATbits = 0x1784
                    0x1788                  U3BRG = 0x1788
                    0x1788                  _U3BRG = 0x1788
                    0x1788                  _U3BRGbits = 0x1788
                    0x178c                  U3RXB = 0x178c
                    0x178c                  _U3RXB = 0x178c
                    0x178c                  _U3RXBbits = 0x178c
                    0x1790                  U3TXB = 0x1790
                    0x1790                  _U3TXB = 0x1790
                    0x1790                  _U3TXBbits = 0x1790
                    0x1794                  U3PA = 0x1794
                    0x1794                  _U3PA = 0x1794
                    0x1794                  _U3PAbits = 0x1794
                    0x1798                  U3PB = 0x1798
                    0x1798                  _U3PB = 0x1798
                    0x1798                  _U3PBbits = 0x1798
                    0x179c                  U3CHK = 0x179c
                    0x179c                  _U3CHK = 0x179c
                    0x179c                  _U3CHKbits = 0x179c
                    0x17a0                  U3SCCON = 0x17a0
                    0x17a0                  _U3SCCON = 0x17a0
                    0x17a0                  _U3SCCONbits = 0x17a0
                    0x17a4                  U3UIR = 0x17a4
                    0x17a4                  _U3UIR = 0x17a4
                    0x17a4                  _U3UIRbits = 0x17a4
                    0x1800                  SPI1CON1 = 0x1800
                    0x1800                  _SPI1CON1 = 0x1800
                    0x1800                  _SPI1CON1bits = 0x1800
                    0x1804                  SPI1CON2 = 0x1804
                    0x1804                  _SPI1CON2 = 0x1804
                    0x1804                  _SPI1CON2bits = 0x1804
                    0x1808                  SPI1STAT = 0x1808
                    0x1808                  _SPI1STAT = 0x1808
                    0x1808                  _SPI1STATbits = 0x1808
                    0x180c                  SPI1BUF = 0x180c
                    0x180c                  _SPI1BUF = 0x180c
                    0x1810                  SPI1BRG = 0x1810
                    0x1810                  _SPI1BRG = 0x1810
                    0x1810                  _SPI1BRGbits = 0x1810
                    0x1814                  SPI1IMSK = 0x1814
                    0x1814                  _SPI1IMSK = 0x1814
                    0x1814                  _SPI1IMSKbits = 0x1814
                    0x1818                  SPI1URDT = 0x1818
                    0x1818                  _SPI1URDT = 0x1818
                    0x1820                  SPI2CON1 = 0x1820
                    0x1820                  _SPI2CON1 = 0x1820
                    0x1820                  _SPI2CON1bits = 0x1820
                    0x1824                  SPI2CON2 = 0x1824
                    0x1824                  _SPI2CON2 = 0x1824
                    0x1824                  _SPI2CON2bits = 0x1824
                    0x1828                  SPI2STAT = 0x1828
                    0x1828                  _SPI2STAT = 0x1828
                    0x1828                  _SPI2STATbits = 0x1828
                    0x182c                  SPI2BUF = 0x182c
                    0x182c                  _SPI2BUF = 0x182c
                    0x1830                  SPI2BRG = 0x1830
                    0x1830                  _SPI2BRG = 0x1830
                    0x1830                  _SPI2BRGbits = 0x1830
                    0x1834                  SPI2IMSK = 0x1834
                    0x1834                  _SPI2IMSK = 0x1834
                    0x1834                  _SPI2IMSKbits = 0x1834
                    0x1838                  SPI2URDT = 0x1838
                    0x1838                  _SPI2URDT = 0x1838
                    0x1840                  SPI3CON1 = 0x1840
                    0x1840                  _SPI3CON1 = 0x1840
                    0x1840                  _SPI3CON1bits = 0x1840
                    0x1844                  SPI3CON2 = 0x1844
                    0x1844                  _SPI3CON2 = 0x1844
                    0x1844                  _SPI3CON2bits = 0x1844
                    0x1848                  SPI3STAT = 0x1848
                    0x1848                  _SPI3STAT = 0x1848
                    0x1848                  _SPI3STATbits = 0x1848
                    0x184c                  SPI3BUF = 0x184c
                    0x184c                  _SPI3BUF = 0x184c
                    0x1850                  SPI3BRG = 0x1850
                    0x1850                  _SPI3BRG = 0x1850
                    0x1850                  _SPI3BRGbits = 0x1850
                    0x1854                  SPI3IMSK = 0x1854
                    0x1854                  _SPI3IMSK = 0x1854
                    0x1854                  _SPI3IMSKbits = 0x1854
                    0x1858                  SPI3URDT = 0x1858
                    0x1858                  _SPI3URDT = 0x1858
                    0x1860                  SPI4CON1 = 0x1860
                    0x1860                  _SPI4CON1 = 0x1860
                    0x1860                  _SPI4CON1bits = 0x1860
                    0x1864                  SPI4CON2 = 0x1864
                    0x1864                  _SPI4CON2 = 0x1864
                    0x1864                  _SPI4CON2bits = 0x1864
                    0x1868                  SPI4STAT = 0x1868
                    0x1868                  _SPI4STAT = 0x1868
                    0x1868                  _SPI4STATbits = 0x1868
                    0x186c                  SPI4BUF = 0x186c
                    0x186c                  _SPI4BUF = 0x186c
                    0x1870                  SPI4BRG = 0x1870
                    0x1870                  _SPI4BRG = 0x1870
                    0x1870                  _SPI4BRGbits = 0x1870
                    0x1874                  SPI4IMSK = 0x1874
                    0x1874                  _SPI4IMSK = 0x1874
                    0x1874                  _SPI4IMSKbits = 0x1874
                    0x1878                  SPI4URDT = 0x1878
                    0x1878                  _SPI4URDT = 0x1878
                    0x1880                  I2C1CON1 = 0x1880
                    0x1880                  _I2C1CON1 = 0x1880
                    0x1880                  _I2C1CON1bits = 0x1880
                    0x1884                  I2C1STAT1 = 0x1884
                    0x1884                  _I2C1STAT1 = 0x1884
                    0x1884                  _I2C1STAT1bits = 0x1884
                    0x1888                  I2C1ADD = 0x1888
                    0x1888                  _I2C1ADD = 0x1888
                    0x1888                  _I2C1ADDbits = 0x1888
                    0x188c                  I2C1MSK = 0x188c
                    0x188c                  _I2C1MSK = 0x188c
                    0x188c                  _I2C1MSKbits = 0x188c
                    0x1890                  I2C1HBRG = 0x1890
                    0x1890                  _I2C1HBRG = 0x1890
                    0x1890                  _I2C1HBRGbits = 0x1890
                    0x1894                  I2C1TRN = 0x1894
                    0x1894                  _I2C1TRN = 0x1894
                    0x1894                  _I2C1TRNbits = 0x1894
                    0x1898                  I2C1RCV = 0x1898
                    0x1898                  _I2C1RCV = 0x1898
                    0x1898                  _I2C1RCVbits = 0x1898
                    0x189c                  I2C1CON2 = 0x189c
                    0x189c                  _I2C1CON2 = 0x189c
                    0x189c                  _I2C1CON2bits = 0x189c
                    0x18a0                  I2C1LBRG = 0x18a0
                    0x18a0                  _I2C1LBRG = 0x18a0
                    0x18a0                  _I2C1LBRGbits = 0x18a0
                    0x18a4                  I2C1INTC = 0x18a4
                    0x18a4                  _I2C1INTC = 0x18a4
                    0x18a4                  _I2C1INTCbits = 0x18a4
                    0x18a8                  I2C1STAT2 = 0x18a8
                    0x18a8                  _I2C1STAT2 = 0x18a8
                    0x18a8                  _I2C1STAT2bits = 0x18a8
                    0x18ac                  I2C1PEC = 0x18ac
                    0x18ac                  _I2C1PEC = 0x18ac
                    0x18ac                  _I2C1PECbits = 0x18ac
                    0x18b0                  I2C1BTO = 0x18b0
                    0x18b0                  _I2C1BTO = 0x18b0
                    0x18b0                  _I2C1BTObits = 0x18b0
                    0x18b4                  I2C1HBCTO = 0x18b4
                    0x18b4                  _I2C1HBCTO = 0x18b4
                    0x18b4                  _I2C1HBCTObits = 0x18b4
                    0x18b8                  I2C1CBCTO = 0x18b8
                    0x18b8                  _I2C1CBCTO = 0x18b8
                    0x18b8                  _I2C1CBCTObits = 0x18b8
                    0x18bc                  I2C1BITO = 0x18bc
                    0x18bc                  _I2C1BITO = 0x18bc
                    0x18bc                  _I2C1BITObits = 0x18bc
                    0x18c0                  I2C1SDASUT = 0x18c0
                    0x18c0                  _I2C1SDASUT = 0x18c0
                    0x18c0                  _I2C1SDASUTbits = 0x18c0
                    0x18cc                  I2C1HDLYC = 0x18cc
                    0x18cc                  _I2C1HDLYC = 0x18cc
                    0x18cc                  _I2C1HDLYCbits = 0x18cc
                    0x18d0                  I2C2CON1 = 0x18d0
                    0x18d0                  _I2C2CON1 = 0x18d0
                    0x18d0                  _I2C2CON1bits = 0x18d0
                    0x18d4                  I2C2STAT1 = 0x18d4
                    0x18d4                  _I2C2STAT1 = 0x18d4
                    0x18d4                  _I2C2STAT1bits = 0x18d4
                    0x18d8                  I2C2ADD = 0x18d8
                    0x18d8                  _I2C2ADD = 0x18d8
                    0x18d8                  _I2C2ADDbits = 0x18d8
                    0x18dc                  I2C2MSK = 0x18dc
                    0x18dc                  _I2C2MSK = 0x18dc
                    0x18dc                  _I2C2MSKbits = 0x18dc
                    0x18e0                  I2C2HBRG = 0x18e0
                    0x18e0                  _I2C2HBRG = 0x18e0
                    0x18e0                  _I2C2HBRGbits = 0x18e0
                    0x18e4                  I2C2TRN = 0x18e4
                    0x18e4                  _I2C2TRN = 0x18e4
                    0x18e4                  _I2C2TRNbits = 0x18e4
                    0x18e8                  I2C2RCV = 0x18e8
                    0x18e8                  _I2C2RCV = 0x18e8
                    0x18e8                  _I2C2RCVbits = 0x18e8
                    0x18ec                  I2C2CON2 = 0x18ec
                    0x18ec                  _I2C2CON2 = 0x18ec
                    0x18ec                  _I2C2CON2bits = 0x18ec
                    0x18f0                  I2C2LBRG = 0x18f0
                    0x18f0                  _I2C2LBRG = 0x18f0
                    0x18f0                  _I2C2LBRGbits = 0x18f0
                    0x18f4                  I2C2INTC = 0x18f4
                    0x18f4                  _I2C2INTC = 0x18f4
                    0x18f4                  _I2C2INTCbits = 0x18f4
                    0x18f8                  I2C2STAT2 = 0x18f8
                    0x18f8                  _I2C2STAT2 = 0x18f8
                    0x18f8                  _I2C2STAT2bits = 0x18f8
                    0x18fc                  I2C2PEC = 0x18fc
                    0x18fc                  _I2C2PEC = 0x18fc
                    0x18fc                  _I2C2PECbits = 0x18fc
                    0x1900                  I2C2BTO = 0x1900
                    0x1900                  _I2C2BTO = 0x1900
                    0x1900                  _I2C2BTObits = 0x1900
                    0x1904                  I2C2HBCTO = 0x1904
                    0x1904                  _I2C2HBCTO = 0x1904
                    0x1904                  _I2C2HBCTObits = 0x1904
                    0x1908                  I2C2CBCTO = 0x1908
                    0x1908                  _I2C2CBCTO = 0x1908
                    0x1908                  _I2C2CBCTObits = 0x1908
                    0x190c                  I2C2BITO = 0x190c
                    0x190c                  _I2C2BITO = 0x190c
                    0x190c                  _I2C2BITObits = 0x190c
                    0x1910                  I2C2SDASUT = 0x1910
                    0x1910                  _I2C2SDASUT = 0x1910
                    0x1910                  _I2C2SDASUTbits = 0x1910
                    0x191c                  I2C2HDLYC = 0x191c
                    0x191c                  _I2C2HDLYC = 0x191c
                    0x191c                  _I2C2HDLYCbits = 0x191c
                    0x1920                  I2C3CON1 = 0x1920
                    0x1920                  _I2C3CON1 = 0x1920
                    0x1920                  _I2C3CON1bits = 0x1920
                    0x1924                  I2C3STAT1 = 0x1924
                    0x1924                  _I2C3STAT1 = 0x1924
                    0x1924                  _I2C3STAT1bits = 0x1924
                    0x1928                  I2C3ADD = 0x1928
                    0x1928                  _I2C3ADD = 0x1928
                    0x1928                  _I2C3ADDbits = 0x1928
                    0x192c                  I2C3MSK = 0x192c
                    0x192c                  _I2C3MSK = 0x192c
                    0x192c                  _I2C3MSKbits = 0x192c
                    0x1930                  I2C3HBRG = 0x1930
                    0x1930                  _I2C3HBRG = 0x1930
                    0x1930                  _I2C3HBRGbits = 0x1930
                    0x1934                  I2C3TRN = 0x1934
                    0x1934                  _I2C3TRN = 0x1934
                    0x1934                  _I2C3TRNbits = 0x1934
                    0x1938                  I2C3RCV = 0x1938
                    0x1938                  _I2C3RCV = 0x1938
                    0x1938                  _I2C3RCVbits = 0x1938
                    0x193c                  I2C3CON2 = 0x193c
                    0x193c                  _I2C3CON2 = 0x193c
                    0x193c                  _I2C3CON2bits = 0x193c
                    0x1940                  I2C3LBRG = 0x1940
                    0x1940                  _I2C3LBRG = 0x1940
                    0x1940                  _I2C3LBRGbits = 0x1940
                    0x1944                  I2C3INTC = 0x1944
                    0x1944                  _I2C3INTC = 0x1944
                    0x1944                  _I2C3INTCbits = 0x1944
                    0x1948                  I2C3STAT2 = 0x1948
                    0x1948                  _I2C3STAT2 = 0x1948
                    0x1948                  _I2C3STAT2bits = 0x1948
                    0x194c                  I2C3PEC = 0x194c
                    0x194c                  _I2C3PEC = 0x194c
                    0x194c                  _I2C3PECbits = 0x194c
                    0x1950                  I2C3BTO = 0x1950
                    0x1950                  _I2C3BTO = 0x1950
                    0x1950                  _I2C3BTObits = 0x1950
                    0x1954                  I2C3HBCTO = 0x1954
                    0x1954                  _I2C3HBCTO = 0x1954
                    0x1954                  _I2C3HBCTObits = 0x1954
                    0x1958                  I2C3CBCTO = 0x1958
                    0x1958                  _I2C3CBCTO = 0x1958
                    0x1958                  _I2C3CBCTObits = 0x1958
                    0x195c                  I2C3BITO = 0x195c
                    0x195c                  _I2C3BITO = 0x195c
                    0x195c                  _I2C3BITObits = 0x195c
                    0x1960                  I2C3SDASUT = 0x1960
                    0x1960                  _I2C3SDASUT = 0x1960
                    0x1960                  _I2C3SDASUTbits = 0x1960
                    0x196c                  I2C3HDLYC = 0x196c
                    0x196c                  _I2C3HDLYC = 0x196c
                    0x196c                  _I2C3HDLYCbits = 0x196c
                    0x19c0                  SENT1CON1 = 0x19c0
                    0x19c0                  _SENT1CON1 = 0x19c0
                    0x19c0                  _SENT1CON1bits = 0x19c0
                    0x19c4                  SENT1CON2 = 0x19c4
                    0x19c4                  _SENT1CON2 = 0x19c4
                    0x19c4                  _SENT1CON2bits = 0x19c4
                    0x19c8                  SENT1CON3 = 0x19c8
                    0x19c8                  _SENT1CON3 = 0x19c8
                    0x19c8                  _SENT1CON3bits = 0x19c8
                    0x19cc                  SENT1STAT = 0x19cc
                    0x19cc                  _SENT1STAT = 0x19cc
                    0x19cc                  _SENT1STATbits = 0x19cc
                    0x19d0                  SENT1SYNC = 0x19d0
                    0x19d0                  _SENT1SYNC = 0x19d0
                    0x19d0                  _SENT1SYNCbits = 0x19d0
                    0x19d4                  SENT1DAT = 0x19d4
                    0x19d4                  _SENT1DAT = 0x19d4
                    0x19d4                  _SENT1DATbits = 0x19d4
                    0x19e0                  SENT2CON1 = 0x19e0
                    0x19e0                  _SENT2CON1 = 0x19e0
                    0x19e0                  _SENT2CON1bits = 0x19e0
                    0x19e4                  SENT2CON2 = 0x19e4
                    0x19e4                  _SENT2CON2 = 0x19e4
                    0x19e4                  _SENT2CON2bits = 0x19e4
                    0x19e8                  SENT2CON3 = 0x19e8
                    0x19e8                  _SENT2CON3 = 0x19e8
                    0x19e8                  _SENT2CON3bits = 0x19e8
                    0x19ec                  SENT2STAT = 0x19ec
                    0x19ec                  _SENT2STAT = 0x19ec
                    0x19ec                  _SENT2STATbits = 0x19ec
                    0x19f0                  SENT2SYNC = 0x19f0
                    0x19f0                  _SENT2SYNC = 0x19f0
                    0x19f0                  _SENT2SYNCbits = 0x19f0
                    0x19f4                  SENT2DAT = 0x19f4
                    0x19f4                  _SENT2DAT = 0x19f4
                    0x19f4                  _SENT2DATbits = 0x19f4
                    0x1a00                  QEI1CON = 0x1a00
                    0x1a00                  _QEI1CON = 0x1a00
                    0x1a00                  _QEI1CONbits = 0x1a00
                    0x1a04                  QEI1IOC = 0x1a04
                    0x1a04                  _QEI1IOC = 0x1a04
                    0x1a04                  _QEI1IOCbits = 0x1a04
                    0x1a08                  QEI1STAT = 0x1a08
                    0x1a08                  _QEI1STAT = 0x1a08
                    0x1a08                  _QEI1STATbits = 0x1a08
                    0x1a0c                  POS1CNT = 0x1a0c
                    0x1a0c                  _POS1CNT = 0x1a0c
                    0x1a10                  POS1HLD = 0x1a10
                    0x1a10                  _POS1HLD = 0x1a10
                    0x1a14                  VEL1CNT = 0x1a14
                    0x1a14                  _VEL1CNT = 0x1a14
                    0x1a18                  VEL1HLD = 0x1a18
                    0x1a18                  _VEL1HLD = 0x1a18
                    0x1a1c                  INT1TMR = 0x1a1c
                    0x1a1c                  _INT1TMR = 0x1a1c
                    0x1a20                  INT1HLD = 0x1a20
                    0x1a20                  _INT1HLD = 0x1a20
                    0x1a24                  INDX1CNT = 0x1a24
                    0x1a24                  _INDX1CNT = 0x1a24
                    0x1a28                  INDX1HLD = 0x1a28
                    0x1a28                  _INDX1HLD = 0x1a28
                    0x1a2c                  QEI1GEC = 0x1a2c
                    0x1a2c                  _QEI1GEC = 0x1a2c
                    0x1a30                  QEI1LEC = 0x1a30
                    0x1a30                  _QEI1LEC = 0x1a30
                    0x1a40                  QEI2CON = 0x1a40
                    0x1a40                  _QEI2CON = 0x1a40
                    0x1a40                  _QEI2CONbits = 0x1a40
                    0x1a44                  QEI2IOC = 0x1a44
                    0x1a44                  _QEI2IOC = 0x1a44
                    0x1a44                  _QEI2IOCbits = 0x1a44
                    0x1a48                  QEI2STAT = 0x1a48
                    0x1a48                  _QEI2STAT = 0x1a48
                    0x1a48                  _QEI2STATbits = 0x1a48
                    0x1a4c                  POS2CNT = 0x1a4c
                    0x1a4c                  _POS2CNT = 0x1a4c
                    0x1a50                  POS2HLD = 0x1a50
                    0x1a50                  _POS2HLD = 0x1a50
                    0x1a54                  VEL2CNT = 0x1a54
                    0x1a54                  _VEL2CNT = 0x1a54
                    0x1a58                  VEL2HLD = 0x1a58
                    0x1a58                  _VEL2HLD = 0x1a58
                    0x1a5c                  INT2TMR = 0x1a5c
                    0x1a5c                  _INT2TMR = 0x1a5c
                    0x1a60                  INT2HLD = 0x1a60
                    0x1a60                  _INT2HLD = 0x1a60
                    0x1a64                  INDX2CNT = 0x1a64
                    0x1a64                  _INDX2CNT = 0x1a64
                    0x1a68                  INDX2HLD = 0x1a68
                    0x1a68                  _INDX2HLD = 0x1a68
                    0x1a6c                  QEI2GEC = 0x1a6c
                    0x1a6c                  _QEI2GEC = 0x1a6c
                    0x1a70                  QEI2LEC = 0x1a70
                    0x1a70                  _QEI2LEC = 0x1a70
                    0x1a80                  QEI3CON = 0x1a80
                    0x1a80                  _QEI3CON = 0x1a80
                    0x1a80                  _QEI3CONbits = 0x1a80
                    0x1a84                  QEI3IOC = 0x1a84
                    0x1a84                  _QEI3IOC = 0x1a84
                    0x1a84                  _QEI3IOCbits = 0x1a84
                    0x1a88                  QEI3STAT = 0x1a88
                    0x1a88                  _QEI3STAT = 0x1a88
                    0x1a88                  _QEI3STATbits = 0x1a88
                    0x1a8c                  POS3CNT = 0x1a8c
                    0x1a8c                  _POS3CNT = 0x1a8c
                    0x1a90                  POS3HLD = 0x1a90
                    0x1a90                  _POS3HLD = 0x1a90
                    0x1a94                  VEL3CNT = 0x1a94
                    0x1a94                  _VEL3CNT = 0x1a94
                    0x1a98                  VEL3HLD = 0x1a98
                    0x1a98                  _VEL3HLD = 0x1a98
                    0x1a9c                  INT3TMR = 0x1a9c
                    0x1a9c                  _INT3TMR = 0x1a9c
                    0x1aa0                  INT3HLD = 0x1aa0
                    0x1aa0                  _INT3HLD = 0x1aa0
                    0x1aa4                  INDX3CNT = 0x1aa4
                    0x1aa4                  _INDX3CNT = 0x1aa4
                    0x1aa8                  INDX3HLD = 0x1aa8
                    0x1aa8                  _INDX3HLD = 0x1aa8
                    0x1aac                  QEI3GEC = 0x1aac
                    0x1aac                  _QEI3GEC = 0x1aac
                    0x1ab0                  QEI3LEC = 0x1ab0
                    0x1ab0                  _QEI3LEC = 0x1ab0
                    0x1ac0                  QEI4CON = 0x1ac0
                    0x1ac0                  _QEI4CON = 0x1ac0
                    0x1ac0                  _QEI4CONbits = 0x1ac0
                    0x1ac4                  QEI4IOC = 0x1ac4
                    0x1ac4                  _QEI4IOC = 0x1ac4
                    0x1ac4                  _QEI4IOCbits = 0x1ac4
                    0x1ac8                  QEI4STAT = 0x1ac8
                    0x1ac8                  _QEI4STAT = 0x1ac8
                    0x1ac8                  _QEI4STATbits = 0x1ac8
                    0x1acc                  POS4CNT = 0x1acc
                    0x1acc                  _POS4CNT = 0x1acc
                    0x1ad0                  POS4HLD = 0x1ad0
                    0x1ad0                  _POS4HLD = 0x1ad0
                    0x1ad4                  VEL4CNT = 0x1ad4
                    0x1ad4                  _VEL4CNT = 0x1ad4
                    0x1ad8                  VEL4HLD = 0x1ad8
                    0x1ad8                  _VEL4HLD = 0x1ad8
                    0x1adc                  INT4TMR = 0x1adc
                    0x1adc                  _INT4TMR = 0x1adc
                    0x1ae0                  INT4HLD = 0x1ae0
                    0x1ae0                  _INT4HLD = 0x1ae0
                    0x1ae4                  INDX4CNT = 0x1ae4
                    0x1ae4                  _INDX4CNT = 0x1ae4
                    0x1ae8                  INDX4HLD = 0x1ae8
                    0x1ae8                  _INDX4HLD = 0x1ae8
                    0x1aec                  QEI4GEC = 0x1aec
                    0x1aec                  _QEI4GEC = 0x1aec
                    0x1af0                  QEI4LEC = 0x1af0
                    0x1af0                  _QEI4LEC = 0x1af0
                    0x1b00                  CCP1CON1 = 0x1b00
                    0x1b00                  _CCP1CON1 = 0x1b00
                    0x1b00                  _CCP1CON1bits = 0x1b00
                    0x1b04                  CCP1CON2 = 0x1b04
                    0x1b04                  _CCP1CON2 = 0x1b04
                    0x1b04                  _CCP1CON2bits = 0x1b04
                    0x1b08                  CCP1CON3 = 0x1b08
                    0x1b08                  _CCP1CON3 = 0x1b08
                    0x1b08                  _CCP1CON3bits = 0x1b08
                    0x1b0c                  CCP1STAT = 0x1b0c
                    0x1b0c                  _CCP1STAT = 0x1b0c
                    0x1b0c                  _CCP1STATbits = 0x1b0c
                    0x1b10                  CCP1TMR = 0x1b10
                    0x1b10                  _CCP1TMR = 0x1b10
                    0x1b10                  _CCP1TMRbits = 0x1b10
                    0x1b14                  CCP1PR = 0x1b14
                    0x1b14                  _CCP1PR = 0x1b14
                    0x1b14                  _CCP1PRbits = 0x1b14
                    0x1b18                  CCP1RA = 0x1b18
                    0x1b18                  _CCP1RA = 0x1b18
                    0x1b18                  _CCP1RAbits = 0x1b18
                    0x1b1c                  CCP1RB = 0x1b1c
                    0x1b1c                  _CCP1RB = 0x1b1c
                    0x1b1c                  _CCP1RBbits = 0x1b1c
                    0x1b20                  CCP1BUF = 0x1b20
                    0x1b20                  _CCP1BUF = 0x1b20
                    0x1b20                  _CCP1BUFbits = 0x1b20
                    0x1b30                  CCP2CON1 = 0x1b30
                    0x1b30                  _CCP2CON1 = 0x1b30
                    0x1b30                  _CCP2CON1bits = 0x1b30
                    0x1b34                  CCP2CON2 = 0x1b34
                    0x1b34                  _CCP2CON2 = 0x1b34
                    0x1b34                  _CCP2CON2bits = 0x1b34
                    0x1b38                  CCP2CON3 = 0x1b38
                    0x1b38                  _CCP2CON3 = 0x1b38
                    0x1b38                  _CCP2CON3bits = 0x1b38
                    0x1b3c                  CCP2STAT = 0x1b3c
                    0x1b3c                  _CCP2STAT = 0x1b3c
                    0x1b3c                  _CCP2STATbits = 0x1b3c
                    0x1b40                  CCP2TMR = 0x1b40
                    0x1b40                  _CCP2TMR = 0x1b40
                    0x1b40                  _CCP2TMRbits = 0x1b40
                    0x1b44                  CCP2PR = 0x1b44
                    0x1b44                  _CCP2PR = 0x1b44
                    0x1b44                  _CCP2PRbits = 0x1b44
                    0x1b48                  CCP2RA = 0x1b48
                    0x1b48                  _CCP2RA = 0x1b48
                    0x1b48                  _CCP2RAbits = 0x1b48
                    0x1b4c                  CCP2RB = 0x1b4c
                    0x1b4c                  _CCP2RB = 0x1b4c
                    0x1b4c                  _CCP2RBbits = 0x1b4c
                    0x1b50                  CCP2BUF = 0x1b50
                    0x1b50                  _CCP2BUF = 0x1b50
                    0x1b50                  _CCP2BUFbits = 0x1b50
                    0x1b60                  CCP3CON1 = 0x1b60
                    0x1b60                  _CCP3CON1 = 0x1b60
                    0x1b60                  _CCP3CON1bits = 0x1b60
                    0x1b64                  CCP3CON2 = 0x1b64
                    0x1b64                  _CCP3CON2 = 0x1b64
                    0x1b64                  _CCP3CON2bits = 0x1b64
                    0x1b68                  CCP3CON3 = 0x1b68
                    0x1b68                  _CCP3CON3 = 0x1b68
                    0x1b68                  _CCP3CON3bits = 0x1b68
                    0x1b6c                  CCP3STAT = 0x1b6c
                    0x1b6c                  _CCP3STAT = 0x1b6c
                    0x1b6c                  _CCP3STATbits = 0x1b6c
                    0x1b70                  CCP3TMR = 0x1b70
                    0x1b70                  _CCP3TMR = 0x1b70
                    0x1b70                  _CCP3TMRbits = 0x1b70
                    0x1b74                  CCP3PR = 0x1b74
                    0x1b74                  _CCP3PR = 0x1b74
                    0x1b74                  _CCP3PRbits = 0x1b74
                    0x1b78                  CCP3RA = 0x1b78
                    0x1b78                  _CCP3RA = 0x1b78
                    0x1b78                  _CCP3RAbits = 0x1b78
                    0x1b7c                  CCP3RB = 0x1b7c
                    0x1b7c                  _CCP3RB = 0x1b7c
                    0x1b7c                  _CCP3RBbits = 0x1b7c
                    0x1b80                  CCP3BUF = 0x1b80
                    0x1b80                  _CCP3BUF = 0x1b80
                    0x1b80                  _CCP3BUFbits = 0x1b80
                    0x1b90                  CCP4CON1 = 0x1b90
                    0x1b90                  _CCP4CON1 = 0x1b90
                    0x1b90                  _CCP4CON1bits = 0x1b90
                    0x1b94                  CCP4CON2 = 0x1b94
                    0x1b94                  _CCP4CON2 = 0x1b94
                    0x1b94                  _CCP4CON2bits = 0x1b94
                    0x1b98                  CCP4CON3 = 0x1b98
                    0x1b98                  _CCP4CON3 = 0x1b98
                    0x1b98                  _CCP4CON3bits = 0x1b98
                    0x1b9c                  CCP4STAT = 0x1b9c
                    0x1b9c                  _CCP4STAT = 0x1b9c
                    0x1b9c                  _CCP4STATbits = 0x1b9c
                    0x1ba0                  CCP4TMR = 0x1ba0
                    0x1ba0                  _CCP4TMR = 0x1ba0
                    0x1ba0                  _CCP4TMRbits = 0x1ba0
                    0x1ba4                  CCP4PR = 0x1ba4
                    0x1ba4                  _CCP4PR = 0x1ba4
                    0x1ba4                  _CCP4PRbits = 0x1ba4
                    0x1ba8                  CCP4RA = 0x1ba8
                    0x1ba8                  _CCP4RA = 0x1ba8
                    0x1ba8                  _CCP4RAbits = 0x1ba8
                    0x1bac                  CCP4RB = 0x1bac
                    0x1bac                  _CCP4RB = 0x1bac
                    0x1bac                  _CCP4RBbits = 0x1bac
                    0x1bb0                  CCP4BUF = 0x1bb0
                    0x1bb0                  _CCP4BUF = 0x1bb0
                    0x1bb0                  _CCP4BUFbits = 0x1bb0
                    0x1bc0                  CCP5CON1 = 0x1bc0
                    0x1bc0                  _CCP5CON1 = 0x1bc0
                    0x1bc0                  _CCP5CON1bits = 0x1bc0
                    0x1bc4                  CCP5CON2 = 0x1bc4
                    0x1bc4                  _CCP5CON2 = 0x1bc4
                    0x1bc4                  _CCP5CON2bits = 0x1bc4
                    0x1bc8                  CCP5CON3 = 0x1bc8
                    0x1bc8                  _CCP5CON3 = 0x1bc8
                    0x1bc8                  _CCP5CON3bits = 0x1bc8
                    0x1bcc                  CCP5STAT = 0x1bcc
                    0x1bcc                  _CCP5STAT = 0x1bcc
                    0x1bcc                  _CCP5STATbits = 0x1bcc
                    0x1bd0                  CCP5TMR = 0x1bd0
                    0x1bd0                  _CCP5TMR = 0x1bd0
                    0x1bd0                  _CCP5TMRbits = 0x1bd0
                    0x1bd4                  CCP5PR = 0x1bd4
                    0x1bd4                  _CCP5PR = 0x1bd4
                    0x1bd4                  _CCP5PRbits = 0x1bd4
                    0x1bd8                  CCP5RA = 0x1bd8
                    0x1bd8                  _CCP5RA = 0x1bd8
                    0x1bd8                  _CCP5RAbits = 0x1bd8
                    0x1bdc                  CCP5RB = 0x1bdc
                    0x1bdc                  _CCP5RB = 0x1bdc
                    0x1bdc                  _CCP5RBbits = 0x1bdc
                    0x1be0                  CCP5BUF = 0x1be0
                    0x1be0                  _CCP5BUF = 0x1be0
                    0x1be0                  _CCP5BUFbits = 0x1be0
                    0x1bf0                  CCP6CON1 = 0x1bf0
                    0x1bf0                  _CCP6CON1 = 0x1bf0
                    0x1bf0                  _CCP6CON1bits = 0x1bf0
                    0x1bf4                  CCP6CON2 = 0x1bf4
                    0x1bf4                  _CCP6CON2 = 0x1bf4
                    0x1bf4                  _CCP6CON2bits = 0x1bf4
                    0x1bf8                  CCP6CON3 = 0x1bf8
                    0x1bf8                  _CCP6CON3 = 0x1bf8
                    0x1bf8                  _CCP6CON3bits = 0x1bf8
                    0x1bfc                  CCP6STAT = 0x1bfc
                    0x1bfc                  _CCP6STAT = 0x1bfc
                    0x1bfc                  _CCP6STATbits = 0x1bfc
                    0x1c00                  CCP6TMR = 0x1c00
                    0x1c00                  _CCP6TMR = 0x1c00
                    0x1c00                  _CCP6TMRbits = 0x1c00
                    0x1c04                  CCP6PR = 0x1c04
                    0x1c04                  _CCP6PR = 0x1c04
                    0x1c04                  _CCP6PRbits = 0x1c04
                    0x1c08                  CCP6RA = 0x1c08
                    0x1c08                  _CCP6RA = 0x1c08
                    0x1c08                  _CCP6RAbits = 0x1c08
                    0x1c0c                  CCP6RB = 0x1c0c
                    0x1c0c                  _CCP6RB = 0x1c0c
                    0x1c0c                  _CCP6RBbits = 0x1c0c
                    0x1c10                  CCP6BUF = 0x1c10
                    0x1c10                  _CCP6BUF = 0x1c10
                    0x1c10                  _CCP6BUFbits = 0x1c10
                    0x1c20                  CCP7CON1 = 0x1c20
                    0x1c20                  _CCP7CON1 = 0x1c20
                    0x1c20                  _CCP7CON1bits = 0x1c20
                    0x1c24                  CCP7CON2 = 0x1c24
                    0x1c24                  _CCP7CON2 = 0x1c24
                    0x1c24                  _CCP7CON2bits = 0x1c24
                    0x1c28                  CCP7CON3 = 0x1c28
                    0x1c28                  _CCP7CON3 = 0x1c28
                    0x1c28                  _CCP7CON3bits = 0x1c28
                    0x1c2c                  CCP7STAT = 0x1c2c
                    0x1c2c                  _CCP7STAT = 0x1c2c
                    0x1c2c                  _CCP7STATbits = 0x1c2c
                    0x1c30                  CCP7TMR = 0x1c30
                    0x1c30                  _CCP7TMR = 0x1c30
                    0x1c30                  _CCP7TMRbits = 0x1c30
                    0x1c34                  CCP7PR = 0x1c34
                    0x1c34                  _CCP7PR = 0x1c34
                    0x1c34                  _CCP7PRbits = 0x1c34
                    0x1c38                  CCP7RA = 0x1c38
                    0x1c38                  _CCP7RA = 0x1c38
                    0x1c38                  _CCP7RAbits = 0x1c38
                    0x1c3c                  CCP7RB = 0x1c3c
                    0x1c3c                  _CCP7RB = 0x1c3c
                    0x1c3c                  _CCP7RBbits = 0x1c3c
                    0x1c40                  CCP7BUF = 0x1c40
                    0x1c40                  _CCP7BUF = 0x1c40
                    0x1c40                  _CCP7BUFbits = 0x1c40
                    0x1c50                  CCP8CON1 = 0x1c50
                    0x1c50                  _CCP8CON1 = 0x1c50
                    0x1c50                  _CCP8CON1bits = 0x1c50
                    0x1c54                  CCP8CON2 = 0x1c54
                    0x1c54                  _CCP8CON2 = 0x1c54
                    0x1c54                  _CCP8CON2bits = 0x1c54
                    0x1c58                  CCP8CON3 = 0x1c58
                    0x1c58                  _CCP8CON3 = 0x1c58
                    0x1c58                  _CCP8CON3bits = 0x1c58
                    0x1c5c                  CCP8STAT = 0x1c5c
                    0x1c5c                  _CCP8STAT = 0x1c5c
                    0x1c5c                  _CCP8STATbits = 0x1c5c
                    0x1c60                  CCP8TMR = 0x1c60
                    0x1c60                  _CCP8TMR = 0x1c60
                    0x1c60                  _CCP8TMRbits = 0x1c60
                    0x1c64                  CCP8PR = 0x1c64
                    0x1c64                  _CCP8PR = 0x1c64
                    0x1c64                  _CCP8PRbits = 0x1c64
                    0x1c68                  CCP8RA = 0x1c68
                    0x1c68                  _CCP8RA = 0x1c68
                    0x1c68                  _CCP8RAbits = 0x1c68
                    0x1c6c                  CCP8RB = 0x1c6c
                    0x1c6c                  _CCP8RB = 0x1c6c
                    0x1c6c                  _CCP8RBbits = 0x1c6c
                    0x1c70                  CCP8BUF = 0x1c70
                    0x1c70                  _CCP8BUF = 0x1c70
                    0x1c70                  _CCP8BUFbits = 0x1c70
                    0x1c80                  CCP9CON1 = 0x1c80
                    0x1c80                  _CCP9CON1 = 0x1c80
                    0x1c80                  _CCP9CON1bits = 0x1c80
                    0x1c84                  CCP9CON2 = 0x1c84
                    0x1c84                  _CCP9CON2 = 0x1c84
                    0x1c84                  _CCP9CON2bits = 0x1c84
                    0x1c88                  CCP9CON3 = 0x1c88
                    0x1c88                  _CCP9CON3 = 0x1c88
                    0x1c88                  _CCP9CON3bits = 0x1c88
                    0x1c8c                  CCP9STAT = 0x1c8c
                    0x1c8c                  _CCP9STAT = 0x1c8c
                    0x1c8c                  _CCP9STATbits = 0x1c8c
                    0x1c90                  CCP9TMR = 0x1c90
                    0x1c90                  _CCP9TMR = 0x1c90
                    0x1c90                  _CCP9TMRbits = 0x1c90
                    0x1c94                  CCP9PR = 0x1c94
                    0x1c94                  _CCP9PR = 0x1c94
                    0x1c94                  _CCP9PRbits = 0x1c94
                    0x1c98                  CCP9RA = 0x1c98
                    0x1c98                  _CCP9RA = 0x1c98
                    0x1c98                  _CCP9RAbits = 0x1c98
                    0x1c9c                  CCP9RB = 0x1c9c
                    0x1c9c                  _CCP9RB = 0x1c9c
                    0x1c9c                  _CCP9RBbits = 0x1c9c
                    0x1ca0                  CCP9BUF = 0x1ca0
                    0x1ca0                  _CCP9BUF = 0x1ca0
                    0x1ca0                  _CCP9BUFbits = 0x1ca0
                    0x1ce0                  T1CON = 0x1ce0
                    0x1ce0                  _T1CON = 0x1ce0
                    0x1ce0                  _T1CONbits = 0x1ce0
                    0x1ce4                  TMR1 = 0x1ce4
                    0x1ce4                  _TMR1 = 0x1ce4
                    0x1ce8                  PR1 = 0x1ce8
                    0x1ce8                  _PR1 = 0x1ce8
                    0x1cf0                  T2CON = 0x1cf0
                    0x1cf0                  _T2CON = 0x1cf0
                    0x1cf0                  _T2CONbits = 0x1cf0
                    0x1cf4                  TMR2 = 0x1cf4
                    0x1cf4                  _TMR2 = 0x1cf4
                    0x1cf8                  PR2 = 0x1cf8
                    0x1cf8                  _PR2 = 0x1cf8
                    0x1d00                  T3CON = 0x1d00
                    0x1d00                  _T3CON = 0x1d00
                    0x1d00                  _T3CONbits = 0x1d00
                    0x1d04                  TMR3 = 0x1d04
                    0x1d04                  _TMR3 = 0x1d04
                    0x1d08                  PR3 = 0x1d08
                    0x1d08                  _PR3 = 0x1d08
                    0x1d40                  DACCTRL1 = 0x1d40
                    0x1d40                  _DACCTRL1 = 0x1d40
                    0x1d40                  _DACCTRL1bits = 0x1d40
                    0x1d44                  DACCTRL2 = 0x1d44
                    0x1d44                  _DACCTRL2 = 0x1d44
                    0x1d44                  _DACCTRL2bits = 0x1d44
                    0x1d48                  DAC1CON = 0x1d48
                    0x1d48                  _DAC1CON = 0x1d48
                    0x1d48                  _DAC1CONbits = 0x1d48
                    0x1d4c                  DAC1CMP = 0x1d4c
                    0x1d4c                  _DAC1CMP = 0x1d4c
                    0x1d4c                  _DAC1CMPbits = 0x1d4c
                    0x1d50                  DAC1DAT = 0x1d50
                    0x1d50                  _DAC1DAT = 0x1d50
                    0x1d50                  _DAC1DATbits = 0x1d50
                    0x1d54                  DAC1SLPCON = 0x1d54
                    0x1d54                  _DAC1SLPCON = 0x1d54
                    0x1d54                  _DAC1SLPCONbits = 0x1d54
                    0x1d58                  DAC1SLPDAT = 0x1d58
                    0x1d58                  _DAC1SLPDAT = 0x1d58
                    0x1d58                  _DAC1SLPDATbits = 0x1d58
                    0x1d5c                  DAC2CON = 0x1d5c
                    0x1d5c                  _DAC2CON = 0x1d5c
                    0x1d5c                  _DAC2CONbits = 0x1d5c
                    0x1d60                  DAC2CMP = 0x1d60
                    0x1d60                  _DAC2CMP = 0x1d60
                    0x1d60                  _DAC2CMPbits = 0x1d60
                    0x1d64                  DAC2DAT = 0x1d64
                    0x1d64                  _DAC2DAT = 0x1d64
                    0x1d64                  _DAC2DATbits = 0x1d64
                    0x1d68                  DAC2SLPCON = 0x1d68
                    0x1d68                  _DAC2SLPCON = 0x1d68
                    0x1d68                  _DAC2SLPCONbits = 0x1d68
                    0x1d6c                  DAC2SLPDAT = 0x1d6c
                    0x1d6c                  _DAC2SLPDAT = 0x1d6c
                    0x1d6c                  _DAC2SLPDATbits = 0x1d6c
                    0x1d70                  DAC3CON = 0x1d70
                    0x1d70                  _DAC3CON = 0x1d70
                    0x1d70                  _DAC3CONbits = 0x1d70
                    0x1d74                  DAC3CMP = 0x1d74
                    0x1d74                  _DAC3CMP = 0x1d74
                    0x1d74                  _DAC3CMPbits = 0x1d74
                    0x1d78                  DAC3DAT = 0x1d78
                    0x1d78                  _DAC3DAT = 0x1d78
                    0x1d78                  _DAC3DATbits = 0x1d78
                    0x1d7c                  DAC3SLPCON = 0x1d7c
                    0x1d7c                  _DAC3SLPCON = 0x1d7c
                    0x1d7c                  _DAC3SLPCONbits = 0x1d7c
                    0x1d80                  DAC3SLPDAT = 0x1d80
                    0x1d80                  _DAC3SLPDAT = 0x1d80
                    0x1d80                  _DAC3SLPDATbits = 0x1d80
                    0x1d84                  DAC4CON = 0x1d84
                    0x1d84                  _DAC4CON = 0x1d84
                    0x1d84                  _DAC4CONbits = 0x1d84
                    0x1d88                  DAC4CMP = 0x1d88
                    0x1d88                  _DAC4CMP = 0x1d88
                    0x1d88                  _DAC4CMPbits = 0x1d88
                    0x1d8c                  DAC4DAT = 0x1d8c
                    0x1d8c                  _DAC4DAT = 0x1d8c
                    0x1d8c                  _DAC4DATbits = 0x1d8c
                    0x1d90                  DAC4SLPCON = 0x1d90
                    0x1d90                  _DAC4SLPCON = 0x1d90
                    0x1d90                  _DAC4SLPCONbits = 0x1d90
                    0x1d94                  DAC4SLPDAT = 0x1d94
                    0x1d94                  _DAC4SLPDAT = 0x1d94
                    0x1d94                  _DAC4SLPDATbits = 0x1d94
                    0x1d98                  DAC5CON = 0x1d98
                    0x1d98                  _DAC5CON = 0x1d98
                    0x1d98                  _DAC5CONbits = 0x1d98
                    0x1d9c                  DAC5CMP = 0x1d9c
                    0x1d9c                  _DAC5CMP = 0x1d9c
                    0x1d9c                  _DAC5CMPbits = 0x1d9c
                    0x1da0                  DAC5DAT = 0x1da0
                    0x1da0                  _DAC5DAT = 0x1da0
                    0x1da0                  _DAC5DATbits = 0x1da0
                    0x1da4                  DAC5SLPCON = 0x1da4
                    0x1da4                  _DAC5SLPCON = 0x1da4
                    0x1da4                  _DAC5SLPCONbits = 0x1da4
                    0x1da8                  DAC5SLPDAT = 0x1da8
                    0x1da8                  _DAC5SLPDAT = 0x1da8
                    0x1da8                  _DAC5SLPDATbits = 0x1da8
                    0x1dac                  DAC6CON = 0x1dac
                    0x1dac                  _DAC6CON = 0x1dac
                    0x1dac                  _DAC6CONbits = 0x1dac
                    0x1db0                  DAC6CMP = 0x1db0
                    0x1db0                  _DAC6CMP = 0x1db0
                    0x1db0                  _DAC6CMPbits = 0x1db0
                    0x1db4                  DAC6DAT = 0x1db4
                    0x1db4                  _DAC6DAT = 0x1db4
                    0x1db4                  _DAC6DATbits = 0x1db4
                    0x1db8                  DAC6SLPCON = 0x1db8
                    0x1db8                  _DAC6SLPCON = 0x1db8
                    0x1db8                  _DAC6SLPCONbits = 0x1db8
                    0x1dbc                  DAC6SLPDAT = 0x1dbc
                    0x1dbc                  _DAC6SLPDAT = 0x1dbc
                    0x1dbc                  _DAC6SLPDATbits = 0x1dbc
                    0x1dc0                  DAC7CON = 0x1dc0
                    0x1dc0                  _DAC7CON = 0x1dc0
                    0x1dc0                  _DAC7CONbits = 0x1dc0
                    0x1dc4                  DAC7CMP = 0x1dc4
                    0x1dc4                  _DAC7CMP = 0x1dc4
                    0x1dc4                  _DAC7CMPbits = 0x1dc4
                    0x1dc8                  DAC7DAT = 0x1dc8
                    0x1dc8                  _DAC7DAT = 0x1dc8
                    0x1dc8                  _DAC7DATbits = 0x1dc8
                    0x1dcc                  DAC7SLPCON = 0x1dcc
                    0x1dcc                  _DAC7SLPCON = 0x1dcc
                    0x1dcc                  _DAC7SLPCONbits = 0x1dcc
                    0x1dd0                  DAC7SLPDAT = 0x1dd0
                    0x1dd0                  _DAC7SLPDAT = 0x1dd0
                    0x1dd0                  _DAC7SLPDATbits = 0x1dd0
                    0x1dd4                  DAC8CON = 0x1dd4
                    0x1dd4                  _DAC8CON = 0x1dd4
                    0x1dd4                  _DAC8CONbits = 0x1dd4
                    0x1dd8                  DAC8CMP = 0x1dd8
                    0x1dd8                  _DAC8CMP = 0x1dd8
                    0x1dd8                  _DAC8CMPbits = 0x1dd8
                    0x1ddc                  DAC8DAT = 0x1ddc
                    0x1ddc                  _DAC8DAT = 0x1ddc
                    0x1ddc                  _DAC8DATbits = 0x1ddc
                    0x1de0                  DAC8SLPCON = 0x1de0
                    0x1de0                  _DAC8SLPCON = 0x1de0
                    0x1de0                  _DAC8SLPCONbits = 0x1de0
                    0x1de4                  DAC8SLPDAT = 0x1de4
                    0x1de4                  _DAC8SLPDAT = 0x1de4
                    0x1de4                  _DAC8SLPDATbits = 0x1de4
                    0x1e10                  HPCCON = 0x1e10
                    0x1e10                  _HPCCON = 0x1e10
                    0x1e10                  _HPCCONbits = 0x1e10
                    0x1e14                  HPSEL0 = 0x1e14
                    0x1e14                  _HPSEL0 = 0x1e14
                    0x1e14                  _HPSEL0bits = 0x1e14
                    0x1e18                  HPSEL1 = 0x1e18
                    0x1e18                  _HPSEL1 = 0x1e18
                    0x1e18                  _HPSEL1bits = 0x1e18
                    0x1e20                  HPCCNTL0 = 0x1e20
                    0x1e20                  _HPCCNTL0 = 0x1e20
                    0x1e24                  HPCCNTH0 = 0x1e24
                    0x1e24                  _HPCCNTH0 = 0x1e24
                    0x1e28                  HPCCNTL1 = 0x1e28
                    0x1e28                  _HPCCNTL1 = 0x1e28
                    0x1e2c                  HPCCNTH1 = 0x1e2c
                    0x1e2c                  _HPCCNTH1 = 0x1e2c
                    0x1e30                  HPCCNTL2 = 0x1e30
                    0x1e30                  _HPCCNTL2 = 0x1e30
                    0x1e34                  HPCCNTH2 = 0x1e34
                    0x1e34                  _HPCCNTH2 = 0x1e34
                    0x1e38                  HPCCNTL3 = 0x1e38
                    0x1e38                  _HPCCNTL3 = 0x1e38
                    0x1e3c                  HPCCNTH3 = 0x1e3c
                    0x1e3c                  _HPCCNTH3 = 0x1e3c
                    0x1e40                  HPCCNTL4 = 0x1e40
                    0x1e40                  _HPCCNTL4 = 0x1e40
                    0x1e44                  HPCCNTH4 = 0x1e44
                    0x1e44                  _HPCCNTH4 = 0x1e44
                    0x1e48                  HPCCNTL5 = 0x1e48
                    0x1e48                  _HPCCNTL5 = 0x1e48
                    0x1e4c                  HPCCNTH5 = 0x1e4c
                    0x1e4c                  _HPCCNTH5 = 0x1e4c
                    0x1e50                  HPCCNTL6 = 0x1e50
                    0x1e50                  _HPCCNTL6 = 0x1e50
                    0x1e54                  HPCCNTH6 = 0x1e54
                    0x1e54                  _HPCCNTH6 = 0x1e54
                    0x1e58                  HPCCNTL7 = 0x1e58
                    0x1e58                  _HPCCNTL7 = 0x1e58
                    0x1e5c                  HPCCNTH7 = 0x1e5c
                    0x1e5c                  _HPCCNTH7 = 0x1e5c
                    0x1e60                  CHECON = 0x1e60
                    0x1e60                  _CHECON = 0x1e60
                    0x1e60                  _CHECONbits = 0x1e60
                    0x1e64                  CHESTAT = 0x1e64
                    0x1e64                  _CHESTAT = 0x1e64
                    0x1e64                  _CHESTATbits = 0x1e64
                    0x1e68                  CHEFLTINJ = 0x1e68
                    0x1e68                  _CHEFLTINJ = 0x1e68
                    0x1e68                  _CHEFLTINJbits = 0x1e68
                    0x1e80                  PACCON1 = 0x1e80
                    0x1e80                  _PACCON1 = 0x1e80
                    0x1e80                  _PACCON1bits = 0x1e80
                    0x1e84                  PACCON2 = 0x1e84
                    0x1e84                  _PACCON2 = 0x1e84
                    0x1e84                  _PACCON2bits = 0x1e84
                    0x1e88                  PACCON3 = 0x1e88
                    0x1e88                  _PACCON3 = 0x1e88
                    0x1e88                  _PACCON3bits = 0x1e88
                    0x1e90                  IOIM1CON = 0x1e90
                    0x1e90                  _IOIM1CON = 0x1e90
                    0x1e90                  _IOIM1CONbits = 0x1e90
                    0x1e94                  IOIM1BCON = 0x1e94
                    0x1e94                  _IOIM1BCON = 0x1e94
                    0x1e94                  _IOIM1BCONbits = 0x1e94
                    0x1e98                  IOIM1STAT = 0x1e98
                    0x1e98                  _IOIM1STAT = 0x1e98
                    0x1e98                  _IOIM1STATbits = 0x1e98
                    0x1e9c                  IOIM2CON = 0x1e9c
                    0x1e9c                  _IOIM2CON = 0x1e9c
                    0x1e9c                  _IOIM2CONbits = 0x1e9c
                    0x1ea0                  IOIM2BCON = 0x1ea0
                    0x1ea0                  _IOIM2BCON = 0x1ea0
                    0x1ea0                  _IOIM2BCONbits = 0x1ea0
                    0x1ea4                  IOIM2STAT = 0x1ea4
                    0x1ea4                  _IOIM2STAT = 0x1ea4
                    0x1ea4                  _IOIM2STATbits = 0x1ea4
                    0x1ea8                  IOIM3CON = 0x1ea8
                    0x1ea8                  _IOIM3CON = 0x1ea8
                    0x1ea8                  _IOIM3CONbits = 0x1ea8
                    0x1eac                  IOIM3BCON = 0x1eac
                    0x1eac                  _IOIM3BCON = 0x1eac
                    0x1eac                  _IOIM3BCONbits = 0x1eac
                    0x1eb0                  IOIM3STAT = 0x1eb0
                    0x1eb0                  _IOIM3STAT = 0x1eb0
                    0x1eb0                  _IOIM3STATbits = 0x1eb0
                    0x1eb4                  IOIM4CON = 0x1eb4
                    0x1eb4                  _IOIM4CON = 0x1eb4
                    0x1eb4                  _IOIM4CONbits = 0x1eb4
                    0x1eb8                  IOIM4BCON = 0x1eb8
                    0x1eb8                  _IOIM4BCON = 0x1eb8
                    0x1eb8                  _IOIM4BCONbits = 0x1eb8
                    0x1ebc                  IOIM4STAT = 0x1ebc
                    0x1ebc                  _IOIM4STAT = 0x1ebc
                    0x1ebc                  _IOIM4STATbits = 0x1ebc
                    0x1ec0                  IOIM5CON = 0x1ec0
                    0x1ec0                  _IOIM5CON = 0x1ec0
                    0x1ec0                  _IOIM5CONbits = 0x1ec0
                    0x1ec4                  IOIM5BCON = 0x1ec4
                    0x1ec4                  _IOIM5BCON = 0x1ec4
                    0x1ec4                  _IOIM5BCONbits = 0x1ec4
                    0x1ec8                  IOIM5STAT = 0x1ec8
                    0x1ec8                  _IOIM5STAT = 0x1ec8
                    0x1ec8                  _IOIM5STATbits = 0x1ec8
                    0x1ecc                  IOIM6CON = 0x1ecc
                    0x1ecc                  _IOIM6CON = 0x1ecc
                    0x1ecc                  _IOIM6CONbits = 0x1ecc
                    0x1ed0                  IOIM6BCON = 0x1ed0
                    0x1ed0                  _IOIM6BCON = 0x1ed0
                    0x1ed0                  _IOIM6BCONbits = 0x1ed0
                    0x1ed4                  IOIM6STAT = 0x1ed4
                    0x1ed4                  _IOIM6STAT = 0x1ed4
                    0x1ed4                  _IOIM6STATbits = 0x1ed4
                    0x1ed8                  IOIM7CON = 0x1ed8
                    0x1ed8                  _IOIM7CON = 0x1ed8
                    0x1ed8                  _IOIM7CONbits = 0x1ed8
                    0x1edc                  IOIM7BCON = 0x1edc
                    0x1edc                  _IOIM7BCON = 0x1edc
                    0x1edc                  _IOIM7BCONbits = 0x1edc
                    0x1ee0                  IOIM7STAT = 0x1ee0
                    0x1ee0                  _IOIM7STAT = 0x1ee0
                    0x1ee0                  _IOIM7STATbits = 0x1ee0
                    0x1ee4                  IOIM8CON = 0x1ee4
                    0x1ee4                  _IOIM8CON = 0x1ee4
                    0x1ee4                  _IOIM8CONbits = 0x1ee4
                    0x1ee8                  IOIM8BCON = 0x1ee8
                    0x1ee8                  _IOIM8BCON = 0x1ee8
                    0x1ee8                  _IOIM8BCONbits = 0x1ee8
                    0x1eec                  IOIM8STAT = 0x1eec
                    0x1eec                  _IOIM8STAT = 0x1eec
                    0x1eec                  _IOIM8STATbits = 0x1eec
                    0x1ef0                  IOIM9CON = 0x1ef0
                    0x1ef0                  _IOIM9CON = 0x1ef0
                    0x1ef0                  _IOIM9CONbits = 0x1ef0
                    0x1ef4                  IOIM9BCON = 0x1ef4
                    0x1ef4                  _IOIM9BCON = 0x1ef4
                    0x1ef4                  _IOIM9BCONbits = 0x1ef4
                    0x1ef8                  IOIM9STAT = 0x1ef8
                    0x1ef8                  _IOIM9STAT = 0x1ef8
                    0x1ef8                  _IOIM9STATbits = 0x1ef8
                    0x1efc                  IOIM10CON = 0x1efc
                    0x1efc                  _IOIM10CON = 0x1efc
                    0x1efc                  _IOIM10CONbits = 0x1efc
                    0x1f00                  IOIM10BCON = 0x1f00
                    0x1f00                  _IOIM10BCON = 0x1f00
                    0x1f00                  _IOIM10BCONbits = 0x1f00
                    0x1f04                  IOIM10STAT = 0x1f04
                    0x1f04                  _IOIM10STAT = 0x1f04
                    0x1f04                  _IOIM10STATbits = 0x1f04
                    0x1f08                  IOIM11CON = 0x1f08
                    0x1f08                  _IOIM11CON = 0x1f08
                    0x1f08                  _IOIM11CONbits = 0x1f08
                    0x1f0c                  IOIM11BCON = 0x1f0c
                    0x1f0c                  _IOIM11BCON = 0x1f0c
                    0x1f0c                  _IOIM11BCONbits = 0x1f0c
                    0x1f10                  IOIM11STAT = 0x1f10
                    0x1f10                  _IOIM11STAT = 0x1f10
                    0x1f10                  _IOIM11STATbits = 0x1f10
                    0x1f14                  IOIM12CON = 0x1f14
                    0x1f14                  _IOIM12CON = 0x1f14
                    0x1f14                  _IOIM12CONbits = 0x1f14
                    0x1f18                  IOIM12BCON = 0x1f18
                    0x1f18                  _IOIM12BCON = 0x1f18
                    0x1f18                  _IOIM12BCONbits = 0x1f18
                    0x1f1c                  IOIM12STAT = 0x1f1c
                    0x1f1c                  _IOIM12STAT = 0x1f1c
                    0x1f1c                  _IOIM12STATbits = 0x1f1c
                    0x1f20                  IOIM13CON = 0x1f20
                    0x1f20                  _IOIM13CON = 0x1f20
                    0x1f20                  _IOIM13CONbits = 0x1f20
                    0x1f24                  IOIM13BCON = 0x1f24
                    0x1f24                  _IOIM13BCON = 0x1f24
                    0x1f24                  _IOIM13BCONbits = 0x1f24
                    0x1f28                  IOIM13STAT = 0x1f28
                    0x1f28                  _IOIM13STAT = 0x1f28
                    0x1f28                  _IOIM13STATbits = 0x1f28
                    0x1f2c                  IOIM14CON = 0x1f2c
                    0x1f2c                  _IOIM14CON = 0x1f2c
                    0x1f2c                  _IOIM14CONbits = 0x1f2c
                    0x1f30                  IOIM14BCON = 0x1f30
                    0x1f30                  _IOIM14BCON = 0x1f30
                    0x1f30                  _IOIM14BCONbits = 0x1f30
                    0x1f34                  IOIM14STAT = 0x1f34
                    0x1f34                  _IOIM14STAT = 0x1f34
                    0x1f34                  _IOIM14STATbits = 0x1f34
                    0x1f38                  IOIM15CON = 0x1f38
                    0x1f38                  _IOIM15CON = 0x1f38
                    0x1f38                  _IOIM15CONbits = 0x1f38
                    0x1f3c                  IOIM15BCON = 0x1f3c
                    0x1f3c                  _IOIM15BCON = 0x1f3c
                    0x1f3c                  _IOIM15BCONbits = 0x1f3c
                    0x1f40                  IOIM15STAT = 0x1f40
                    0x1f40                  _IOIM15STAT = 0x1f40
                    0x1f40                  _IOIM15STATbits = 0x1f40
                    0x1f44                  IOIM16CON = 0x1f44
                    0x1f44                  _IOIM16CON = 0x1f44
                    0x1f44                  _IOIM16CONbits = 0x1f44
                    0x1f48                  IOIM16BCON = 0x1f48
                    0x1f48                  _IOIM16BCON = 0x1f48
                    0x1f48                  _IOIM16BCONbits = 0x1f48
                    0x1f4c                  IOIM16STAT = 0x1f4c
                    0x1f4c                  _IOIM16STAT = 0x1f4c
                    0x1f4c                  _IOIM16STATbits = 0x1f4c
                    0x2100                  B1SCDATA0L = 0x2100
                    0x2100                  _B1SCDATA0L = 0x2100
                    0x2104                  B1SCDATA0H = 0x2104
                    0x2104                  _B1SCDATA0H = 0x2104
                    0x2108                  B1SCDATA1L = 0x2108
                    0x2108                  _B1SCDATA1L = 0x2108
                    0x210c                  B1SCDATA1H = 0x210c
                    0x210c                  _B1SCDATA1H = 0x210c
                    0x2110                  B1SCDATA2L = 0x2110
                    0x2110                  _B1SCDATA2L = 0x2110
                    0x2114                  B1SCDATA2H = 0x2114
                    0x2114                  _B1SCDATA2H = 0x2114
                    0x2118                  B1SCDATA3L = 0x2118
                    0x2118                  _B1SCDATA3L = 0x2118
                    0x211c                  B1SCDATA3H = 0x211c
                    0x211c                  _B1SCDATA3H = 0x211c
                    0x2180                  B1IDS0 = 0x2180
                    0x2180                  _B1IDS0 = 0x2180
                    0x2180                  _B1IDS0bits = 0x2180
                    0x2180                  B1RDATA0 = 0x2180
                    0x2180                  _B1RDATA0 = 0x2180
                    0x2180                  _B1RDATA0bits = 0x2180
                    0x2184                  B1IDS1 = 0x2184
                    0x2184                  _B1IDS1 = 0x2184
                    0x2184                  _B1IDS1bits = 0x2184
                    0x2184                  B1RDATA1 = 0x2184
                    0x2184                  _B1RDATA1 = 0x2184
                    0x2184                  _B1RDATA1bits = 0x2184
                    0x2188                  B1IDS2 = 0x2188
                    0x2188                  _B1IDS2 = 0x2188
                    0x2188                  _B1IDS2bits = 0x2188
                    0x2188                  B1RDATA2 = 0x2188
                    0x2188                  _B1RDATA2 = 0x2188
                    0x2188                  _B1RDATA2bits = 0x2188
                    0x218c                  B1IDS3 = 0x218c
                    0x218c                  _B1IDS3 = 0x218c
                    0x218c                  _B1IDS3bits = 0x218c
                    0x218c                  B1RDATA3 = 0x218c
                    0x218c                  _B1RDATA3 = 0x218c
                    0x218c                  _B1RDATA3bits = 0x218c
                    0x2190                  B1IDS4 = 0x2190
                    0x2190                  _B1IDS4 = 0x2190
                    0x2190                  _B1IDS4bits = 0x2190
                    0x2190                  B1RDATA4 = 0x2190
                    0x2190                  _B1RDATA4 = 0x2190
                    0x2190                  _B1RDATA4bits = 0x2190
                    0x2194                  B1IDS5 = 0x2194
                    0x2194                  _B1IDS5 = 0x2194
                    0x2194                  _B1IDS5bits = 0x2194
                    0x2194                  B1RDATA5 = 0x2194
                    0x2194                  _B1RDATA5 = 0x2194
                    0x2194                  _B1RDATA5bits = 0x2194
                    0x2198                  B1IDS6 = 0x2198
                    0x2198                  _B1IDS6 = 0x2198
                    0x2198                  _B1IDS6bits = 0x2198
                    0x2198                  B1RDATA6 = 0x2198
                    0x2198                  _B1RDATA6 = 0x2198
                    0x2198                  _B1RDATA6bits = 0x2198
                    0x219c                  B1IDS7 = 0x219c
                    0x219c                  _B1IDS7 = 0x219c
                    0x219c                  _B1IDS7bits = 0x219c
                    0x219c                  B1RDATA7 = 0x219c
                    0x219c                  _B1RDATA7 = 0x219c
                    0x219c                  _B1RDATA7bits = 0x219c
                    0x21c0                  B1CLTCON0 = 0x21c0
                    0x21c0                  _B1CLTCON0 = 0x21c0
                    0x21c0                  _B1CLTCON0bits = 0x21c0
                    0x21c4                  B1CLTCON1 = 0x21c4
                    0x21c4                  _B1CLTCON1 = 0x21c4
                    0x21c4                  _B1CLTCON1bits = 0x21c4
                    0x21c8                  B1CLTCON2 = 0x21c8
                    0x21c8                  _B1CLTCON2 = 0x21c8
                    0x21c8                  _B1CLTCON2bits = 0x21c8
                    0x21cc                  B1CLTCON3 = 0x21cc
                    0x21cc                  _B1CLTCON3 = 0x21cc
                    0x21cc                  _B1CLTCON3bits = 0x21cc
                    0x21e0                  B1RCCON = 0x21e0
                    0x21e0                  _B1RCCON = 0x21e0
                    0x21e0                  _B1RCCONbits = 0x21e0
                    0x21e4                  B1CTRLCON = 0x21e4
                    0x21e4                  _B1CTRLCON = 0x21e4
                    0x21e4                  _B1CTRLCONbits = 0x21e4
                    0x21e8                  B1CCON = 0x21e8
                    0x21e8                  _B1CCON = 0x21e8
                    0x21e8                  _B1CCONbits = 0x21e8
                    0x21ec                  B1CHCON = 0x21ec
                    0x21ec                  _B1CHCON = 0x21ec
                    0x21ec                  _B1CHCONbits = 0x21ec
                    0x21f0                  B1STAT = 0x21f0
                    0x21f0                  _B1STAT = 0x21f0
                    0x21f0                  _B1STATbits = 0x21f0
                    0x21f4                  B1INSTR = 0x21f4
                    0x21f4                  _B1INSTR = 0x21f4
                    0x21f4                  _B1INSTRbits = 0x21f4
                    0x21f8                  B1CHSTAT = 0x21f8
                    0x21f8                  _B1CHSTAT = 0x21f8
                    0x21f8                  _B1CHSTATbits = 0x21f8
                    0x21fc                  B1CON = 0x21fc
                    0x21fc                  _B1CON = 0x21fc
                    0x21fc                  _B1CONbits = 0x21fc
                    0x2300                  DMACON = 0x2300
                    0x2300                  _DMACON = 0x2300
                    0x2300                  _DMACONbits = 0x2300
                    0x2304                  DMABUF = 0x2304
                    0x2304                  _DMABUF = 0x2304
                    0x2308                  DMALOW = 0x2308
                    0x2308                  _DMALOW = 0x2308
                    0x2308                  _DMALOWbits = 0x2308
                    0x230c                  DMAHIGH = 0x230c
                    0x230c                  _DMAHIGH = 0x230c
                    0x230c                  _DMAHIGHbits = 0x230c
                    0x2310                  DMA0CH = 0x2310
                    0x2310                  _DMA0CH = 0x2310
                    0x2310                  _DMA0CHbits = 0x2310
                    0x2314                  DMA0SEL = 0x2314
                    0x2314                  _DMA0SEL = 0x2314
                    0x2314                  _DMA0SELbits = 0x2314
                    0x2318                  DMA0STAT = 0x2318
                    0x2318                  _DMA0STAT = 0x2318
                    0x2318                  _DMA0STATbits = 0x2318
                    0x231c                  DMA0SRC = 0x231c
                    0x231c                  _DMA0SRC = 0x231c
                    0x231c                  _DMA0SRCbits = 0x231c
                    0x2320                  DMA0DST = 0x2320
                    0x2320                  _DMA0DST = 0x2320
                    0x2320                  _DMA0DSTbits = 0x2320
                    0x2324                  DMA0CNT = 0x2324
                    0x2324                  _DMA0CNT = 0x2324
                    0x2324                  _DMA0CNTbits = 0x2324
                    0x2328                  DMA0CLR = 0x2328
                    0x2328                  _DMA0CLR = 0x2328
                    0x232c                  DMA0SET = 0x232c
                    0x232c                  _DMA0SET = 0x232c
                    0x2330                  DMA0INV = 0x2330
                    0x2330                  _DMA0INV = 0x2330
                    0x2334                  DMA0MSK = 0x2334
                    0x2334                  _DMA0MSK = 0x2334
                    0x2338                  DMA0PAT = 0x2338
                    0x2338                  _DMA0PAT = 0x2338
                    0x233c                  DMA1CH = 0x233c
                    0x233c                  _DMA1CH = 0x233c
                    0x233c                  _DMA1CHbits = 0x233c
                    0x2340                  DMA1SEL = 0x2340
                    0x2340                  _DMA1SEL = 0x2340
                    0x2340                  _DMA1SELbits = 0x2340
                    0x2344                  DMA1STAT = 0x2344
                    0x2344                  _DMA1STAT = 0x2344
                    0x2344                  _DMA1STATbits = 0x2344
                    0x2348                  DMA1SRC = 0x2348
                    0x2348                  _DMA1SRC = 0x2348
                    0x2348                  _DMA1SRCbits = 0x2348
                    0x234c                  DMA1DST = 0x234c
                    0x234c                  _DMA1DST = 0x234c
                    0x234c                  _DMA1DSTbits = 0x234c
                    0x2350                  DMA1CNT = 0x2350
                    0x2350                  _DMA1CNT = 0x2350
                    0x2350                  _DMA1CNTbits = 0x2350
                    0x2354                  DMA1CLR = 0x2354
                    0x2354                  _DMA1CLR = 0x2354
                    0x2358                  DMA1SET = 0x2358
                    0x2358                  _DMA1SET = 0x2358
                    0x235c                  DMA1INV = 0x235c
                    0x235c                  _DMA1INV = 0x235c
                    0x2360                  DMA1MSK = 0x2360
                    0x2360                  _DMA1MSK = 0x2360
                    0x2364                  DMA1PAT = 0x2364
                    0x2364                  _DMA1PAT = 0x2364
                    0x2368                  DMA2CH = 0x2368
                    0x2368                  _DMA2CH = 0x2368
                    0x2368                  _DMA2CHbits = 0x2368
                    0x236c                  DMA2SEL = 0x236c
                    0x236c                  _DMA2SEL = 0x236c
                    0x236c                  _DMA2SELbits = 0x236c
                    0x2370                  DMA2STAT = 0x2370
                    0x2370                  _DMA2STAT = 0x2370
                    0x2370                  _DMA2STATbits = 0x2370
                    0x2374                  DMA2SRC = 0x2374
                    0x2374                  _DMA2SRC = 0x2374
                    0x2374                  _DMA2SRCbits = 0x2374
                    0x2378                  DMA2DST = 0x2378
                    0x2378                  _DMA2DST = 0x2378
                    0x2378                  _DMA2DSTbits = 0x2378
                    0x237c                  DMA2CNT = 0x237c
                    0x237c                  _DMA2CNT = 0x237c
                    0x237c                  _DMA2CNTbits = 0x237c
                    0x2380                  DMA2CLR = 0x2380
                    0x2380                  _DMA2CLR = 0x2380
                    0x2384                  DMA2SET = 0x2384
                    0x2384                  _DMA2SET = 0x2384
                    0x2388                  DMA2INV = 0x2388
                    0x2388                  _DMA2INV = 0x2388
                    0x238c                  DMA2MSK = 0x238c
                    0x238c                  _DMA2MSK = 0x238c
                    0x2390                  DMA2PAT = 0x2390
                    0x2390                  _DMA2PAT = 0x2390
                    0x2394                  DMA3CH = 0x2394
                    0x2394                  _DMA3CH = 0x2394
                    0x2394                  _DMA3CHbits = 0x2394
                    0x2398                  DMA3SEL = 0x2398
                    0x2398                  _DMA3SEL = 0x2398
                    0x2398                  _DMA3SELbits = 0x2398
                    0x239c                  DMA3STAT = 0x239c
                    0x239c                  _DMA3STAT = 0x239c
                    0x239c                  _DMA3STATbits = 0x239c
                    0x23a0                  DMA3SRC = 0x23a0
                    0x23a0                  _DMA3SRC = 0x23a0
                    0x23a0                  _DMA3SRCbits = 0x23a0
                    0x23a4                  DMA3DST = 0x23a4
                    0x23a4                  _DMA3DST = 0x23a4
                    0x23a4                  _DMA3DSTbits = 0x23a4
                    0x23a8                  DMA3CNT = 0x23a8
                    0x23a8                  _DMA3CNT = 0x23a8
                    0x23a8                  _DMA3CNTbits = 0x23a8
                    0x23ac                  DMA3CLR = 0x23ac
                    0x23ac                  _DMA3CLR = 0x23ac
                    0x23b0                  DMA3SET = 0x23b0
                    0x23b0                  _DMA3SET = 0x23b0
                    0x23b4                  DMA3INV = 0x23b4
                    0x23b4                  _DMA3INV = 0x23b4
                    0x23b8                  DMA3MSK = 0x23b8
                    0x23b8                  _DMA3MSK = 0x23b8
                    0x23bc                  DMA3PAT = 0x23bc
                    0x23bc                  _DMA3PAT = 0x23bc
                    0x23c0                  DMA4CH = 0x23c0
                    0x23c0                  _DMA4CH = 0x23c0
                    0x23c0                  _DMA4CHbits = 0x23c0
                    0x23c4                  DMA4SEL = 0x23c4
                    0x23c4                  _DMA4SEL = 0x23c4
                    0x23c4                  _DMA4SELbits = 0x23c4
                    0x23c8                  DMA4STAT = 0x23c8
                    0x23c8                  _DMA4STAT = 0x23c8
                    0x23c8                  _DMA4STATbits = 0x23c8
                    0x23cc                  DMA4SRC = 0x23cc
                    0x23cc                  _DMA4SRC = 0x23cc
                    0x23cc                  _DMA4SRCbits = 0x23cc
                    0x23d0                  DMA4DST = 0x23d0
                    0x23d0                  _DMA4DST = 0x23d0
                    0x23d0                  _DMA4DSTbits = 0x23d0
                    0x23d4                  DMA4CNT = 0x23d4
                    0x23d4                  _DMA4CNT = 0x23d4
                    0x23d4                  _DMA4CNTbits = 0x23d4
                    0x23d8                  DMA4CLR = 0x23d8
                    0x23d8                  _DMA4CLR = 0x23d8
                    0x23dc                  DMA4SET = 0x23dc
                    0x23dc                  _DMA4SET = 0x23dc
                    0x23e0                  DMA4INV = 0x23e0
                    0x23e0                  _DMA4INV = 0x23e0
                    0x23e4                  DMA4MSK = 0x23e4
                    0x23e4                  _DMA4MSK = 0x23e4
                    0x23e8                  DMA4PAT = 0x23e8
                    0x23e8                  _DMA4PAT = 0x23e8
                    0x23ec                  DMA5CH = 0x23ec
                    0x23ec                  _DMA5CH = 0x23ec
                    0x23ec                  _DMA5CHbits = 0x23ec
                    0x23f0                  DMA5SEL = 0x23f0
                    0x23f0                  _DMA5SEL = 0x23f0
                    0x23f0                  _DMA5SELbits = 0x23f0
                    0x23f4                  DMA5STAT = 0x23f4
                    0x23f4                  _DMA5STAT = 0x23f4
                    0x23f4                  _DMA5STATbits = 0x23f4
                    0x23f8                  DMA5SRC = 0x23f8
                    0x23f8                  _DMA5SRC = 0x23f8
                    0x23f8                  _DMA5SRCbits = 0x23f8
                    0x23fc                  DMA5DST = 0x23fc
                    0x23fc                  _DMA5DST = 0x23fc
                    0x23fc                  _DMA5DSTbits = 0x23fc
                    0x2400                  DMA5CNT = 0x2400
                    0x2400                  _DMA5CNT = 0x2400
                    0x2400                  _DMA5CNTbits = 0x2400
                    0x2404                  DMA5CLR = 0x2404
                    0x2404                  _DMA5CLR = 0x2404
                    0x2408                  DMA5SET = 0x2408
                    0x2408                  _DMA5SET = 0x2408
                    0x240c                  DMA5INV = 0x240c
                    0x240c                  _DMA5INV = 0x240c
                    0x2410                  DMA5MSK = 0x2410
                    0x2410                  _DMA5MSK = 0x2410
                    0x2414                  DMA5PAT = 0x2414
                    0x2414                  _DMA5PAT = 0x2414
                    0x2418                  DMA6CH = 0x2418
                    0x2418                  _DMA6CH = 0x2418
                    0x2418                  _DMA6CHbits = 0x2418
                    0x241c                  DMA6SEL = 0x241c
                    0x241c                  _DMA6SEL = 0x241c
                    0x241c                  _DMA6SELbits = 0x241c
                    0x2420                  DMA6STAT = 0x2420
                    0x2420                  _DMA6STAT = 0x2420
                    0x2420                  _DMA6STATbits = 0x2420
                    0x2424                  DMA6SRC = 0x2424
                    0x2424                  _DMA6SRC = 0x2424
                    0x2424                  _DMA6SRCbits = 0x2424
                    0x2428                  DMA6DST = 0x2428
                    0x2428                  _DMA6DST = 0x2428
                    0x2428                  _DMA6DSTbits = 0x2428
                    0x242c                  DMA6CNT = 0x242c
                    0x242c                  _DMA6CNT = 0x242c
                    0x242c                  _DMA6CNTbits = 0x242c
                    0x2430                  DMA6CLR = 0x2430
                    0x2430                  _DMA6CLR = 0x2430
                    0x2434                  DMA6SET = 0x2434
                    0x2434                  _DMA6SET = 0x2434
                    0x2438                  DMA6INV = 0x2438
                    0x2438                  _DMA6INV = 0x2438
                    0x243c                  DMA6MSK = 0x243c
                    0x243c                  _DMA6MSK = 0x243c
                    0x2440                  DMA6PAT = 0x2440
                    0x2440                  _DMA6PAT = 0x2440
                    0x2444                  DMA7CH = 0x2444
                    0x2444                  _DMA7CH = 0x2444
                    0x2444                  _DMA7CHbits = 0x2444
                    0x2448                  DMA7SEL = 0x2448
                    0x2448                  _DMA7SEL = 0x2448
                    0x2448                  _DMA7SELbits = 0x2448
                    0x244c                  DMA7STAT = 0x244c
                    0x244c                  _DMA7STAT = 0x244c
                    0x244c                  _DMA7STATbits = 0x244c
                    0x2450                  DMA7SRC = 0x2450
                    0x2450                  _DMA7SRC = 0x2450
                    0x2450                  _DMA7SRCbits = 0x2450
                    0x2454                  DMA7DST = 0x2454
                    0x2454                  _DMA7DST = 0x2454
                    0x2454                  _DMA7DSTbits = 0x2454
                    0x2458                  DMA7CNT = 0x2458
                    0x2458                  _DMA7CNT = 0x2458
                    0x2458                  _DMA7CNTbits = 0x2458
                    0x245c                  DMA7CLR = 0x245c
                    0x245c                  _DMA7CLR = 0x245c
                    0x2460                  DMA7SET = 0x2460
                    0x2460                  _DMA7SET = 0x2460
                    0x2464                  DMA7INV = 0x2464
                    0x2464                  _DMA7INV = 0x2464
                    0x2468                  DMA7MSK = 0x2468
                    0x2468                  _DMA7MSK = 0x2468
                    0x246c                  DMA7PAT = 0x246c
                    0x246c                  _DMA7PAT = 0x246c
                    0x2600                  C1CON = 0x2600
                    0x2600                  _C1CON = 0x2600
                    0x2600                  _C1CONbits = 0x2600
                    0x2604                  C1NBTCFG = 0x2604
                    0x2604                  _C1NBTCFG = 0x2604
                    0x2604                  _C1NBTCFGbits = 0x2604
                    0x2608                  C1DBTCFG = 0x2608
                    0x2608                  _C1DBTCFG = 0x2608
                    0x2608                  _C1DBTCFGbits = 0x2608
                    0x260c                  C1TDC = 0x260c
                    0x260c                  _C1TDC = 0x260c
                    0x260c                  _C1TDCbits = 0x260c
                    0x2610                  C1TBC = 0x2610
                    0x2610                  _C1TBC = 0x2610
                    0x2614                  C1TSCON = 0x2614
                    0x2614                  _C1TSCON = 0x2614
                    0x2614                  _C1TSCONbits = 0x2614
                    0x2618                  C1VEC = 0x2618
                    0x2618                  _C1VEC = 0x2618
                    0x2618                  _C1VECbits = 0x2618
                    0x261c                  C1INT = 0x261c
                    0x261c                  _C1INT = 0x261c
                    0x261c                  _C1INTbits = 0x261c
                    0x2620                  C1RXIF = 0x2620
                    0x2620                  _C1RXIF = 0x2620
                    0x2620                  _C1RXIFbits = 0x2620
                    0x2624                  C1TXIF = 0x2624
                    0x2624                  _C1TXIF = 0x2624
                    0x2628                  C1RXOVIF = 0x2628
                    0x2628                  _C1RXOVIF = 0x2628
                    0x2628                  _C1RXOVIFbits = 0x2628
                    0x262c                  C1TXATIF = 0x262c
                    0x262c                  _C1TXATIF = 0x262c
                    0x2630                  C1TXREQ = 0x2630
                    0x2630                  _C1TXREQ = 0x2630
                    0x2634                  C1TREC = 0x2634
                    0x2634                  _C1TREC = 0x2634
                    0x2634                  _C1TRECbits = 0x2634
                    0x2638                  C1BDIAG0 = 0x2638
                    0x2638                  _C1BDIAG0 = 0x2638
                    0x2638                  _C1BDIAG0bits = 0x2638
                    0x263c                  C1BDIAG1 = 0x263c
                    0x263c                  _C1BDIAG1 = 0x263c
                    0x263c                  _C1BDIAG1bits = 0x263c
                    0x2640                  C1TEFCON = 0x2640
                    0x2640                  _C1TEFCON = 0x2640
                    0x2640                  _C1TEFCONbits = 0x2640
                    0x2644                  C1TEFSTA = 0x2644
                    0x2644                  _C1TEFSTA = 0x2644
                    0x2644                  _C1TEFSTAbits = 0x2644
                    0x2648                  C1TEFUA = 0x2648
                    0x2648                  _C1TEFUA = 0x2648
                    0x264c                  C1FIFOBA = 0x264c
                    0x264c                  _C1FIFOBA = 0x264c
                    0x2650                  C1TXQCON = 0x2650
                    0x2650                  _C1TXQCON = 0x2650
                    0x2650                  _C1TXQCONbits = 0x2650
                    0x2654                  C1TXQSTA = 0x2654
                    0x2654                  _C1TXQSTA = 0x2654
                    0x2654                  _C1TXQSTAbits = 0x2654
                    0x2658                  C1TXQUA = 0x2658
                    0x2658                  _C1TXQUA = 0x2658
                    0x265c                  C1FIFOCON1 = 0x265c
                    0x265c                  _C1FIFOCON1 = 0x265c
                    0x265c                  _C1FIFOCON1bits = 0x265c
                    0x2660                  C1FIFOSTA1 = 0x2660
                    0x2660                  _C1FIFOSTA1 = 0x2660
                    0x2660                  _C1FIFOSTA1bits = 0x2660
                    0x2664                  C1FIFOUA1 = 0x2664
                    0x2664                  _C1FIFOUA1 = 0x2664
                    0x2668                  C1FIFOCON2 = 0x2668
                    0x2668                  _C1FIFOCON2 = 0x2668
                    0x2668                  _C1FIFOCON2bits = 0x2668
                    0x266c                  C1FIFOSTA2 = 0x266c
                    0x266c                  _C1FIFOSTA2 = 0x266c
                    0x266c                  _C1FIFOSTA2bits = 0x266c
                    0x2670                  C1FIFOUA2 = 0x2670
                    0x2670                  _C1FIFOUA2 = 0x2670
                    0x2674                  C1FIFOCON3 = 0x2674
                    0x2674                  _C1FIFOCON3 = 0x2674
                    0x2674                  _C1FIFOCON3bits = 0x2674
                    0x2678                  C1FIFOSTA3 = 0x2678
                    0x2678                  _C1FIFOSTA3 = 0x2678
                    0x2678                  _C1FIFOSTA3bits = 0x2678
                    0x267c                  C1FIFOUA3 = 0x267c
                    0x267c                  _C1FIFOUA3 = 0x267c
                    0x2680                  C1FIFOCON4 = 0x2680
                    0x2680                  _C1FIFOCON4 = 0x2680
                    0x2680                  _C1FIFOCON4bits = 0x2680
                    0x2684                  C1FIFOSTA4 = 0x2684
                    0x2684                  _C1FIFOSTA4 = 0x2684
                    0x2684                  _C1FIFOSTA4bits = 0x2684
                    0x2688                  C1FIFOUA4 = 0x2688
                    0x2688                  _C1FIFOUA4 = 0x2688
                    0x268c                  C1FIFOCON5 = 0x268c
                    0x268c                  _C1FIFOCON5 = 0x268c
                    0x268c                  _C1FIFOCON5bits = 0x268c
                    0x2690                  C1FIFOSTA5 = 0x2690
                    0x2690                  _C1FIFOSTA5 = 0x2690
                    0x2690                  _C1FIFOSTA5bits = 0x2690
                    0x2694                  C1FIFOUA5 = 0x2694
                    0x2694                  _C1FIFOUA5 = 0x2694
                    0x2698                  C1FIFOCON6 = 0x2698
                    0x2698                  _C1FIFOCON6 = 0x2698
                    0x2698                  _C1FIFOCON6bits = 0x2698
                    0x269c                  C1FIFOSTA6 = 0x269c
                    0x269c                  _C1FIFOSTA6 = 0x269c
                    0x269c                  _C1FIFOSTA6bits = 0x269c
                    0x26a0                  C1FIFOUA6 = 0x26a0
                    0x26a0                  _C1FIFOUA6 = 0x26a0
                    0x26a4                  C1FIFOCON7 = 0x26a4
                    0x26a4                  _C1FIFOCON7 = 0x26a4
                    0x26a4                  _C1FIFOCON7bits = 0x26a4
                    0x26a8                  C1FIFOSTA7 = 0x26a8
                    0x26a8                  _C1FIFOSTA7 = 0x26a8
                    0x26a8                  _C1FIFOSTA7bits = 0x26a8
                    0x26ac                  C1FIFOUA7 = 0x26ac
                    0x26ac                  _C1FIFOUA7 = 0x26ac
                    0x26b0                  C1FLTCON0 = 0x26b0
                    0x26b0                  _C1FLTCON0 = 0x26b0
                    0x26b0                  _C1FLTCON0bits = 0x26b0
                    0x26b4                  C1FLTCON1 = 0x26b4
                    0x26b4                  _C1FLTCON1 = 0x26b4
                    0x26b4                  _C1FLTCON1bits = 0x26b4
                    0x26b8                  C1FLTCON2 = 0x26b8
                    0x26b8                  _C1FLTCON2 = 0x26b8
                    0x26b8                  _C1FLTCON2bits = 0x26b8
                    0x26bc                  C1FLTCON3 = 0x26bc
                    0x26bc                  _C1FLTCON3 = 0x26bc
                    0x26bc                  _C1FLTCON3bits = 0x26bc
                    0x26c0                  C1FLTOBJ0 = 0x26c0
                    0x26c0                  _C1FLTOBJ0 = 0x26c0
                    0x26c0                  _C1FLTOBJ0bits = 0x26c0
                    0x26c4                  C1MASK0 = 0x26c4
                    0x26c4                  _C1MASK0 = 0x26c4
                    0x26c4                  _C1MASK0bits = 0x26c4
                    0x26c8                  C1FLTOBJ1 = 0x26c8
                    0x26c8                  _C1FLTOBJ1 = 0x26c8
                    0x26c8                  _C1FLTOBJ1bits = 0x26c8
                    0x26cc                  C1MASK1 = 0x26cc
                    0x26cc                  _C1MASK1 = 0x26cc
                    0x26cc                  _C1MASK1bits = 0x26cc
                    0x26d0                  C1FLTOBJ2 = 0x26d0
                    0x26d0                  _C1FLTOBJ2 = 0x26d0
                    0x26d0                  _C1FLTOBJ2bits = 0x26d0
                    0x26d4                  C1MASK2 = 0x26d4
                    0x26d4                  _C1MASK2 = 0x26d4
                    0x26d4                  _C1MASK2bits = 0x26d4
                    0x26d8                  C1FLTOBJ3 = 0x26d8
                    0x26d8                  _C1FLTOBJ3 = 0x26d8
                    0x26d8                  _C1FLTOBJ3bits = 0x26d8
                    0x26dc                  C1MASK3 = 0x26dc
                    0x26dc                  _C1MASK3 = 0x26dc
                    0x26dc                  _C1MASK3bits = 0x26dc
                    0x26e0                  C1FLTOBJ4 = 0x26e0
                    0x26e0                  _C1FLTOBJ4 = 0x26e0
                    0x26e0                  _C1FLTOBJ4bits = 0x26e0
                    0x26e4                  C1MASK4 = 0x26e4
                    0x26e4                  _C1MASK4 = 0x26e4
                    0x26e4                  _C1MASK4bits = 0x26e4
                    0x26e8                  C1FLTOBJ5 = 0x26e8
                    0x26e8                  _C1FLTOBJ5 = 0x26e8
                    0x26e8                  _C1FLTOBJ5bits = 0x26e8
                    0x26ec                  C1MASK5 = 0x26ec
                    0x26ec                  _C1MASK5 = 0x26ec
                    0x26ec                  _C1MASK5bits = 0x26ec
                    0x26f0                  C1FLTOBJ6 = 0x26f0
                    0x26f0                  _C1FLTOBJ6 = 0x26f0
                    0x26f0                  _C1FLTOBJ6bits = 0x26f0
                    0x26f4                  C1MASK6 = 0x26f4
                    0x26f4                  _C1MASK6 = 0x26f4
                    0x26f4                  _C1MASK6bits = 0x26f4
                    0x26f8                  C1FLTOBJ7 = 0x26f8
                    0x26f8                  _C1FLTOBJ7 = 0x26f8
                    0x26f8                  _C1FLTOBJ7bits = 0x26f8
                    0x26fc                  C1MASK7 = 0x26fc
                    0x26fc                  _C1MASK7 = 0x26fc
                    0x26fc                  _C1MASK7bits = 0x26fc
                    0x2700                  C1FLTOBJ8 = 0x2700
                    0x2700                  _C1FLTOBJ8 = 0x2700
                    0x2700                  _C1FLTOBJ8bits = 0x2700
                    0x2704                  C1MASK8 = 0x2704
                    0x2704                  _C1MASK8 = 0x2704
                    0x2704                  _C1MASK8bits = 0x2704
                    0x2708                  C1FLTOBJ9 = 0x2708
                    0x2708                  _C1FLTOBJ9 = 0x2708
                    0x2708                  _C1FLTOBJ9bits = 0x2708
                    0x270c                  C1MASK9 = 0x270c
                    0x270c                  _C1MASK9 = 0x270c
                    0x270c                  _C1MASK9bits = 0x270c
                    0x2710                  C1FLTOBJ10 = 0x2710
                    0x2710                  _C1FLTOBJ10 = 0x2710
                    0x2710                  _C1FLTOBJ10bits = 0x2710
                    0x2714                  C1MASK10 = 0x2714
                    0x2714                  _C1MASK10 = 0x2714
                    0x2714                  _C1MASK10bits = 0x2714
                    0x2718                  C1FLTOBJ11 = 0x2718
                    0x2718                  _C1FLTOBJ11 = 0x2718
                    0x2718                  _C1FLTOBJ11bits = 0x2718
                    0x271c                  C1MASK11 = 0x271c
                    0x271c                  _C1MASK11 = 0x271c
                    0x271c                  _C1MASK11bits = 0x271c
                    0x2720                  C1FLTOBJ12 = 0x2720
                    0x2720                  _C1FLTOBJ12 = 0x2720
                    0x2720                  _C1FLTOBJ12bits = 0x2720
                    0x2724                  C1MASK12 = 0x2724
                    0x2724                  _C1MASK12 = 0x2724
                    0x2724                  _C1MASK12bits = 0x2724
                    0x2728                  C1FLTOBJ13 = 0x2728
                    0x2728                  _C1FLTOBJ13 = 0x2728
                    0x2728                  _C1FLTOBJ13bits = 0x2728
                    0x272c                  C1MASK13 = 0x272c
                    0x272c                  _C1MASK13 = 0x272c
                    0x272c                  _C1MASK13bits = 0x272c
                    0x2730                  C1FLTOBJ14 = 0x2730
                    0x2730                  _C1FLTOBJ14 = 0x2730
                    0x2730                  _C1FLTOBJ14bits = 0x2730
                    0x2734                  C1MASK14 = 0x2734
                    0x2734                  _C1MASK14 = 0x2734
                    0x2734                  _C1MASK14bits = 0x2734
                    0x2738                  C1FLTOBJ15 = 0x2738
                    0x2738                  _C1FLTOBJ15 = 0x2738
                    0x2738                  _C1FLTOBJ15bits = 0x2738
                    0x273c                  C1MASK15 = 0x273c
                    0x273c                  _C1MASK15 = 0x273c
                    0x273c                  _C1MASK15bits = 0x273c
                    0x28f0                  C2CON = 0x28f0
                    0x28f0                  _C2CON = 0x28f0
                    0x28f0                  _C2CONbits = 0x28f0
                    0x28f4                  C2NBTCFG = 0x28f4
                    0x28f4                  _C2NBTCFG = 0x28f4
                    0x28f4                  _C2NBTCFGbits = 0x28f4
                    0x28f8                  C2DBTCFG = 0x28f8
                    0x28f8                  _C2DBTCFG = 0x28f8
                    0x28f8                  _C2DBTCFGbits = 0x28f8
                    0x28fc                  C2TDC = 0x28fc
                    0x28fc                  _C2TDC = 0x28fc
                    0x28fc                  _C2TDCbits = 0x28fc
                    0x2900                  C2TBC = 0x2900
                    0x2900                  _C2TBC = 0x2900
                    0x2904                  C2TSCON = 0x2904
                    0x2904                  _C2TSCON = 0x2904
                    0x2904                  _C2TSCONbits = 0x2904
                    0x2908                  C2VEC = 0x2908
                    0x2908                  _C2VEC = 0x2908
                    0x2908                  _C2VECbits = 0x2908
                    0x290c                  C2INT = 0x290c
                    0x290c                  _C2INT = 0x290c
                    0x290c                  _C2INTbits = 0x290c
                    0x2910                  C2RXIF = 0x2910
                    0x2910                  _C2RXIF = 0x2910
                    0x2910                  _C2RXIFbits = 0x2910
                    0x2914                  C2TXIF = 0x2914
                    0x2914                  _C2TXIF = 0x2914
                    0x2918                  C2RXOVIF = 0x2918
                    0x2918                  _C2RXOVIF = 0x2918
                    0x2918                  _C2RXOVIFbits = 0x2918
                    0x291c                  C2TXATIF = 0x291c
                    0x291c                  _C2TXATIF = 0x291c
                    0x2920                  C2TXREQ = 0x2920
                    0x2920                  _C2TXREQ = 0x2920
                    0x2924                  C2TREC = 0x2924
                    0x2924                  _C2TREC = 0x2924
                    0x2924                  _C2TRECbits = 0x2924
                    0x2928                  C2BDIAG0 = 0x2928
                    0x2928                  _C2BDIAG0 = 0x2928
                    0x2928                  _C2BDIAG0bits = 0x2928
                    0x292c                  C2BDIAG1 = 0x292c
                    0x292c                  _C2BDIAG1 = 0x292c
                    0x292c                  _C2BDIAG1bits = 0x292c
                    0x2930                  C2TEFCON = 0x2930
                    0x2930                  _C2TEFCON = 0x2930
                    0x2930                  _C2TEFCONbits = 0x2930
                    0x2934                  C2TEFSTA = 0x2934
                    0x2934                  _C2TEFSTA = 0x2934
                    0x2934                  _C2TEFSTAbits = 0x2934
                    0x2938                  C2TEFUA = 0x2938
                    0x2938                  _C2TEFUA = 0x2938
                    0x293c                  C2FIFOBA = 0x293c
                    0x293c                  _C2FIFOBA = 0x293c
                    0x2940                  C2TXQCON = 0x2940
                    0x2940                  _C2TXQCON = 0x2940
                    0x2940                  _C2TXQCONbits = 0x2940
                    0x2944                  C2TXQSTA = 0x2944
                    0x2944                  _C2TXQSTA = 0x2944
                    0x2944                  _C2TXQSTAbits = 0x2944
                    0x2948                  C2TXQUA = 0x2948
                    0x2948                  _C2TXQUA = 0x2948
                    0x294c                  C2FIFOCON1 = 0x294c
                    0x294c                  _C2FIFOCON1 = 0x294c
                    0x294c                  _C2FIFOCON1bits = 0x294c
                    0x2950                  C2FIFOSTA1 = 0x2950
                    0x2950                  _C2FIFOSTA1 = 0x2950
                    0x2950                  _C2FIFOSTA1bits = 0x2950
                    0x2954                  C2FIFOUA1 = 0x2954
                    0x2954                  _C2FIFOUA1 = 0x2954
                    0x2958                  C2FIFOCON2 = 0x2958
                    0x2958                  _C2FIFOCON2 = 0x2958
                    0x2958                  _C2FIFOCON2bits = 0x2958
                    0x295c                  C2FIFOSTA2 = 0x295c
                    0x295c                  _C2FIFOSTA2 = 0x295c
                    0x295c                  _C2FIFOSTA2bits = 0x295c
                    0x2960                  C2FIFOUA2 = 0x2960
                    0x2960                  _C2FIFOUA2 = 0x2960
                    0x2964                  C2FIFOCON3 = 0x2964
                    0x2964                  _C2FIFOCON3 = 0x2964
                    0x2964                  _C2FIFOCON3bits = 0x2964
                    0x2968                  C2FIFOSTA3 = 0x2968
                    0x2968                  _C2FIFOSTA3 = 0x2968
                    0x2968                  _C2FIFOSTA3bits = 0x2968
                    0x296c                  C2FIFOUA3 = 0x296c
                    0x296c                  _C2FIFOUA3 = 0x296c
                    0x2970                  C2FIFOCON4 = 0x2970
                    0x2970                  _C2FIFOCON4 = 0x2970
                    0x2970                  _C2FIFOCON4bits = 0x2970
                    0x2974                  C2FIFOSTA4 = 0x2974
                    0x2974                  _C2FIFOSTA4 = 0x2974
                    0x2974                  _C2FIFOSTA4bits = 0x2974
                    0x2978                  C2FIFOUA4 = 0x2978
                    0x2978                  _C2FIFOUA4 = 0x2978
                    0x297c                  C2FIFOCON5 = 0x297c
                    0x297c                  _C2FIFOCON5 = 0x297c
                    0x297c                  _C2FIFOCON5bits = 0x297c
                    0x2980                  C2FIFOSTA5 = 0x2980
                    0x2980                  _C2FIFOSTA5 = 0x2980
                    0x2980                  _C2FIFOSTA5bits = 0x2980
                    0x2984                  C2FIFOUA5 = 0x2984
                    0x2984                  _C2FIFOUA5 = 0x2984
                    0x2988                  C2FIFOCON6 = 0x2988
                    0x2988                  _C2FIFOCON6 = 0x2988
                    0x2988                  _C2FIFOCON6bits = 0x2988
                    0x298c                  C2FIFOSTA6 = 0x298c
                    0x298c                  _C2FIFOSTA6 = 0x298c
                    0x298c                  _C2FIFOSTA6bits = 0x298c
                    0x2990                  C2FIFOUA6 = 0x2990
                    0x2990                  _C2FIFOUA6 = 0x2990
                    0x2994                  C2FIFOCON7 = 0x2994
                    0x2994                  _C2FIFOCON7 = 0x2994
                    0x2994                  _C2FIFOCON7bits = 0x2994
                    0x2998                  C2FIFOSTA7 = 0x2998
                    0x2998                  _C2FIFOSTA7 = 0x2998
                    0x2998                  _C2FIFOSTA7bits = 0x2998
                    0x299c                  C2FIFOUA7 = 0x299c
                    0x299c                  _C2FIFOUA7 = 0x299c
                    0x29a0                  C2FLTCON0 = 0x29a0
                    0x29a0                  _C2FLTCON0 = 0x29a0
                    0x29a0                  _C2FLTCON0bits = 0x29a0
                    0x29a4                  C2FLTCON1 = 0x29a4
                    0x29a4                  _C2FLTCON1 = 0x29a4
                    0x29a4                  _C2FLTCON1bits = 0x29a4
                    0x29a8                  C2FLTCON2 = 0x29a8
                    0x29a8                  _C2FLTCON2 = 0x29a8
                    0x29a8                  _C2FLTCON2bits = 0x29a8
                    0x29ac                  C2FLTCON3 = 0x29ac
                    0x29ac                  _C2FLTCON3 = 0x29ac
                    0x29ac                  _C2FLTCON3bits = 0x29ac
                    0x29b0                  C2FLTOBJ0 = 0x29b0
                    0x29b0                  _C2FLTOBJ0 = 0x29b0
                    0x29b0                  _C2FLTOBJ0bits = 0x29b0
                    0x29b4                  C2MASK0 = 0x29b4
                    0x29b4                  _C2MASK0 = 0x29b4
                    0x29b4                  _C2MASK0bits = 0x29b4
                    0x29b8                  C2FLTOBJ1 = 0x29b8
                    0x29b8                  _C2FLTOBJ1 = 0x29b8
                    0x29b8                  _C2FLTOBJ1bits = 0x29b8
                    0x29bc                  C2MASK1 = 0x29bc
                    0x29bc                  _C2MASK1 = 0x29bc
                    0x29bc                  _C2MASK1bits = 0x29bc
                    0x29c0                  C2FLTOBJ2 = 0x29c0
                    0x29c0                  _C2FLTOBJ2 = 0x29c0
                    0x29c0                  _C2FLTOBJ2bits = 0x29c0
                    0x29c4                  C2MASK2 = 0x29c4
                    0x29c4                  _C2MASK2 = 0x29c4
                    0x29c4                  _C2MASK2bits = 0x29c4
                    0x29c8                  C2FLTOBJ3 = 0x29c8
                    0x29c8                  _C2FLTOBJ3 = 0x29c8
                    0x29c8                  _C2FLTOBJ3bits = 0x29c8
                    0x29cc                  C2MASK3 = 0x29cc
                    0x29cc                  _C2MASK3 = 0x29cc
                    0x29cc                  _C2MASK3bits = 0x29cc
                    0x29d0                  C2FLTOBJ4 = 0x29d0
                    0x29d0                  _C2FLTOBJ4 = 0x29d0
                    0x29d0                  _C2FLTOBJ4bits = 0x29d0
                    0x29d4                  C2MASK4 = 0x29d4
                    0x29d4                  _C2MASK4 = 0x29d4
                    0x29d4                  _C2MASK4bits = 0x29d4
                    0x29d8                  C2FLTOBJ5 = 0x29d8
                    0x29d8                  _C2FLTOBJ5 = 0x29d8
                    0x29d8                  _C2FLTOBJ5bits = 0x29d8
                    0x29dc                  C2MASK5 = 0x29dc
                    0x29dc                  _C2MASK5 = 0x29dc
                    0x29dc                  _C2MASK5bits = 0x29dc
                    0x29e0                  C2FLTOBJ6 = 0x29e0
                    0x29e0                  _C2FLTOBJ6 = 0x29e0
                    0x29e0                  _C2FLTOBJ6bits = 0x29e0
                    0x29e4                  C2MASK6 = 0x29e4
                    0x29e4                  _C2MASK6 = 0x29e4
                    0x29e4                  _C2MASK6bits = 0x29e4
                    0x29e8                  C2FLTOBJ7 = 0x29e8
                    0x29e8                  _C2FLTOBJ7 = 0x29e8
                    0x29e8                  _C2FLTOBJ7bits = 0x29e8
                    0x29ec                  C2MASK7 = 0x29ec
                    0x29ec                  _C2MASK7 = 0x29ec
                    0x29ec                  _C2MASK7bits = 0x29ec
                    0x29f0                  C2FLTOBJ8 = 0x29f0
                    0x29f0                  _C2FLTOBJ8 = 0x29f0
                    0x29f0                  _C2FLTOBJ8bits = 0x29f0
                    0x29f4                  C2MASK8 = 0x29f4
                    0x29f4                  _C2MASK8 = 0x29f4
                    0x29f4                  _C2MASK8bits = 0x29f4
                    0x29f8                  C2FLTOBJ9 = 0x29f8
                    0x29f8                  _C2FLTOBJ9 = 0x29f8
                    0x29f8                  _C2FLTOBJ9bits = 0x29f8
                    0x29fc                  C2MASK9 = 0x29fc
                    0x29fc                  _C2MASK9 = 0x29fc
                    0x29fc                  _C2MASK9bits = 0x29fc
                    0x2a00                  C2FLTOBJ10 = 0x2a00
                    0x2a00                  _C2FLTOBJ10 = 0x2a00
                    0x2a00                  _C2FLTOBJ10bits = 0x2a00
                    0x2a04                  C2MASK10 = 0x2a04
                    0x2a04                  _C2MASK10 = 0x2a04
                    0x2a04                  _C2MASK10bits = 0x2a04
                    0x2a08                  C2FLTOBJ11 = 0x2a08
                    0x2a08                  _C2FLTOBJ11 = 0x2a08
                    0x2a08                  _C2FLTOBJ11bits = 0x2a08
                    0x2a0c                  C2MASK11 = 0x2a0c
                    0x2a0c                  _C2MASK11 = 0x2a0c
                    0x2a0c                  _C2MASK11bits = 0x2a0c
                    0x2a10                  C2FLTOBJ12 = 0x2a10
                    0x2a10                  _C2FLTOBJ12 = 0x2a10
                    0x2a10                  _C2FLTOBJ12bits = 0x2a10
                    0x2a14                  C2MASK12 = 0x2a14
                    0x2a14                  _C2MASK12 = 0x2a14
                    0x2a14                  _C2MASK12bits = 0x2a14
                    0x2a18                  C2FLTOBJ13 = 0x2a18
                    0x2a18                  _C2FLTOBJ13 = 0x2a18
                    0x2a18                  _C2FLTOBJ13bits = 0x2a18
                    0x2a1c                  C2MASK13 = 0x2a1c
                    0x2a1c                  _C2MASK13 = 0x2a1c
                    0x2a1c                  _C2MASK13bits = 0x2a1c
                    0x2a20                  C2FLTOBJ14 = 0x2a20
                    0x2a20                  _C2FLTOBJ14 = 0x2a20
                    0x2a20                  _C2FLTOBJ14bits = 0x2a20
                    0x2a24                  C2MASK14 = 0x2a24
                    0x2a24                  _C2MASK14 = 0x2a24
                    0x2a24                  _C2MASK14bits = 0x2a24
                    0x2a28                  C2FLTOBJ15 = 0x2a28
                    0x2a28                  _C2FLTOBJ15 = 0x2a28
                    0x2a28                  _C2FLTOBJ15bits = 0x2a28
                    0x2a2c                  C2MASK15 = 0x2a2c
                    0x2a2c                  _C2MASK15 = 0x2a2c
                    0x2a2c                  _C2MASK15bits = 0x2a2c
                    0x3000                  NVMCON = 0x3000
                    0x3000                  _NVMCON = 0x3000
                    0x3000                  _NVMCONbits = 0x3000
                    0x3004                  NVMADR = 0x3004
                    0x3004                  _NVMADR = 0x3004
                    0x3004                  _NVMADRbits = 0x3004
                    0x3008                  NVMDATA0 = 0x3008
                    0x3008                  _NVMDATA0 = 0x3008
                    0x300c                  NVMDATA1 = 0x300c
                    0x300c                  _NVMDATA1 = 0x300c
                    0x3010                  NVMDATA2 = 0x3010
                    0x3010                  _NVMDATA2 = 0x3010
                    0x3014                  NVMDATA3 = 0x3014
                    0x3014                  _NVMDATA3 = 0x3014
                    0x3018                  NVMSRCADR = 0x3018
                    0x3018                  _NVMSRCADR = 0x3018
                    0x3018                  _NVMSRCADRbits = 0x3018
                    0x301c                  NVMECCCON = 0x301c
                    0x301c                  _NVMECCCON = 0x301c
                    0x301c                  _NVMECCCONbits = 0x301c
                    0x3020                  NVMECCSTAT = 0x3020
                    0x3020                  _NVMECCSTAT = 0x3020
                    0x3020                  _NVMECCSTATbits = 0x3020
                    0x3024                  NVMECCFPTR = 0x3024
                    0x3024                  _NVMECCFPTR = 0x3024
                    0x3024                  _NVMECCFPTRbits = 0x3024
                    0x3028                  NVMECCFADDR = 0x3028
                    0x3028                  _NVMECCFADDR = 0x3028
                    0x3028                  _NVMECCFADDRbits = 0x3028
                    0x302c                  NVMECCEADDR = 0x302c
                    0x302c                  _NVMECCEADDR = 0x302c
                    0x302c                  _NVMECCEADDRbits = 0x302c
                    0x3030                  NVMECCEDATA0 = 0x3030
                    0x3030                  _NVMECCEDATA0 = 0x3030
                    0x3034                  NVMECCEDATA1 = 0x3034
                    0x3034                  _NVMECCEDATA1 = 0x3034
                    0x3038                  NVMECCEDATA2 = 0x3038
                    0x3038                  _NVMECCEDATA2 = 0x3038
                    0x303c                  NVMECCEDATA3 = 0x303c
                    0x303c                  _NVMECCEDATA3 = 0x303c
                    0x3040                  NVMECCVAL = 0x3040
                    0x3040                  _NVMECCVAL = 0x3040
                    0x3040                  _NVMECCVALbits = 0x3040
                    0x3044                  NVMECCSYND = 0x3044
                    0x3044                  _NVMECCSYND = 0x3044
                    0x3044                  _NVMECCSYNDbits = 0x3044
                    0x3048                  NVMCRCCON = 0x3048
                    0x3048                  _NVMCRCCON = 0x3048
                    0x3048                  _NVMCRCCONbits = 0x3048
                    0x304c                  NVMCRCST = 0x304c
                    0x304c                  _NVMCRCST = 0x304c
                    0x304c                  _NVMCRCSTbits = 0x304c
                    0x3050                  NVMCRCEND = 0x3050
                    0x3050                  _NVMCRCEND = 0x3050
                    0x3050                  _NVMCRCENDbits = 0x3050
                    0x3054                  NVMCRCSEED = 0x3054
                    0x3054                  _NVMCRCSEED = 0x3054
                    0x3058                  NVMCRCDATA = 0x3058
                    0x3058                  _NVMCRCDATA = 0x3058
                    0x3100                  OSCCTRL = 0x3100
                    0x3100                  _OSCCTRL = 0x3100
                    0x3100                  _OSCCTRLbits = 0x3100
                    0x3104                  OSCCFG = 0x3104
                    0x3104                  _OSCCFG = 0x3104
                    0x3104                  _OSCCFGbits = 0x3104
                    0x3108                  CLKFAIL = 0x3108
                    0x3108                  _CLKFAIL = 0x3108
                    0x3108                  _CLKFAILbits = 0x3108
                    0x310c                  SCSFAIL = 0x310c
                    0x310c                  _SCSFAIL = 0x310c
                    0x310c                  _SCSFAILbits = 0x310c
                    0x3118                  CLK1CON = 0x3118
                    0x3118                  _CLK1CON = 0x3118
                    0x3118                  _CLK1CONbits = 0x3118
                    0x311c                  CLK1DIV = 0x311c
                    0x311c                  _CLK1DIV = 0x311c
                    0x311c                  _CLK1DIVbits = 0x311c
                    0x3120                  CLK2CON = 0x3120
                    0x3120                  _CLK2CON = 0x3120
                    0x3120                  _CLK2CONbits = 0x3120
                    0x3124                  CLK2DIV = 0x3124
                    0x3124                  _CLK2DIV = 0x3124
                    0x3124                  _CLK2DIVbits = 0x3124
                    0x3128                  CLK3CON = 0x3128
                    0x3128                  _CLK3CON = 0x3128
                    0x3128                  _CLK3CONbits = 0x3128
                    0x312c                  CLK3DIV = 0x312c
                    0x312c                  _CLK3DIV = 0x312c
                    0x312c                  _CLK3DIVbits = 0x312c
                    0x3130                  CLK4CON = 0x3130
                    0x3130                  _CLK4CON = 0x3130
                    0x3130                  _CLK4CONbits = 0x3130
                    0x3134                  CLK4DIV = 0x3134
                    0x3134                  _CLK4DIV = 0x3134
                    0x3134                  _CLK4DIVbits = 0x3134
                    0x3138                  CLK5CON = 0x3138
                    0x3138                  _CLK5CON = 0x3138
                    0x3138                  _CLK5CONbits = 0x3138
                    0x313c                  CLK5DIV = 0x313c
                    0x313c                  _CLK5DIV = 0x313c
                    0x313c                  _CLK5DIVbits = 0x313c
                    0x3140                  CLK6CON = 0x3140
                    0x3140                  _CLK6CON = 0x3140
                    0x3140                  _CLK6CONbits = 0x3140
                    0x3144                  CLK6DIV = 0x3144
                    0x3144                  _CLK6DIV = 0x3144
                    0x3144                  _CLK6DIVbits = 0x3144
                    0x3148                  CLK7CON = 0x3148
                    0x3148                  _CLK7CON = 0x3148
                    0x3148                  _CLK7CONbits = 0x3148
                    0x314c                  CLK7DIV = 0x314c
                    0x314c                  _CLK7DIV = 0x314c
                    0x314c                  _CLK7DIVbits = 0x314c
                    0x3150                  CLK8CON = 0x3150
                    0x3150                  _CLK8CON = 0x3150
                    0x3150                  _CLK8CONbits = 0x3150
                    0x3154                  CLK8DIV = 0x3154
                    0x3154                  _CLK8DIV = 0x3154
                    0x3154                  _CLK8DIVbits = 0x3154
                    0x3158                  CLK9CON = 0x3158
                    0x3158                  _CLK9CON = 0x3158
                    0x3158                  _CLK9CONbits = 0x3158
                    0x315c                  CLK9DIV = 0x315c
                    0x315c                  _CLK9DIV = 0x315c
                    0x315c                  _CLK9DIVbits = 0x315c
                    0x3160                  CLK10CON = 0x3160
                    0x3160                  _CLK10CON = 0x3160
                    0x3160                  _CLK10CONbits = 0x3160
                    0x3164                  CLK10DIV = 0x3164
                    0x3164                  _CLK10DIV = 0x3164
                    0x3164                  _CLK10DIVbits = 0x3164
                    0x3168                  CLK11CON = 0x3168
                    0x3168                  _CLK11CON = 0x3168
                    0x3168                  _CLK11CONbits = 0x3168
                    0x316c                  CLK11DIV = 0x316c
                    0x316c                  _CLK11DIV = 0x316c
                    0x316c                  _CLK11DIVbits = 0x316c
                    0x3170                  CLK12CON = 0x3170
                    0x3170                  _CLK12CON = 0x3170
                    0x3170                  _CLK12CONbits = 0x3170
                    0x3174                  CLK12DIV = 0x3174
                    0x3174                  _CLK12DIV = 0x3174
                    0x3174                  _CLK12DIVbits = 0x3174
                    0x3178                  CLK13CON = 0x3178
                    0x3178                  _CLK13CON = 0x3178
                    0x3178                  _CLK13CONbits = 0x3178
                    0x317c                  CLK13DIV = 0x317c
                    0x317c                  _CLK13DIV = 0x317c
                    0x317c                  _CLK13DIVbits = 0x317c
                    0x3180                  CLK14CON = 0x3180
                    0x3180                  _CLK14CON = 0x3180
                    0x3180                  _CLK14CONbits = 0x3180
                    0x3184                  CLK14DIV = 0x3184
                    0x3184                  _CLK14DIV = 0x3184
                    0x3184                  _CLK14DIVbits = 0x3184
                    0x3188                  PLL1CON = 0x3188
                    0x3188                  _PLL1CON = 0x3188
                    0x3188                  _PLL1CONbits = 0x3188
                    0x318c                  PLL1DIV = 0x318c
                    0x318c                  _PLL1DIV = 0x318c
                    0x318c                  _PLL1DIVbits = 0x318c
                    0x3190                  VCO1DIV = 0x3190
                    0x3190                  _VCO1DIV = 0x3190
                    0x3190                  _VCO1DIVbits = 0x3190
                    0x3194                  PLL2CON = 0x3194
                    0x3194                  _PLL2CON = 0x3194
                    0x3194                  _PLL2CONbits = 0x3194
                    0x3198                  PLL2DIV = 0x3198
                    0x3198                  _PLL2DIV = 0x3198
                    0x3198                  _PLL2DIVbits = 0x3198
                    0x319c                  VCO2DIV = 0x319c
                    0x319c                  _VCO2DIV = 0x319c
                    0x319c                  _VCO2DIVbits = 0x319c
                    0x31a0                  RCON = 0x31a0
                    0x31a0                  _RCON = 0x31a0
                    0x31a0                  _RCONbits = 0x31a0
                    0x31a4                  CLKDIAG = 0x31a4
                    0x31a4                  _CLKDIAG = 0x31a4
                    0x31a4                  _CLKDIAGbits = 0x31a4
                    0x3200                  CM1CON = 0x3200
                    0x3200                  _CM1CON = 0x3200
                    0x3200                  _CM1CONbits = 0x3200
                    0x3204                  CM1STAT = 0x3204
                    0x3204                  _CM1STAT = 0x3204
                    0x3204                  _CM1STATbits = 0x3204
                    0x3208                  CM1WINPR = 0x3208
                    0x3208                  _CM1WINPR = 0x3208
                    0x320c                  CM1SEL = 0x320c
                    0x320c                  _CM1SEL = 0x320c
                    0x320c                  _CM1SELbits = 0x320c
                    0x3210                  CM1BUF = 0x3210
                    0x3210                  _CM1BUF = 0x3210
                    0x3214                  CM1SAT = 0x3214
                    0x3214                  _CM1SAT = 0x3214
                    0x3218                  CM1HFAIL = 0x3218
                    0x3218                  _CM1HFAIL = 0x3218
                    0x321c                  CM1LFAIL = 0x321c
                    0x321c                  _CM1LFAIL = 0x321c
                    0x3220                  CM1HWARN = 0x3220
                    0x3220                  _CM1HWARN = 0x3220
                    0x3224                  CM1LWARN = 0x3224
                    0x3224                  _CM1LWARN = 0x3224
                    0x3230                  CM2CON = 0x3230
                    0x3230                  _CM2CON = 0x3230
                    0x3230                  _CM2CONbits = 0x3230
                    0x3234                  CM2STAT = 0x3234
                    0x3234                  _CM2STAT = 0x3234
                    0x3234                  _CM2STATbits = 0x3234
                    0x3238                  CM2WINPR = 0x3238
                    0x3238                  _CM2WINPR = 0x3238
                    0x323c                  CM2SEL = 0x323c
                    0x323c                  _CM2SEL = 0x323c
                    0x323c                  _CM2SELbits = 0x323c
                    0x3240                  CM2BUF = 0x3240
                    0x3240                  _CM2BUF = 0x3240
                    0x3244                  CM2SAT = 0x3244
                    0x3244                  _CM2SAT = 0x3244
                    0x3248                  CM2HFAIL = 0x3248
                    0x3248                  _CM2HFAIL = 0x3248
                    0x324c                  CM2LFAIL = 0x324c
                    0x324c                  _CM2LFAIL = 0x324c
                    0x3250                  CM2HWARN = 0x3250
                    0x3250                  _CM2HWARN = 0x3250
                    0x3254                  CM2LWARN = 0x3254
                    0x3254                  _CM2LWARN = 0x3254
                    0x3260                  CM3CON = 0x3260
                    0x3260                  _CM3CON = 0x3260
                    0x3260                  _CM3CONbits = 0x3260
                    0x3264                  CM3STAT = 0x3264
                    0x3264                  _CM3STAT = 0x3264
                    0x3264                  _CM3STATbits = 0x3264
                    0x3268                  CM3WINPR = 0x3268
                    0x3268                  _CM3WINPR = 0x3268
                    0x326c                  CM3SEL = 0x326c
                    0x326c                  _CM3SEL = 0x326c
                    0x326c                  _CM3SELbits = 0x326c
                    0x3270                  CM3BUF = 0x3270
                    0x3270                  _CM3BUF = 0x3270
                    0x3274                  CM3SAT = 0x3274
                    0x3274                  _CM3SAT = 0x3274
                    0x3278                  CM3HFAIL = 0x3278
                    0x3278                  _CM3HFAIL = 0x3278
                    0x327c                  CM3LFAIL = 0x327c
                    0x327c                  _CM3LFAIL = 0x327c
                    0x3280                  CM3HWARN = 0x3280
                    0x3280                  _CM3HWARN = 0x3280
                    0x3284                  CM3LWARN = 0x3284
                    0x3284                  _CM3LWARN = 0x3284
                    0x3290                  CM4CON = 0x3290
                    0x3290                  _CM4CON = 0x3290
                    0x3290                  _CM4CONbits = 0x3290
                    0x3294                  CM4STAT = 0x3294
                    0x3294                  _CM4STAT = 0x3294
                    0x3294                  _CM4STATbits = 0x3294
                    0x3298                  CM4WINPR = 0x3298
                    0x3298                  _CM4WINPR = 0x3298
                    0x329c                  CM4SEL = 0x329c
                    0x329c                  _CM4SEL = 0x329c
                    0x329c                  _CM4SELbits = 0x329c
                    0x32a0                  CM4BUF = 0x32a0
                    0x32a0                  _CM4BUF = 0x32a0
                    0x32a4                  CM4SAT = 0x32a4
                    0x32a4                  _CM4SAT = 0x32a4
                    0x32a8                  CM4HFAIL = 0x32a8
                    0x32a8                  _CM4HFAIL = 0x32a8
                    0x32ac                  CM4LFAIL = 0x32ac
                    0x32ac                  _CM4LFAIL = 0x32ac
                    0x32b0                  CM4HWARN = 0x32b0
                    0x32b0                  _CM4HWARN = 0x32b0
                    0x32b4                  CM4LWARN = 0x32b4
                    0x32b4                  _CM4LWARN = 0x32b4
                    0x32c0                  FRCTUN = 0x32c0
                    0x32c0                  _FRCTUN = 0x32c0
                    0x32c0                  _FRCTUNbits = 0x32c0
                    0x32c4                  BFRCTUN = 0x32c4
                    0x32c4                  _BFRCTUN = 0x32c4
                    0x32c4                  _BFRCTUNbits = 0x32c4
                    0x32c8                  WDTCON = 0x32c8
                    0x32c8                  _WDTCON = 0x32c8
                    0x32c8                  _WDTCONbits = 0x32c8
                    0x32d0                  RPCON = 0x32d0
                    0x32d0                  _RPCON = 0x32d0
                    0x32d0                  _RPCONbits = 0x32d0
                    0x32d4                  RPINR0 = 0x32d4
                    0x32d4                  _RPINR0 = 0x32d4
                    0x32d4                  _RPINR0bits = 0x32d4
                    0x32d8                  RPINR1 = 0x32d8
                    0x32d8                  _RPINR1 = 0x32d8
                    0x32d8                  _RPINR1bits = 0x32d8
                    0x32dc                  RPINR2 = 0x32dc
                    0x32dc                  _RPINR2 = 0x32dc
                    0x32dc                  _RPINR2bits = 0x32dc
                    0x32e0                  RPINR3 = 0x32e0
                    0x32e0                  _RPINR3 = 0x32e0
                    0x32e0                  _RPINR3bits = 0x32e0
                    0x32e4                  RPINR4 = 0x32e4
                    0x32e4                  _RPINR4 = 0x32e4
                    0x32e4                  _RPINR4bits = 0x32e4
                    0x32e8                  RPINR5 = 0x32e8
                    0x32e8                  _RPINR5 = 0x32e8
                    0x32e8                  _RPINR5bits = 0x32e8
                    0x32ec                  RPINR6 = 0x32ec
                    0x32ec                  _RPINR6 = 0x32ec
                    0x32ec                  _RPINR6bits = 0x32ec
                    0x32f0                  RPINR7 = 0x32f0
                    0x32f0                  _RPINR7 = 0x32f0
                    0x32f0                  _RPINR7bits = 0x32f0
                    0x32f4                  RPINR8 = 0x32f4
                    0x32f4                  _RPINR8 = 0x32f4
                    0x32f4                  _RPINR8bits = 0x32f4
                    0x32f8                  RPINR9 = 0x32f8
                    0x32f8                  _RPINR9 = 0x32f8
                    0x32f8                  _RPINR9bits = 0x32f8
                    0x32fc                  RPINR10 = 0x32fc
                    0x32fc                  _RPINR10 = 0x32fc
                    0x32fc                  _RPINR10bits = 0x32fc
                    0x3300                  RPINR11 = 0x3300
                    0x3300                  _RPINR11 = 0x3300
                    0x3300                  _RPINR11bits = 0x3300
                    0x3304                  RPINR12 = 0x3304
                    0x3304                  _RPINR12 = 0x3304
                    0x3304                  _RPINR12bits = 0x3304
                    0x3308                  RPINR13 = 0x3308
                    0x3308                  _RPINR13 = 0x3308
                    0x3308                  _RPINR13bits = 0x3308
                    0x330c                  RPINR14 = 0x330c
                    0x330c                  _RPINR14 = 0x330c
                    0x330c                  _RPINR14bits = 0x330c
                    0x3310                  RPINR15 = 0x3310
                    0x3310                  _RPINR15 = 0x3310
                    0x3310                  _RPINR15bits = 0x3310
                    0x3314                  RPINR16 = 0x3314
                    0x3314                  _RPINR16 = 0x3314
                    0x3314                  _RPINR16bits = 0x3314
                    0x3318                  RPINR17 = 0x3318
                    0x3318                  _RPINR17 = 0x3318
                    0x3318                  _RPINR17bits = 0x3318
                    0x331c                  RPINR18 = 0x331c
                    0x331c                  _RPINR18 = 0x331c
                    0x331c                  _RPINR18bits = 0x331c
                    0x3320                  RPINR19 = 0x3320
                    0x3320                  _RPINR19 = 0x3320
                    0x3320                  _RPINR19bits = 0x3320
                    0x3324                  RPINR20 = 0x3324
                    0x3324                  _RPINR20 = 0x3324
                    0x3324                  _RPINR20bits = 0x3324
                    0x3328                  RPINR21 = 0x3328
                    0x3328                  _RPINR21 = 0x3328
                    0x3328                  _RPINR21bits = 0x3328
                    0x332c                  RPINR22 = 0x332c
                    0x332c                  _RPINR22 = 0x332c
                    0x332c                  _RPINR22bits = 0x332c
                    0x3330                  RPINR23 = 0x3330
                    0x3330                  _RPINR23 = 0x3330
                    0x3330                  _RPINR23bits = 0x3330
                    0x3334                  RPINR24 = 0x3334
                    0x3334                  _RPINR24 = 0x3334
                    0x3334                  _RPINR24bits = 0x3334
                    0x3338                  RPINR25 = 0x3338
                    0x3338                  _RPINR25 = 0x3338
                    0x3338                  _RPINR25bits = 0x3338
                    0x333c                  RPINR26 = 0x333c
                    0x333c                  _RPINR26 = 0x333c
                    0x333c                  _RPINR26bits = 0x333c
                    0x3340                  RPINR27 = 0x3340
                    0x3340                  _RPINR27 = 0x3340
                    0x3340                  _RPINR27bits = 0x3340
                    0x3350                  RPOR0 = 0x3350
                    0x3350                  _RPOR0 = 0x3350
                    0x3350                  _RPOR0bits = 0x3350
                    0x3354                  RPOR1 = 0x3354
                    0x3354                  _RPOR1 = 0x3354
                    0x3354                  _RPOR1bits = 0x3354
                    0x3358                  RPOR2 = 0x3358
                    0x3358                  _RPOR2 = 0x3358
                    0x3358                  _RPOR2bits = 0x3358
                    0x335c                  RPOR3 = 0x335c
                    0x335c                  _RPOR3 = 0x335c
                    0x335c                  _RPOR3bits = 0x335c
                    0x3360                  RPOR4 = 0x3360
                    0x3360                  _RPOR4 = 0x3360
                    0x3360                  _RPOR4bits = 0x3360
                    0x3364                  RPOR5 = 0x3364
                    0x3364                  _RPOR5 = 0x3364
                    0x3364                  _RPOR5bits = 0x3364
                    0x3368                  RPOR6 = 0x3368
                    0x3368                  _RPOR6 = 0x3368
                    0x3368                  _RPOR6bits = 0x3368
                    0x336c                  RPOR7 = 0x336c
                    0x336c                  _RPOR7 = 0x336c
                    0x336c                  _RPOR7bits = 0x336c
                    0x3370                  RPOR8 = 0x3370
                    0x3370                  _RPOR8 = 0x3370
                    0x3370                  _RPOR8bits = 0x3370
                    0x3374                  RPOR9 = 0x3374
                    0x3374                  _RPOR9 = 0x3374
                    0x3374                  _RPOR9bits = 0x3374
                    0x3378                  RPOR10 = 0x3378
                    0x3378                  _RPOR10 = 0x3378
                    0x3378                  _RPOR10bits = 0x3378
                    0x337c                  RPOR11 = 0x337c
                    0x337c                  _RPOR11 = 0x337c
                    0x337c                  _RPOR11bits = 0x337c
                    0x3380                  RPOR12 = 0x3380
                    0x3380                  _RPOR12 = 0x3380
                    0x3380                  _RPOR12bits = 0x3380
                    0x3384                  RPOR13 = 0x3384
                    0x3384                  _RPOR13 = 0x3384
                    0x3384                  _RPOR13bits = 0x3384
                    0x3388                  RPOR14 = 0x3388
                    0x3388                  _RPOR14 = 0x3388
                    0x3388                  _RPOR14bits = 0x3388
                    0x338c                  RPOR15 = 0x338c
                    0x338c                  _RPOR15 = 0x338c
                    0x338c                  _RPOR15bits = 0x338c
                    0x3390                  RPOR16 = 0x3390
                    0x3390                  _RPOR16 = 0x3390
                    0x3390                  _RPOR16bits = 0x3390
                    0x3394                  RPOR17 = 0x3394
                    0x3394                  _RPOR17 = 0x3394
                    0x3394                  _RPOR17bits = 0x3394
                    0x3398                  RPOR18 = 0x3398
                    0x3398                  _RPOR18 = 0x3398
                    0x3398                  _RPOR18bits = 0x3398
                    0x33a0                  RPOR20 = 0x33a0
                    0x33a0                  _RPOR20 = 0x33a0
                    0x33a0                  _RPOR20bits = 0x33a0
                    0x33a4                  RPOR21 = 0x33a4
                    0x33a4                  _RPOR21 = 0x33a4
                    0x33a4                  _RPOR21bits = 0x33a4
                    0x33a8                  RPOR22 = 0x33a8
                    0x33a8                  _RPOR22 = 0x33a8
                    0x33a8                  _RPOR22bits = 0x33a8
                    0x33b0                  RPOR24 = 0x33b0
                    0x33b0                  _RPOR24 = 0x33b0
                    0x33b0                  _RPOR24bits = 0x33b0
                    0x33b4                  RPOR25 = 0x33b4
                    0x33b4                  _RPOR25 = 0x33b4
                    0x33b4                  _RPOR25bits = 0x33b4
                    0x33b8                  RPOR26 = 0x33b8
                    0x33b8                  _RPOR26 = 0x33b8
                    0x33b8                  _RPOR26bits = 0x33b8
                    0x33c0                  RPOR28 = 0x33c0
                    0x33c0                  _RPOR28 = 0x33c0
                    0x33c0                  _RPOR28bits = 0x33c0
                    0x33d0                  RPOR32 = 0x33d0
                    0x33d0                  _RPOR32 = 0x33d0
                    0x33d0                  _RPOR32bits = 0x33d0
                    0x33d4                  RPOR33 = 0x33d4
                    0x33d4                  _RPOR33 = 0x33d4
                    0x33d4                  _RPOR33bits = 0x33d4
                    0x33d8                  RPOR34 = 0x33d8
                    0x33d8                  _RPOR34 = 0x33d8
                    0x33d8                  _RPOR34bits = 0x33d8
                    0x33dc                  RPOR35 = 0x33dc
                    0x33dc                  _RPOR35 = 0x33dc
                    0x33dc                  _RPOR35bits = 0x33dc
                    0x3500                  PTGCON = 0x3500
                    0x3500                  _PTGCON = 0x3500
                    0x3500                  _PTGCONbits = 0x3500
                    0x3504                  PTGBTE = 0x3504
                    0x3504                  _PTGBTE = 0x3504
                    0x3508                  PTGHOLD = 0x3508
                    0x3508                  _PTGHOLD = 0x3508
                    0x3508                  _PTGHOLDbits = 0x3508
                    0x350c                  PTGT0LIM = 0x350c
                    0x350c                  _PTGT0LIM = 0x350c
                    0x350c                  _PTGT0LIMbits = 0x350c
                    0x3510                  PTGT1LIM = 0x3510
                    0x3510                  _PTGT1LIM = 0x3510
                    0x3510                  _PTGT1LIMbits = 0x3510
                    0x3514                  PTGSDLIM = 0x3514
                    0x3514                  _PTGSDLIM = 0x3514
                    0x3514                  _PTGSDLIMbits = 0x3514
                    0x3518                  PTGC0LIM = 0x3518
                    0x3518                  _PTGC0LIM = 0x3518
                    0x3518                  _PTGC0LIMbits = 0x3518
                    0x351c                  PTGC1LIM = 0x351c
                    0x351c                  _PTGC1LIM = 0x351c
                    0x351c                  _PTGC1LIMbits = 0x351c
                    0x3520                  PTGADJ = 0x3520
                    0x3520                  _PTGADJ = 0x3520
                    0x3520                  _PTGADJbits = 0x3520
                    0x3524                  PTGL0 = 0x3524
                    0x3524                  _PTGL0 = 0x3524
                    0x3524                  _PTGL0bits = 0x3524
                    0x3528                  PTGQPTR = 0x3528
                    0x3528                  _PTGQPTR = 0x3528
                    0x3528                  _PTGQPTRbits = 0x3528
                    0x3530                  PTGQUE0 = 0x3530
                    0x3530                  _PTGQUE0 = 0x3530
                    0x3530                  _PTGQUE0bits = 0x3530
                    0x3534                  PTGQUE1 = 0x3534
                    0x3534                  _PTGQUE1 = 0x3534
                    0x3534                  _PTGQUE1bits = 0x3534
                    0x3538                  PTGQUE2 = 0x3538
                    0x3538                  _PTGQUE2 = 0x3538
                    0x3538                  _PTGQUE2bits = 0x3538
                    0x353c                  PTGQUE3 = 0x353c
                    0x353c                  _PTGQUE3 = 0x353c
                    0x353c                  _PTGQUE3bits = 0x353c
                    0x3540                  PTGQUE4 = 0x3540
                    0x3540                  _PTGQUE4 = 0x3540
                    0x3540                  _PTGQUE4bits = 0x3540
                    0x3544                  PTGQUE5 = 0x3544
                    0x3544                  _PTGQUE5 = 0x3544
                    0x3544                  _PTGQUE5bits = 0x3544
                    0x3548                  PTGQUE6 = 0x3548
                    0x3548                  _PTGQUE6 = 0x3548
                    0x3548                  _PTGQUE6bits = 0x3548
                    0x354c                  PTGQUE7 = 0x354c
                    0x354c                  _PTGQUE7 = 0x354c
                    0x354c                  _PTGQUE7bits = 0x354c
                    0x3580                  RAMXECCCON = 0x3580
                    0x3580                  _RAMXECCCON = 0x3580
                    0x3580                  _RAMXECCCONbits = 0x3580
                    0x3584                  RAMXECCSTAT = 0x3584
                    0x3584                  _RAMXECCSTAT = 0x3584
                    0x3584                  _RAMXECCSTATbits = 0x3584
                    0x3588                  RAMXECCFPTR = 0x3588
                    0x3588                  _RAMXECCFPTR = 0x3588
                    0x3588                  _RAMXECCFPTRbits = 0x3588
                    0x358c                  RAMXECCFADDR = 0x358c
                    0x358c                  _RAMXECCFADDR = 0x358c
                    0x3590                  RAMXECCEADDR = 0x3590
                    0x3590                  _RAMXECCEADDR = 0x3590
                    0x3594                  RAMXECCEDATA = 0x3594
                    0x3594                  _RAMXECCEDATA = 0x3594
                    0x3598                  RAMXECCVAL = 0x3598
                    0x3598                  _RAMXECCVAL = 0x3598
                    0x3598                  _RAMXECCVALbits = 0x3598
                    0x359c                  RAMXECCSYND = 0x359c
                    0x359c                  _RAMXECCSYND = 0x359c
                    0x359c                  _RAMXECCSYNDbits = 0x359c
                    0x35a0                  PWBXECCCON = 0x35a0
                    0x35a0                  _PWBXECCCON = 0x35a0
                    0x35a0                  _PWBXECCCONbits = 0x35a0
                    0x35a4                  PWBXECCSTAT = 0x35a4
                    0x35a4                  _PWBXECCSTAT = 0x35a4
                    0x35a4                  _PWBXECCSTATbits = 0x35a4
                    0x35a8                  PWBXECCFPTR = 0x35a8
                    0x35a8                  _PWBXECCFPTR = 0x35a8
                    0x35a8                  _PWBXECCFPTRbits = 0x35a8
                    0x35ac                  PWBXECCFADDR = 0x35ac
                    0x35ac                  _PWBXECCFADDR = 0x35ac
                    0x35b0                  PWBXECCEADDR = 0x35b0
                    0x35b0                  _PWBXECCEADDR = 0x35b0
                    0x35b4                  PWBXECCEDATA = 0x35b4
                    0x35b4                  _PWBXECCEDATA = 0x35b4
                    0x35b8                  PWBXECCVAL = 0x35b8
                    0x35b8                  _PWBXECCVAL = 0x35b8
                    0x35b8                  _PWBXECCVALbits = 0x35b8
                    0x35bc                  PWBXECCSYND = 0x35bc
                    0x35bc                  _PWBXECCSYND = 0x35bc
                    0x35bc                  _PWBXECCSYNDbits = 0x35bc
                    0x35c0                  RAMYECCCON = 0x35c0
                    0x35c0                  _RAMYECCCON = 0x35c0
                    0x35c0                  _RAMYECCCONbits = 0x35c0
                    0x35c4                  RAMYECCSTAT = 0x35c4
                    0x35c4                  _RAMYECCSTAT = 0x35c4
                    0x35c4                  _RAMYECCSTATbits = 0x35c4
                    0x35c8                  RAMYECCFPTR = 0x35c8
                    0x35c8                  _RAMYECCFPTR = 0x35c8
                    0x35c8                  _RAMYECCFPTRbits = 0x35c8
                    0x35cc                  RAMYECCFADDR = 0x35cc
                    0x35cc                  _RAMYECCFADDR = 0x35cc
                    0x35d0                  RAMYECCEADDR = 0x35d0
                    0x35d0                  _RAMYECCEADDR = 0x35d0
                    0x35d4                  RAMYECCEDATA = 0x35d4
                    0x35d4                  _RAMYECCEDATA = 0x35d4
                    0x35d8                  RAMYECCVAL = 0x35d8
                    0x35d8                  _RAMYECCVAL = 0x35d8
                    0x35d8                  _RAMYECCVALbits = 0x35d8
                    0x35dc                  RAMYECCSYND = 0x35dc
                    0x35dc                  _RAMYECCSYND = 0x35dc
                    0x35dc                  _RAMYECCSYNDbits = 0x35dc
                    0x35e0                  PWBYECCCON = 0x35e0
                    0x35e0                  _PWBYECCCON = 0x35e0
                    0x35e0                  _PWBYECCCONbits = 0x35e0
                    0x35e4                  PWBYECCSTAT = 0x35e4
                    0x35e4                  _PWBYECCSTAT = 0x35e4
                    0x35e4                  _PWBYECCSTATbits = 0x35e4
                    0x35e8                  PWBYECCFPTR = 0x35e8
                    0x35e8                  _PWBYECCFPTR = 0x35e8
                    0x35e8                  _PWBYECCFPTRbits = 0x35e8
                    0x35ec                  PWBYECCFADDR = 0x35ec
                    0x35ec                  _PWBYECCFADDR = 0x35ec
                    0x35f0                  PWBYECCEADDR = 0x35f0
                    0x35f0                  _PWBYECCEADDR = 0x35f0
                    0x35f4                  PWBYECCEDATA = 0x35f4
                    0x35f4                  _PWBYECCEDATA = 0x35f4
                    0x35f8                  PWBYECCVAL = 0x35f8
                    0x35f8                  _PWBYECCVAL = 0x35f8
                    0x35f8                  _PWBYECCVALbits = 0x35f8
                    0x35fc                  PWBYECCSYND = 0x35fc
                    0x35fc                  _PWBYECCSYND = 0x35fc
                    0x35fc                  _PWBYECCSYNDbits = 0x35fc
                    0x3640                  ANSELA = 0x3640
                    0x3640                  _ANSELA = 0x3640
                    0x3640                  _ANSELAbits = 0x3640
                    0x3644                  ODCA = 0x3644
                    0x3644                  _ODCA = 0x3644
                    0x3644                  _ODCAbits = 0x3644
                    0x3648                  CNPUA = 0x3648
                    0x3648                  _CNPUA = 0x3648
                    0x3648                  _CNPUAbits = 0x3648
                    0x364c                  CNPDA = 0x364c
                    0x364c                  _CNPDA = 0x364c
                    0x364c                  _CNPDAbits = 0x364c
                    0x3650                  CNCONA = 0x3650
                    0x3650                  _CNCONA = 0x3650
                    0x3650                  _CNCONAbits = 0x3650
                    0x3654                  CNEN0A = 0x3654
                    0x3654                  _CNEN0A = 0x3654
                    0x3654                  _CNEN0Abits = 0x3654
                    0x3658                  CNEN1A = 0x3658
                    0x3658                  _CNEN1A = 0x3658
                    0x3658                  _CNEN1Abits = 0x3658
                    0x3664                  ANSELB = 0x3664
                    0x3664                  _ANSELB = 0x3664
                    0x3664                  _ANSELBbits = 0x3664
                    0x3668                  ODCB = 0x3668
                    0x3668                  _ODCB = 0x3668
                    0x3668                  _ODCBbits = 0x3668
                    0x366c                  CNPUB = 0x366c
                    0x366c                  _CNPUB = 0x366c
                    0x366c                  _CNPUBbits = 0x366c
                    0x3670                  CNPDB = 0x3670
                    0x3670                  _CNPDB = 0x3670
                    0x3670                  _CNPDBbits = 0x3670
                    0x3674                  CNCONB = 0x3674
                    0x3674                  _CNCONB = 0x3674
                    0x3674                  _CNCONBbits = 0x3674
                    0x3678                  CNEN0B = 0x3678
                    0x3678                  _CNEN0B = 0x3678
                    0x3678                  _CNEN0Bbits = 0x3678
                    0x367c                  CNEN1B = 0x367c
                    0x367c                  _CNEN1B = 0x367c
                    0x367c                  _CNEN1Bbits = 0x367c
                    0x3688                  ANSELC = 0x3688
                    0x3688                  _ANSELC = 0x3688
                    0x368c                  ODCC = 0x368c
                    0x368c                  _ODCC = 0x368c
                    0x368c                  _ODCCbits = 0x368c
                    0x3690                  CNPUC = 0x3690
                    0x3690                  _CNPUC = 0x3690
                    0x3690                  _CNPUCbits = 0x3690
                    0x3694                  CNPDC = 0x3694
                    0x3694                  _CNPDC = 0x3694
                    0x3694                  _CNPDCbits = 0x3694
                    0x3698                  CNCONC = 0x3698
                    0x3698                  _CNCONC = 0x3698
                    0x3698                  _CNCONCbits = 0x3698
                    0x369c                  CNEN0C = 0x369c
                    0x369c                  _CNEN0C = 0x369c
                    0x369c                  _CNEN0Cbits = 0x369c
                    0x36a0                  CNEN1C = 0x36a0
                    0x36a0                  _CNEN1C = 0x36a0
                    0x36a0                  _CNEN1Cbits = 0x36a0
                    0x36ac                  ANSELD = 0x36ac
                    0x36ac                  _ANSELD = 0x36ac
                    0x36b0                  ODCD = 0x36b0
                    0x36b0                  _ODCD = 0x36b0
                    0x36b0                  _ODCDbits = 0x36b0
                    0x36b4                  CNPUD = 0x36b4
                    0x36b4                  _CNPUD = 0x36b4
                    0x36b4                  _CNPUDbits = 0x36b4
                    0x36b8                  CNPDD = 0x36b8
                    0x36b8                  _CNPDD = 0x36b8
                    0x36b8                  _CNPDDbits = 0x36b8
                    0x36bc                  CNCOND = 0x36bc
                    0x36bc                  _CNCOND = 0x36bc
                    0x36bc                  _CNCONDbits = 0x36bc
                    0x36c0                  CNEN0D = 0x36c0
                    0x36c0                  _CNEN0D = 0x36c0
                    0x36c0                  _CNEN0Dbits = 0x36c0
                    0x36c4                  CNEN1D = 0x36c4
                    0x36c4                  _CNEN1D = 0x36c4
                    0x36c4                  _CNEN1Dbits = 0x36c4
                    0x36d0                  ANSELE = 0x36d0
                    0x36d0                  _ANSELE = 0x36d0
                    0x36d0                  _ANSELEbits = 0x36d0
                    0x36d4                  ODCE = 0x36d4
                    0x36d4                  _ODCE = 0x36d4
                    0x36d4                  _ODCEbits = 0x36d4
                    0x36d8                  CNPUE = 0x36d8
                    0x36d8                  _CNPUE = 0x36d8
                    0x36d8                  _CNPUEbits = 0x36d8
                    0x36dc                  CNPDE = 0x36dc
                    0x36dc                  _CNPDE = 0x36dc
                    0x36dc                  _CNPDEbits = 0x36dc
                    0x36e0                  CNCONE = 0x36e0
                    0x36e0                  _CNCONE = 0x36e0
                    0x36e0                  _CNCONEbits = 0x36e0
                    0x36e4                  CNEN0E = 0x36e4
                    0x36e4                  _CNEN0E = 0x36e4
                    0x36e4                  _CNEN0Ebits = 0x36e4
                    0x36e8                  CNEN1E = 0x36e8
                    0x36e8                  _CNEN1E = 0x36e8
                    0x36e8                  _CNEN1Ebits = 0x36e8
                    0x36f4                  ANSELF = 0x36f4
                    0x36f4                  _ANSELF = 0x36f4
                    0x36f4                  _ANSELFbits = 0x36f4
                    0x36f8                  ODCF = 0x36f8
                    0x36f8                  _ODCF = 0x36f8
                    0x36f8                  _ODCFbits = 0x36f8
                    0x36fc                  CNPUF = 0x36fc
                    0x36fc                  _CNPUF = 0x36fc
                    0x36fc                  _CNPUFbits = 0x36fc
                    0x3700                  CNPDF = 0x3700
                    0x3700                  _CNPDF = 0x3700
                    0x3700                  _CNPDFbits = 0x3700
                    0x3704                  CNCONF = 0x3704
                    0x3704                  _CNCONF = 0x3704
                    0x3704                  _CNCONFbits = 0x3704
                    0x3708                  CNEN0F = 0x3708
                    0x3708                  _CNEN0F = 0x3708
                    0x3708                  _CNEN0Fbits = 0x3708
                    0x370c                  CNEN1F = 0x370c
                    0x370c                  _CNEN1F = 0x370c
                    0x370c                  _CNEN1Fbits = 0x370c
                    0x3718                  ANSELG = 0x3718
                    0x3718                  _ANSELG = 0x3718
                    0x371c                  ODCG = 0x371c
                    0x371c                  _ODCG = 0x371c
                    0x371c                  _ODCGbits = 0x371c
                    0x3720                  CNPUG = 0x3720
                    0x3720                  _CNPUG = 0x3720
                    0x3720                  _CNPUGbits = 0x3720
                    0x3724                  CNPDG = 0x3724
                    0x3724                  _CNPDG = 0x3724
                    0x3724                  _CNPDGbits = 0x3724
                    0x3728                  CNCONG = 0x3728
                    0x3728                  _CNCONG = 0x3728
                    0x3728                  _CNCONGbits = 0x3728
                    0x372c                  CNEN0G = 0x372c
                    0x372c                  _CNEN0G = 0x372c
                    0x372c                  _CNEN0Gbits = 0x372c
                    0x3730                  CNEN1G = 0x3730
                    0x3730                  _CNEN1G = 0x3730
                    0x3730                  _CNEN1Gbits = 0x3730
                    0x373c                  ANSELH = 0x373c
                    0x373c                  _ANSELH = 0x373c
                    0x3740                  ODCH = 0x3740
                    0x3740                  _ODCH = 0x3740
                    0x3740                  _ODCHbits = 0x3740
                    0x3744                  CNPUH = 0x3744
                    0x3744                  _CNPUH = 0x3744
                    0x3744                  _CNPUHbits = 0x3744
                    0x3748                  CNPDH = 0x3748
                    0x3748                  _CNPDH = 0x3748
                    0x3748                  _CNPDHbits = 0x3748
                    0x374c                  CNCONH = 0x374c
                    0x374c                  _CNCONH = 0x374c
                    0x374c                  _CNCONHbits = 0x374c
                    0x3750                  CNEN0H = 0x3750
                    0x3750                  _CNEN0H = 0x3750
                    0x3750                  _CNEN0Hbits = 0x3750
                    0x3754                  CNEN1H = 0x3754
                    0x3754                  _CNEN1H = 0x3754
                    0x3754                  _CNEN1Hbits = 0x3754
                    0x3a00                  DMTCON = 0x3a00
                    0x3a00                  _DMTCON = 0x3a00
                    0x3a00                  _DMTCONbits = 0x3a00
                    0x3a04                  DMTPRECLR = 0x3a04
                    0x3a04                  _DMTPRECLR = 0x3a04
                    0x3a04                  _DMTPRECLRbits = 0x3a04
                    0x3a08                  DMTCLR = 0x3a08
                    0x3a08                  _DMTCLR = 0x3a08
                    0x3a08                  _DMTCLRbits = 0x3a08
                    0x3a0c                  DMTSTAT = 0x3a0c
                    0x3a0c                  _DMTSTAT = 0x3a0c
                    0x3a0c                  _DMTSTATbits = 0x3a0c
                    0x3a10                  DMTCNT = 0x3a10
                    0x3a10                  _DMTCNT = 0x3a10
                    0x3a14                  PSCNT = 0x3a14
                    0x3a14                  _PSCNT = 0x3a14
                    0x3a18                  PSINTV = 0x3a18
                    0x3a18                  _PSINTV = 0x3a18
                    0x3a1c                  PPPC = 0x3a1c
                    0x3a1c                  _PPPC = 0x3a1c
                    0x3a1c                  _PPPCbits = 0x3a1c
                    0x3a20                  PPC = 0x3a20
                    0x3a20                  _PPC = 0x3a20
                    0x3a20                  _PPCbits = 0x3a20
                    0x3a44                  PMD1 = 0x3a44
                    0x3a44                  _PMD1 = 0x3a44
                    0x3a44                  _PMD1bits = 0x3a44
                    0x3a48                  PMD2 = 0x3a48
                    0x3a48                  _PMD2 = 0x3a48
                    0x3a48                  _PMD2bits = 0x3a48
                    0x3a4c                  PMD3 = 0x3a4c
                    0x3a4c                  _PMD3 = 0x3a4c
                    0x3a4c                  _PMD3bits = 0x3a4c
                    0x3a50                  PMD4 = 0x3a50
                    0x3a50                  _PMD4 = 0x3a50
                    0x3a50                  _PMD4bits = 0x3a50
                    0x3a60                  CLC1CON = 0x3a60
                    0x3a60                  _CLC1CON = 0x3a60
                    0x3a60                  _CLC1CONbits = 0x3a60
                    0x3a64                  CLC1SEL = 0x3a64
                    0x3a64                  _CLC1SEL = 0x3a64
                    0x3a64                  _CLC1SELbits = 0x3a64
                    0x3a68                  CLC1GLS = 0x3a68
                    0x3a68                  _CLC1GLS = 0x3a68
                    0x3a68                  _CLC1GLSbits = 0x3a68
                    0x3a70                  CLC2CON = 0x3a70
                    0x3a70                  _CLC2CON = 0x3a70
                    0x3a70                  _CLC2CONbits = 0x3a70
                    0x3a74                  CLC2SEL = 0x3a74
                    0x3a74                  _CLC2SEL = 0x3a74
                    0x3a74                  _CLC2SELbits = 0x3a74
                    0x3a78                  CLC2GLS = 0x3a78
                    0x3a78                  _CLC2GLS = 0x3a78
                    0x3a78                  _CLC2GLSbits = 0x3a78
                    0x3a80                  CLC3CON = 0x3a80
                    0x3a80                  _CLC3CON = 0x3a80
                    0x3a80                  _CLC3CONbits = 0x3a80
                    0x3a84                  CLC3SEL = 0x3a84
                    0x3a84                  _CLC3SEL = 0x3a84
                    0x3a84                  _CLC3SELbits = 0x3a84
                    0x3a88                  CLC3GLS = 0x3a88
                    0x3a88                  _CLC3GLS = 0x3a88
                    0x3a88                  _CLC3GLSbits = 0x3a88
                    0x3a90                  CLC4CON = 0x3a90
                    0x3a90                  _CLC4CON = 0x3a90
                    0x3a90                  _CLC4CONbits = 0x3a90
                    0x3a94                  CLC4SEL = 0x3a94
                    0x3a94                  _CLC4SEL = 0x3a94
                    0x3a94                  _CLC4SELbits = 0x3a94
                    0x3a98                  CLC4GLS = 0x3a98
                    0x3a98                  _CLC4GLS = 0x3a98
                    0x3a98                  _CLC4GLSbits = 0x3a98
                    0x3aa0                  CLC5CON = 0x3aa0
                    0x3aa0                  _CLC5CON = 0x3aa0
                    0x3aa0                  _CLC5CONbits = 0x3aa0
                    0x3aa4                  CLC5SEL = 0x3aa4
                    0x3aa4                  _CLC5SEL = 0x3aa4
                    0x3aa4                  _CLC5SELbits = 0x3aa4
                    0x3aa8                  CLC5GLS = 0x3aa8
                    0x3aa8                  _CLC5GLS = 0x3aa8
                    0x3aa8                  _CLC5GLSbits = 0x3aa8
                    0x3ab0                  CLC6CON = 0x3ab0
                    0x3ab0                  _CLC6CON = 0x3ab0
                    0x3ab0                  _CLC6CONbits = 0x3ab0
                    0x3ab4                  CLC6SEL = 0x3ab4
                    0x3ab4                  _CLC6SEL = 0x3ab4
                    0x3ab4                  _CLC6SELbits = 0x3ab4
                    0x3ab8                  CLC6GLS = 0x3ab8
                    0x3ab8                  _CLC6GLS = 0x3ab8
                    0x3ab8                  _CLC6GLSbits = 0x3ab8
                    0x3ac0                  CLC7CON = 0x3ac0
                    0x3ac0                  _CLC7CON = 0x3ac0
                    0x3ac0                  _CLC7CONbits = 0x3ac0
                    0x3ac4                  CLC7SEL = 0x3ac4
                    0x3ac4                  _CLC7SEL = 0x3ac4
                    0x3ac4                  _CLC7SELbits = 0x3ac4
                    0x3ac8                  CLC7GLS = 0x3ac8
                    0x3ac8                  _CLC7GLS = 0x3ac8
                    0x3ac8                  _CLC7GLSbits = 0x3ac8
                    0x3ad0                  CLC8CON = 0x3ad0
                    0x3ad0                  _CLC8CON = 0x3ad0
                    0x3ad0                  _CLC8CONbits = 0x3ad0
                    0x3ad4                  CLC8SEL = 0x3ad4
                    0x3ad4                  _CLC8SEL = 0x3ad4
                    0x3ad4                  _CLC8SELbits = 0x3ad4
                    0x3ad8                  CLC8GLS = 0x3ad8
                    0x3ad8                  _CLC8GLS = 0x3ad8
                    0x3ad8                  _CLC8GLSbits = 0x3ad8
                    0x3ae0                  CLC9CON = 0x3ae0
                    0x3ae0                  _CLC9CON = 0x3ae0
                    0x3ae0                  _CLC9CONbits = 0x3ae0
                    0x3ae4                  CLC9SEL = 0x3ae4
                    0x3ae4                  _CLC9SEL = 0x3ae4
                    0x3ae4                  _CLC9SELbits = 0x3ae4
                    0x3ae8                  CLC9GLS = 0x3ae8
                    0x3ae8                  _CLC9GLS = 0x3ae8
                    0x3ae8                  _CLC9GLSbits = 0x3ae8
                    0x3af0                  CLC10CON = 0x3af0
                    0x3af0                  _CLC10CON = 0x3af0
                    0x3af0                  _CLC10CONbits = 0x3af0
                    0x3af4                  CLC10SEL = 0x3af4
                    0x3af4                  _CLC10SEL = 0x3af4
                    0x3af4                  _CLC10SELbits = 0x3af4
                    0x3af8                  CLC10GLS = 0x3af8
                    0x3af8                  _CLC10GLS = 0x3af8
                    0x3af8                  _CLC10GLSbits = 0x3af8
                    0x3b00                  MBISTCON = 0x3b00
                    0x3b00                  _MBISTCON = 0x3b00
                    0x3b00                  _MBISTCONbits = 0x3b00
                    0x3b04                  IBIASCON = 0x3b04
                    0x3b04                  _IBIASCON = 0x3b04
                    0x3b04                  _IBIASCONbits = 0x3b04
                    0x3b08                  AMP1CON1 = 0x3b08
                    0x3b08                  _AMP1CON1 = 0x3b08
                    0x3b08                  _AMP1CON1bits = 0x3b08
                    0x3b0c                  AMP1CON2 = 0x3b0c
                    0x3b0c                  _AMP1CON2 = 0x3b0c
                    0x3b0c                  _AMP1CON2bits = 0x3b0c
                    0x3b10                  AMP2CON1 = 0x3b10
                    0x3b10                  _AMP2CON1 = 0x3b10
                    0x3b10                  _AMP2CON1bits = 0x3b10
                    0x3b14                  AMP2CON2 = 0x3b14
                    0x3b14                  _AMP2CON2 = 0x3b14
                    0x3b14                  _AMP2CON2bits = 0x3b14
                    0x3b18                  AMP3CON1 = 0x3b18
                    0x3b18                  _AMP3CON1 = 0x3b18
                    0x3b18                  _AMP3CON1bits = 0x3b18
                    0x3b1c                  AMP3CON2 = 0x3b1c
                    0x3b1c                  _AMP3CON2 = 0x3b1c
                    0x3b1c                  _AMP3CON2bits = 0x3b1c
                    0x3b20                  UREFCON = 0x3b20
                    0x3b20                  _UREFCON = 0x3b20
                    0x3b20                  _UREFCONbits = 0x3b20
                    0x7a8000                  CAMCON = 0x7a8000
                    0x7a8000                  _CAMCON = 0x7a8000
                    0x7a8000                  _CAMCONbits = 0x7a8000
                    0x7c3000                  SDATACMD0 = 0x7c3000
                    0x7c3000                  _SDATACMD0 = 0x7c3000
                    0x7c3000                  _SDATACMD0bits = 0x7c3000
                    0x7c3004                  SDATACMD1 = 0x7c3004
                    0x7c3004                  _SDATACMD1 = 0x7c3004
                    0x7c3004                  _SDATACMD1bits = 0x7c3004
                    0x7c3008                  SDATACMD2 = 0x7c3008
                    0x7c3008                  _SDATACMD2 = 0x7c3008
                    0x7c3008                  _SDATACMD2bits = 0x7c3008
                    0x7c300c                  SDATACMD3 = 0x7c300c
                    0x7c300c                  _SDATACMD3 = 0x7c300c
                    0x7c300c                  _SDATACMD3bits = 0x7c300c
                    0x7c3010                  SDATACMD4 = 0x7c3010
                    0x7c3010                  _SDATACMD4 = 0x7c3010
                    0x7c3010                  _SDATACMD4bits = 0x7c3010
                    0x7c3014                  SDATACMD5 = 0x7c3014
                    0x7c3014                  _SDATACMD5 = 0x7c3014
                    0x7c3014                  _SDATACMD5bits = 0x7c3014
                    0x7c3018                  SDATACMD6 = 0x7c3018
                    0x7c3018                  _SDATACMD6 = 0x7c3018
                    0x7c3018                  _SDATACMD6bits = 0x7c3018
                    0x7c301c                  SDATACMD7 = 0x7c301c
                    0x7c301c                  _SDATACMD7 = 0x7c301c
                    0x7c301c                  _SDATACMD7bits = 0x7c301c
                    0x7c3020                  SDATACMD8 = 0x7c3020
                    0x7c3020                  _SDATACMD8 = 0x7c3020
                    0x7c3020                  _SDATACMD8bits = 0x7c3020
                    0x7c3024                  SDATACMD9 = 0x7c3024
                    0x7c3024                  _SDATACMD9 = 0x7c3024
                    0x7c3024                  _SDATACMD9bits = 0x7c3024
                    0x7c3028                  SDATACMD10 = 0x7c3028
                    0x7c3028                  _SDATACMD10 = 0x7c3028
                    0x7c3028                  _SDATACMD10bits = 0x7c3028
                    0x7c302c                  SDATACMD11 = 0x7c302c
                    0x7c302c                  _SDATACMD11 = 0x7c302c
                    0x7c302c                  _SDATACMD11bits = 0x7c302c
                    0x7c3030                  SDATACMD12 = 0x7c3030
                    0x7c3030                  _SDATACMD12 = 0x7c3030
                    0x7c3030                  _SDATACMD12bits = 0x7c3030
                    0x7c3034                  SDATACMD13 = 0x7c3034
                    0x7c3034                  _SDATACMD13 = 0x7c3034
                    0x7c3034                  _SDATACMD13bits = 0x7c3034
                    0x7c3038                  SDATACMD14 = 0x7c3038
                    0x7c3038                  _SDATACMD14 = 0x7c3038
                    0x7c3038                  _SDATACMD14bits = 0x7c3038
                    0x7c303c                  SDATACMD15 = 0x7c303c
                    0x7c303c                  _SDATACMD15 = 0x7c303c
                    0x7c303c                  _SDATACMD15bits = 0x7c303c
                    0x7c3040                  SMATHCMD0 = 0x7c3040
                    0x7c3040                  _SMATHCMD0 = 0x7c3040
                    0x7c3040                  _SMATHCMD0bits = 0x7c3040
                    0x7c3044                  SMATHCMD1 = 0x7c3044
                    0x7c3044                  _SMATHCMD1 = 0x7c3044
                    0x7c3044                  _SMATHCMD1bits = 0x7c3044
                    0x7c3048                  SMATHCMD2 = 0x7c3048
                    0x7c3048                  _SMATHCMD2 = 0x7c3048
                    0x7c3048                  _SMATHCMD2bits = 0x7c3048
                    0x7c304c                  SMATHCMD3 = 0x7c304c
                    0x7c304c                  _SMATHCMD3 = 0x7c304c
                    0x7c304c                  _SMATHCMD3bits = 0x7c304c
                    0x7c3050                  SMATHCMD4 = 0x7c3050
                    0x7c3050                  _SMATHCMD4 = 0x7c3050
                    0x7c3050                  _SMATHCMD4bits = 0x7c3050
                    0x7c3054                  SMATHCMD5 = 0x7c3054
                    0x7c3054                  _SMATHCMD5 = 0x7c3054
                    0x7c3054                  _SMATHCMD5bits = 0x7c3054
                    0x7c3058                  SMATHCMD6 = 0x7c3058
                    0x7c3058                  _SMATHCMD6 = 0x7c3058
                    0x7c3058                  _SMATHCMD6bits = 0x7c3058
                    0x7c305c                  SMATHCMD7 = 0x7c305c
                    0x7c305c                  _SMATHCMD7 = 0x7c305c
                    0x7c305c                  _SMATHCMD7bits = 0x7c305c
                    0x7c3060                  SMATHCMD8 = 0x7c3060
                    0x7c3060                  _SMATHCMD8 = 0x7c3060
                    0x7c3060                  _SMATHCMD8bits = 0x7c3060
                    0x7c3064                  SMATHCMD9 = 0x7c3064
                    0x7c3064                  _SMATHCMD9 = 0x7c3064
                    0x7c3064                  _SMATHCMD9bits = 0x7c3064
                    0x7c3068                  SMATHCMD10 = 0x7c3068
                    0x7c3068                  _SMATHCMD10 = 0x7c3068
                    0x7c3068                  _SMATHCMD10bits = 0x7c3068
                    0x7c306c                  SMATHCMD11 = 0x7c306c
                    0x7c306c                  _SMATHCMD11 = 0x7c306c
                    0x7c306c                  _SMATHCMD11bits = 0x7c306c
                    0x7c3070                  SMATHCMD12 = 0x7c3070
                    0x7c3070                  _SMATHCMD12 = 0x7c3070
                    0x7c3070                  _SMATHCMD12bits = 0x7c3070
                    0x7c3074                  SMATHCMD13 = 0x7c3074
                    0x7c3074                  _SMATHCMD13 = 0x7c3074
                    0x7c3074                  _SMATHCMD13bits = 0x7c3074
                    0x7c3078                  SMATHCMD14 = 0x7c3078
                    0x7c3078                  _SMATHCMD14 = 0x7c3078
                    0x7c3078                  _SMATHCMD14bits = 0x7c3078
                    0x7c307c                  SMATHCMD15 = 0x7c307c
                    0x7c307c                  _SMATHCMD15 = 0x7c307c
                    0x7c307c                  _SMATHCMD15bits = 0x7c307c
                    0x7c3080                  SDATAMAP = 0x7c3080
                    0x7c3080                  _SDATAMAP = 0x7c3080
                    0x7c3080                  _SDATAMAPbits = 0x7c3080
                    0x7c3084                  SMATHMAP = 0x7c3084
                    0x7c3084                  _SMATHMAP = 0x7c3084
                    0x7c3084                  _SMATHMAPbits = 0x7c3084
                    0x1808                  SPI1 = 0x1808
                    0x1808                  _SPI1 = 0x1808
                    0x1828                  SPI2 = 0x1828
                    0x1828                  _SPI2 = 0x1828
                    0x1848                  SPI3 = 0x1848
                    0x1848                  _SPI3 = 0x1848
                    0x1868                  SPI4 = 0x1868
                    0x1868                  _SPI4 = 0x1868
START GROUP
LOAD c:/program files/microchip/xc-dsc/v3.31/bin/bin/../../lib\libc99-pic30-elf.a
LOAD c:/program files/microchip/xc-dsc/v3.31/bin/bin/../../lib\libm-elf.a
LOAD c:/program files/microchip/xc-dsc/v3.31/bin/bin/../../lib\libc99-elf.a
END GROUP
OUTPUT(dist/dsPIC33AK512/production/perseus_512.X.production.elf elf32-pic30)
LOAD __ivt_0
LOAD data_init

__c30_signature
                    0x0000        0x222
 __c30_signature
                    0x0000          0x6 build/dsPIC33AK512/production/_ext/659850406/adc5.o
 __c30_signature
                    0x0006          0x6 build/dsPIC33AK512/production/_ext/659850406/adc3.o
 __c30_signature
                    0x000c          0x6 build/dsPIC33AK512/production/_ext/659850406/adc4.o
 __c30_signature
                    0x0012          0x6 build/dsPIC33AK512/production/_ext/1538408868/float_conversion.o
 __c30_signature
                    0x0018          0x6 build/dsPIC33AK512/production/_ext/1538408868/gain_ctrl.o
 __c30_signature
                    0x001e          0x6 build/dsPIC33AK512/production/_ext/1538408868/tone_ctrl.o
 __c30_signature
                    0x0024          0x6 build/dsPIC33AK512/production/_ext/1538408868/LED_level_meter.o
 __c30_signature
                    0x002a          0x6 build/dsPIC33AK512/production/_ext/1538408868/snd_effect_play.o
 __c30_signature
                    0x0030          0x6 build/dsPIC33AK512/production/_ext/1538408868/engine_synth.o
 __c30_signature
                    0x0036          0x6 build/dsPIC33AK512/production/_ext/1538408868/widen_ctrl.o
 __c30_signature
                    0x003c          0x6 build/dsPIC33AK512/production/_ext/1538408868/bass_enhancer.o
 __c30_signature
                    0x0042          0x6 build/dsPIC33AK512/production/_ext/1538408868/click_crack_synth.o
 __c30_signature
                    0x0048          0x6 build/dsPIC33AK512/production/_ext/1034234695/button_led.o
 __c30_signature
                    0x004e          0x6 build/dsPIC33AK512/production/_ext/1034234695/pot.o
 __c30_signature
                    0x0054          0x6 build/dsPIC33AK512/production/_ext/1536116519/app_debug.o
 __c30_signature
                    0x005a          0x6 build/dsPIC33AK512/production/_ext/1536116519/dbconsole.o
 __c30_signature
                    0x0060          0x6 build/dsPIC33AK512/production/_ext/1521024571/touch.o
 __c30_signature
                    0x0066          0x6 build/dsPIC33AK512/production/_ext/1018880376/uart1.o
 __c30_signature
                    0x006c          0x6 build/dsPIC33AK512/production/_ext/1360937237/SPI_TDM_drv.o
 __c30_signature
                    0x0072          0x6 build/dsPIC33AK512/production/_ext/1360937237/i2c.o
 __c30_signature
                    0x0078          0x6 build/dsPIC33AK512/production/_ext/1360937237/main.o
 __c30_signature
                    0x007e          0x6 build/dsPIC33AK512/production/_ext/1360937237/osc_drv.o
 __c30_signature
                    0x0084          0x6 build/dsPIC33AK512/production/_ext/1360937237/tick_time.o
 __c30_signature
                    0x008a          0x6 build/dsPIC33AK512/production/_ext/1360937237/pwm.o
 __c30_signature
                    0x0090          0x6 build/dsPIC33AK512/production/_ext/1360937237/wm8904.o
 __c30_signature
                    0x0096          0x6 build/dsPIC33AK512/production/_ext/1360937237/SPI3_drv.o
 __c30_signature
                    0x009c          0x6 build/dsPIC33AK512/production/_ext/1360937237/SST26_drv.o
 __c30_signature
                    0x00a2          0x6 build/dsPIC33AK512/production/_ext/335358292/eq_api_33AK.o
 __c30_signature
                    0x00a8          0x6 build/dsPIC33AK512/production/_ext/335358292/eq_perseus_wrapper.o
 __c30_signature
                    0x00ae          0x6 build/dsPIC33AK512/production/_ext/1536116519/eq_benchmark.o
 __c30_signature
                    0x00b4          0x6 build/dsPIC33AK512/production/_ext/1538408868/aec_33ak.o
 __c30_signature
                    0x00ba          0x6 build/dsPIC33AK512/production/_ext/1538408868/aec_nlms_float.o
 __c30_signature
                    0x00c0          0x6 build/dsPIC33AK512/production/_ext/1538408868/aec_src.o
 __c30_signature
                    0x00c6          0x6 build/dsPIC33AK512/production/_ext/1538408868/aec_vad_float.o
 __c30_signature
                    0x00cc          0x6 ..\src\touch\lib\qtm_acq_dspic33ak_mp_0x0051.X.a(pic_acq_x_dspic33ak_mp.o)
 __c30_signature
                    0x00d2          0x6 ..\src\touch\lib\qtm_freq_hop_auto_dspic33akmp_0x0004.X.a(pic_freq_hop_auto_x_dspic33akmp.o)
 __c30_signature
                    0x00d8          0x6 ..\src\touch\lib\qtm_touch_key_dspic33akmp_0x0002.X.a(pic_touch_key_x_dspic33akmp.o)
 __c30_signature
                    0x00de          0x6 c:/program files/microchip/xc-dsc/v3.31/bin/bin/../../lib\libc99-pic30-elf.a(delay32.AAMeo)
 __c30_signature
                    0x00e4          0x6 c:/program files/microchip/xc-dsc/v3.31/bin/bin/../../lib\libc99-pic30-elf.a(crt0_extendedaa.o)
 __c30_signature
                    0x00ea          0x6 c:/program files/microchip/xc-dsc/v3.31/bin/bin/../../lib\libc99-pic30-elf.a(data_init_extendedaa.o)
 __c30_signature
                    0x00f0          0x6 c:/program files/microchip/xc-dsc/v3.31/bin/bin/../../lib\libm-elf.a(expf.AA_o)
 __c30_signature
                    0x00f6          0x6 c:/program files/microchip/xc-dsc/v3.31/bin/bin/../../lib\libm-elf.a(log10f.AA_o)
 __c30_signature
                    0x00fc          0x6 c:/program files/microchip/xc-dsc/v3.31/bin/bin/../../lib\libm-elf.a(logf.AA_o)
 __c30_signature
                    0x0102          0x6 c:/program files/microchip/xc-dsc/v3.31/bin/bin/../../lib\libm-elf.a(lrintf.AA_o)
 __c30_signature
                    0x0108          0x6 c:/program files/microchip/xc-dsc/v3.31/bin/bin/../../lib\libm-elf.a(powf.AA_o)
 __c30_signature
                    0x010e          0x6 c:/program files/microchip/xc-dsc/v3.31/bin/bin/../../lib\libm-elf.a(rintf.AA_o)
 __c30_signature
                    0x0114          0x6 c:/program files/microchip/xc-dsc/v3.31/bin/bin/../../lib\libm-elf.a(scalbnf.AA_o)
 __c30_signature
                    0x011a          0x6 c:/program files/microchip/xc-dsc/v3.31/bin/bin/../../lib\libm-elf.a(sqrtf.AA_o)
 __c30_signature
                    0x0120          0x6 c:/program files/microchip/xc-dsc/v3.31/bin/bin/../../lib\libm-elf.a(tanhf.AA_o)
 __c30_signature
                    0x0126          0x6 c:/program files/microchip/xc-dsc/v3.31/bin/bin/../../lib\libm-elf.a(expm1f.AA_o)
 __c30_signature
                    0x012c          0x6 c:/program files/microchip/xc-dsc/v3.31/bin/bin/../../lib\libm-elf.a(fabsf.AA_o)
 __c30_signature
                    0x0132          0x6 c:/program files/microchip/xc-dsc/v3.31/bin/bin/../../lib\libc99-elf.a(__errno_location.AA_o)
 __c30_signature
                    0x0138          0x6 c:/program files/microchip/xc-dsc/v3.31/bin/bin/../../lib\libc99-elf.a(__sio_printf_dfosux.AA_o)
 __c30_signature
                    0x013e          0x6 c:/program files/microchip/xc-dsc/v3.31/bin/bin/../../lib\libc99-elf.a(__sio_printf_dfoux.AA_o)
 __c30_signature
                    0x0144          0x6 c:/program files/microchip/xc-dsc/v3.31/bin/bin/../../lib\libc99-elf.a(__sio_printf_doux.AA_o)
 __c30_signature
                    0x014a          0x6 c:/program files/microchip/xc-dsc/v3.31/bin/bin/../../lib\libc99-elf.a(__sio_printf_f.AA_o)
 __c30_signature
                    0x0150          0x6 c:/program files/microchip/xc-dsc/v3.31/bin/bin/../../lib\libc99-elf.a(memcpy.AA_o)
 __c30_signature
                    0x0156          0x6 c:/program files/microchip/xc-dsc/v3.31/bin/bin/../../lib\libc99-elf.a(memset.AA_o)
 __c30_signature
                    0x015c          0x6 c:/program files/microchip/xc-dsc/v3.31/bin/bin/../../lib\libc99-elf.a(putchar.AA_o)
 __c30_signature
                    0x0162          0x6 c:/program files/microchip/xc-dsc/v3.31/bin/bin/../../lib\libc99-elf.a(puts.AA_o)
 __c30_signature
                    0x0168          0x6 c:/program files/microchip/xc-dsc/v3.31/bin/bin/../../lib\libc99-elf.a(stdout.AA_o)
 __c30_signature
                    0x016e          0x6 c:/program files/microchip/xc-dsc/v3.31/bin/bin/../../lib\libc99-elf.a(__fmt_d.AA_o)
 __c30_signature
                    0x0174          0x6 c:/program files/microchip/xc-dsc/v3.31/bin/bin/../../lib\libc99-elf.a(__fmt_fp.AA_o)
 __c30_signature
                    0x017a          0x6 c:/program files/microchip/xc-dsc/v3.31/bin/bin/../../lib\libc99-elf.a(__fmt_o.AA_o)
 __c30_signature
                    0x0180          0x6 c:/program files/microchip/xc-dsc/v3.31/bin/bin/../../lib\libc99-elf.a(__fmt_s.AA_o)
 __c30_signature
                    0x0186          0x6 c:/program files/microchip/xc-dsc/v3.31/bin/bin/../../lib\libc99-elf.a(__fmt_u.AA_o)
 __c30_signature
                    0x018c          0x6 c:/program files/microchip/xc-dsc/v3.31/bin/bin/../../lib\libc99-elf.a(__fmt_x.AA_o)
 __c30_signature
                    0x0192          0x6 c:/program files/microchip/xc-dsc/v3.31/bin/bin/../../lib\libc99-elf.a(__int_vfprintf.AA_o)
 __c30_signature
                    0x0198          0x6 c:/program files/microchip/xc-dsc/v3.31/bin/bin/../../lib\libc99-elf.a(__out.AA_o)
 __c30_signature
                    0x019e          0x6 c:/program files/microchip/xc-dsc/v3.31/bin/bin/../../lib\libc99-elf.a(__pop_float.AA_o)
 __c30_signature
                    0x01a4          0x6 c:/program files/microchip/xc-dsc/v3.31/bin/bin/../../lib\libc99-elf.a(__pop_int.AA_o)
 __c30_signature
                    0x01aa          0x6 c:/program files/microchip/xc-dsc/v3.31/bin/bin/../../lib\libc99-elf.a(__pop_ptr.AA_o)
 __c30_signature
                    0x01b0          0x6 c:/program files/microchip/xc-dsc/v3.31/bin/bin/../../lib\libc99-elf.a(__printf_core.AA_o)
 __c30_signature
                    0x01b6          0x6 c:/program files/microchip/xc-dsc/v3.31/bin/bin/../../lib\libc99-elf.a(__stdio_close.AA_o)
 __c30_signature
                    0x01bc          0x6 c:/program files/microchip/xc-dsc/v3.31/bin/bin/../../lib\libc99-elf.a(atoi.AA_o)
 __c30_signature
                    0x01c2          0x6 c:/program files/microchip/xc-dsc/v3.31/bin/bin/../../lib\libc99-elf.a(fputs.AA_o)
 __c30_signature
                    0x01c8          0x6 c:/program files/microchip/xc-dsc/v3.31/bin/bin/../../lib\libc99-elf.a(fwrite.AA_o)
 __c30_signature
                    0x01ce          0x6 c:/program files/microchip/xc-dsc/v3.31/bin/bin/../../lib\libc99-elf.a(lseek.AA_o)
 __c30_signature
                    0x01d4          0x6 c:/program files/microchip/xc-dsc/v3.31/bin/bin/../../lib\libc99-elf.a(putc.AA_o)
 __c30_signature
                    0x01da          0x6 c:/program files/microchip/xc-dsc/v3.31/bin/bin/../../lib\libc99-elf.a(strcpy.AA_o)
 __c30_signature
                    0x01e0          0x6 c:/program files/microchip/xc-dsc/v3.31/bin/bin/../../lib\libc99-elf.a(strlen.AA_o)
 __c30_signature
                    0x01e6          0x6 c:/program files/microchip/xc-dsc/v3.31/bin/bin/../../lib\libc99-elf.a(syscall_ret.AA_o)
 __c30_signature
                    0x01ec          0x6 c:/program files/microchip/xc-dsc/v3.31/bin/bin/../../lib\libc99-elf.a(tolower.AA_o)
 __c30_signature
                    0x01f2          0x6 c:/program files/microchip/xc-dsc/v3.31/bin/bin/../../lib\libc99-elf.a(toupper.AA_o)
 __c30_signature
                    0x01f8          0x6 c:/program files/microchip/xc-dsc/v3.31/bin/bin/../../lib\libc99-elf.a(__cvt_u.AA_o)
 __c30_signature
                    0x01fe          0x6 c:/program files/microchip/xc-dsc/v3.31/bin/bin/../../lib\libc99-elf.a(stpcpy.AA_o)
 __c30_signature
                    0x0204          0x6 c:/program files/microchip/xc-dsc/v3.31/bin/bin/../../lib\libc99-pic30-elf.a(close.AAMeo)
 __c30_signature
                    0x020a          0x6 c:/program files/microchip/xc-dsc/v3.31/bin/bin/../../lib\libc99-pic30-elf.a(extendsfdf.aa.AA_eo)
 __c30_signature
                    0x0210          0x6 c:/program files/microchip/xc-dsc/v3.31/bin/bin/../../lib\libc99-pic30-elf.a(funpack.aa.AA_eo)
 __c30_signature
                    0x0216          0x6 c:/program files/microchip/xc-dsc/v3.31/bin/bin/../../lib\libc99-pic30-elf.a(divmoddi3.AA_eo)
 __c30_signature
                    0x021c          0x6 c:/program files/microchip/xc-dsc/v3.31/bin/bin/../../lib\libm-elf.a(floorl.AA_o)

__xc_reference_data

.nbss               0x4000       0x794c
 .nbss              0x4000       0x4824 build/dsPIC33AK512/production/_ext/1360937237/SPI_TDM_drv.o
                    0x4000                  _g_echo_sim_enabled
                    0x5988                  _g_aec_enabled
                    0x598c                  _g_aec_state
                    0x8820                  _g_audio_level_out
                    0x8821                  _g_audio_level_in
                    0x8822                  _Ena_EngineSynth
 .nbss              0x8824       0x2198 build/dsPIC33AK512/production/_ext/1538408868/bass_enhancer.o
                    0x8840                  _g_bassh
 .nbss              0xa9bc        0xf90 build/dsPIC33AK512/production/_ext/1538408868/widen_ctrl.o

_000000000782E09069c195e2
                    0xb94c        0x800
 _000000000782E09069c195e2
                    0xb94c        0x800 build/dsPIC33AK512/production/_ext/1360937237/SPI_TDM_drv.o

_000000000782E00069c195e2
                    0xc14c        0x800
 _000000000782E00069c195e2
                    0xc14c        0x800 build/dsPIC33AK512/production/_ext/1360937237/SPI_TDM_drv.o

_0000000007739F3069c193ea
                    0xc94c        0x800
 _0000000007739F3069c193ea
                    0xc94c        0x800 build/dsPIC33AK512/production/_ext/1360937237/pwm.o
                    0xc94c                  _PWM8_Duty

_0000000007739EA069c193ea
                    0xd14c        0x800
 _0000000007739EA069c193ea
                    0xd14c        0x800 build/dsPIC33AK512/production/_ext/1360937237/pwm.o
                    0xd14c                  _PWM7_Duty

_0000000007739E1069c193ea
                    0xd94c        0x800
 _0000000007739E1069c193ea
                    0xd94c        0x800 build/dsPIC33AK512/production/_ext/1360937237/pwm.o
                    0xd94c                  _PWM6_Duty

_0000000007739D8069c193ea
                    0xe14c        0x800
 _0000000007739D8069c193ea
                    0xe14c        0x800 build/dsPIC33AK512/production/_ext/1360937237/pwm.o
                    0xe14c                  _PWM5_Duty

.nbss               0xe94c        0xd10
 .nbss              0xe94c        0x300 build/dsPIC33AK512/production/_ext/1536116519/eq_benchmark.o
 .nbss              0xec4c        0x2a4 build/dsPIC33AK512/production/_ext/335358292/eq_perseus_wrapper.o
 .nbss              0xeef0        0x204 build/dsPIC33AK512/production/_ext/659850406/adc3.o
 .nbss              0xf0f4        0x184 build/dsPIC33AK512/production/_ext/1538408868/click_crack_synth.o
 .nbss              0xf278        0x184 build/dsPIC33AK512/production/_ext/1536116519/dbconsole.o
 .nbss              0xf3fc        0x158 build/dsPIC33AK512/production/_ext/1538408868/engine_synth.o
                    0xf408                  _Start_Blip
 .nbss              0xf554        0x108 build/dsPIC33AK512/production/_ext/1018880376/uart1.o

_00000000076F3A2069c193bf
                    0xf65c        0x100
 _00000000076F3A2069c193bf
                    0xf65c        0x100 build/dsPIC33AK512/production/_ext/659850406/adc3.o

_0000000007643A2069c193c0
                    0xf75c        0x100
 _0000000007643A2069c193c0
                    0xf75c        0x100 build/dsPIC33AK512/production/_ext/659850406/adc4.o

.nbss               0xf85c         0xf0
 .nbss              0xf85c         0xf0 build/dsPIC33AK512/production/_ext/1538408868/tone_ctrl.o
                    0xf85c                  _My_ToneBas
                    0xf8ac                  _My_ToneMid
                    0xf8fc                  _My_ToneTre

.ndata              0xf94c         0xbc
 .ndata             0xf94c         0xbc build/dsPIC33AK512/production/_ext/1521024571/touch.o
                    0xf94c                  _qtm_scroller_control1
                    0xf95c                  _qtm_scroller_config1
                    0xf968                  _qtm_scroller_group_config1
                    0xf970                  _qtlib_key_set1
                    0xf980                  _qtlib_key_configs_set1
                    0xf98c                  _qtlib_key_grp_config_set1
                    0xf998                  _qtm_freq_hop_autotune_control1
                    0xf9a0                  _qtm_freq_hop_autotune_data1
                    0xf9b0                  _qtm_freq_hop_autotune_config1
                    0xf9c0                  _freq_hop_delay_selection
                    0xf9c4                  _qtlib_acq_set1
                    0xf9d4                  _device_config
                    0xf9e0                  _adc_seq_node_cfg1
                    0xfa04                  _adc_qtlib_acq_gen1

.nbss               0xfa08        0x12c
 .nbss              0xfa08         0x88 build/dsPIC33AK512/production/_ext/1521024571/touch.o
                    0xfa0c                  _cal_count
                    0xfa10                  _interrupt_cnt
                    0xfa14                  _qtm_scroller_group_data1
                    0xfa18                  _qtm_scroller_data1
                    0xfa24                  _qtlib_key_data_set1
                    0xfa48                  _qtlib_key_grp_data_set1
                    0xfa50                  _freq_hop_autotune_counters
                    0xfa54                  _noise_filter_buffer
                    0xfa68                  _adc_qtlib_node_stat1
                    0xfa7c                  _touch_acq_signals_raw
                    0xfa88                  _time_to_measure_touch_flag
                    0xfa89                  _touch_postprocess_request
                    0xfa8a                  _touch_in_progress
                    0xfa8b                  _module_error_code
                    0xfa8c                  _measurement_done_touch
 .nbss              0xfa90         0x48 build/dsPIC33AK512/production/_ext/1538408868/snd_effect_play.o
 .nbss              0xfad8         0x34 build/dsPIC33AK512/production/_ext/1538408868/gain_ctrl.o
                    0xfad8                  _My_Gain
 .nbss              0xfb0c         0x10 build/dsPIC33AK512/production/_ext/1538408868/float_conversion.o
                    0xfb0c                  _Pre_Gain_WAV
                    0xfb10                  _Post_Gain_CODEC
                    0xfb14                  _Post_Gain_PWM
                    0xfb18                  _Pre_Gain_CODEC
 .nbss              0xfb1c          0xc build/dsPIC33AK512/production/_ext/1538408868/LED_level_meter.o
 .nbss              0xfb28          0xc build/dsPIC33AK512/production/_ext/1360937237/main.o

.ndata              0xfb34          0xc
 .ndata             0xfb34          0xc build/dsPIC33AK512/production/_ext/1360937237/main.o

.nbss               0xfb40         0x14
 .nbss              0xfb40          0x8 build/dsPIC33AK512/production/_ext/659850406/adc5.o
 .nbss              0xfb48          0x8 build/dsPIC33AK512/production/_ext/1034234695/button_led.o
 .nbss              0xfb50          0x4 build/dsPIC33AK512/production/_ext/659850406/adc4.o

.ndata              0xfb54          0x4
 .ndata             0xfb54          0x4 build/dsPIC33AK512/production/_ext/1360937237/SPI_TDM_drv.o
                    0xfb54                  _g_echo_sim_gain

.nbss               0xfb58          0xa
 .nbss              0xfb58          0x4 build/dsPIC33AK512/production/_ext/1360937237/tick_time.o
                    0xfb58                  _systemTick
 .nbss              0xfb5c          0x4 build/dsPIC33AK512/production/_ext/1360937237/pwm.o
                    0xfb5c                  _breakpoint
 .nbss              0xfb60          0x2 build/dsPIC33AK512/production/_ext/1034234695/pot.o

.data               0xfb64         0xac
 .data              0xfb64         0x74 c:/program files/microchip/xc-dsc/v3.31/bin/bin/../../lib\libc99-elf.a(stdout.AA_o)
                    0xfb64                  ___stdout_used
                    0xfb68                  __stdout
 .data              0xfbd8         0x20 c:/program files/microchip/xc-dsc/v3.31/bin/bin/../../lib\libc99-elf.a(__printf_core.AA_o)
 .data              0xfbf8         0x18 c:/program files/microchip/xc-dsc/v3.31/bin/bin/../../lib\libm-elf.a(powf.AA_o)

.bss                0xfc10         0x14
 .bss               0xfc10         0x14 ..\src\touch\lib\qtm_acq_dspic33ak_mp_0x0051.X.a(pic_acq_x_dspic33ak_mp.o)

.data               0xfc24         0x18
 .data              0xfc24         0x10 c:/program files/microchip/xc-dsc/v3.31/bin/bin/../../lib\libc99-elf.a(__fmt_fp.AA_o)
 .data              0xfc34          0x8 c:/program files/microchip/xc-dsc/v3.31/bin/bin/../../lib\libm-elf.a(expf.AA_o)

.bss                0xfc3c          0x4
 .bss               0xfc3c          0x4 c:/program files/microchip/xc-dsc/v3.31/bin/bin/../../lib\libc99-elf.a(__errno_location.AA_o)
                    0xfc3c                  ___errno_val

.data               0xfb62          0x2
 .data              0xfb62          0x2 ..\src\touch\lib\qtm_acq_dspic33ak_mp_0x0051.X.a(pic_acq_x_dspic33ak_mp.o)

.bss                0xfc40          0x2
 .bss               0xfc40          0x2 ..\src\touch\lib\qtm_touch_key_dspic33akmp_0x0002.X.a(pic_touch_key_x_dspic33akmp.o)
                    0xfc40                  _qtm_local_ms_timecount

__ivt_0           0x800004        0x5b0
 __ivt_0          0x800004        0x5b0 __ivt_0
                  0x800004                  __ivt_0

.config_SPI2PIN
                  0x7f3020          0x4
 .config_SPI2PIN
                  0x7f3020          0x4 build/dsPIC33AK512/production/_ext/1360937237/main.o

.config_BKUP_SPI2PIN
                  0x7f3820          0x4
 .config_BKUP_SPI2PIN
                  0x7f3820          0x4 build/dsPIC33AK512/production/_ext/1360937237/main.o

380469c193ce_0    0x804058       0xf814
 380469c193ce_0
                  0x804058       0xf814 build/dsPIC33AK512/production/_ext/1538408868/snd_effect_play.o
                  0x804058                  _NOTIF_ACTION_WAV_SIZE
                  0x80405c                  _notif_action_i16

.text             0x81386c       0x9f54
 .text            0x81386c       0x275c build/dsPIC33AK512/production/_ext/1538408868/bass_enhancer.o
                  0x813cc8                  _bassh_init
                  0x813ce8                  _bassh_set_default_params
                  0x813dcc                  _bassh_process
                  0x814c88                  _app_bassh_init
                  0x814eac                  _app_bassh_enable
                  0x814ef4                  _app_bassh_is_enabled
                  0x814efc                  _app_bassh_preset_speaker_A
                  0x81501c                  _app_bassh_process
 .text            0x815fc8       0x1ca0 build/dsPIC33AK512/production/_ext/1538408868/engine_synth.o
                  0x815fc8                  _app_engine_synth_init
                  0x8161e8                  _EngineBlip_init
                  0x816260                  _EngineBlip_trigger
                  0x81629c                  _EngineBlip_update
                  0x816598                  _EngineSynthWrap_init
                  0x816a14                  _EngineSynth_setRPM
                  0x816a20                  _EngineSynth_setTargetRPM
                  0x816a48                  _EngineSynth_setThrottle
                  0x816a70                  _EngineRumble_setLFO
                  0x816a74                  _engine_process
                  0x81787c                  _app_engine_synth_process
 .text            0x817c68       0x1490 build/dsPIC33AK512/production/_ext/1538408868/click_crack_synth.o
                  0x8181a4                  _ccs_preset
                  0x81831c                  _ccs_init
                  0x818334                  _ccs_reset
                  0x818360                  _ccs_set_enabled
                  0x818390                  _ccs_trigger
                  0x818400                  _ccs_set_interval
                  0x818458                  _ccs_set_pan
                  0x8184a8                  _ccs_set_output_slots
                  0x8184f0                  _ccs_set_po
                  0x8185e0                  _ccs_process_stereo_add
                  0x818a34                  _app_ccsynth_init
                  0x818b30                  _app_ccsynth_set_enable
                  0x818b50                  _app_ccsynth_process
 .text            0x8190f8        0xe3c build/dsPIC33AK512/production/_ext/335358292/eq_api_33AK.o
                  0x819264                  _EQ_Init
                  0x819414                  _EQ_Process
                  0x819444                  _EQ_ProcessSeparate
                  0x81948c                  _EQ_SetBandGain
                  0x819664                  _EQ_GetBandGain
                  0x81968c                  _EQ_SetAllGains
                  0x8197d8                  _EQ_GetAllGains
                  0x819800                  _EQ_SetMasterGain
                  0x819880                  _EQ_GetMasterGain
                  0x819898                  _EQ_Enable
                  0x8198a8                  _EQ_IsEnabled
                  0x8198c0                  _EQ_Reset
                  0x8198f8                  _EQ_SetBandParams
                  0x819a3c                  _EQ_ProcessQ15
                  0x819bc4                  _EQ_SetGainsLegacy
                  0x819e28                  _EQ_GetGainsLegacy
                  0x819e84                  _EQ_SetMasterGainLegacy
                  0x819f0c                  _EQ_GetMasterGainLegacy
 .text            0x819f34        0xc44 build/dsPIC33AK512/production/_ext/1538408868/widen_ctrl.o
                  0x819f34                  _app_widen_init
                  0x81a03c                  _app_widen_disable
                  0x81a120                  _app_widen_enable
                  0x81a300                  _app_widen_process
                  0x81a6d4                  _widen_init
                  0x81a7a0                  _widen_set_params
                  0x81a95c                  _widen_process
 .text            0x81ab78        0x9dc build/dsPIC33AK512/production/_ext/1536116519/app_debug.o
                  0x81ab78                  _app_uart_rx_available
                  0x81acc8                  _app_onmsg
 .text            0x81b554        0x984 build/dsPIC33AK512/production/_ext/1538408868/tone_ctrl.o
                  0x81b554                  _app_tone_init
                  0x81b7a0                  _app_tone_set_coeffs_tre
                  0x81b8c0                  _app_tone_set_coeffs_mid
                  0x81b9e0                  _app_tone_set_coeffs_bas
                  0x81bb00                  _app_tone_process_tre
                  0x81bbac                  _app_tone_process_mid
                  0x81bc58                  _app_tone_process_bas
                  0x81bd04                  _tone_init
                  0x81bd24                  _tone_set_coeffs
                  0x81be34                  _tone_process
 .text            0x81bed8        0x95c build/dsPIC33AK512/production/_ext/1360937237/i2c.o
                  0x81bed8                  _I2C1_Init
                  0x81bf30                  _I2C2_Init
                  0x81bf88                  _pI2CxLBRG
                  0x81bf9c                  _pI2CxHBRG
                  0x81bfb0                  _pI2CxBITObits
                  0x81bfc4                  _pI2CxSTAT1
                  0x81bfd8                  _pI2CxSTAT1bits
                  0x81bfec                  _pI2CxSTAT2
                  0x81c000                  _pI2CxSTAT2bits
                  0x81c014                  _pI2CxCON1
                  0x81c028                  _pI2CxCON1bits
                  0x81c03c                  _pI2CxCON2
                  0x81c050                  _pI2CxCON2bits
                  0x81c064                  _pI2CxTRN
                  0x81c078                  _pI2CxRCV
                  0x81c08c                  _I2Cx_Start
                  0x81c258                  _I2Cx_Stop
                  0x81c2b8                  _I2Cx_SendACK
                  0x81c368                  _I2Cx_WriteByte
                  0x81c658                  _I2Cx_ReadByte
 .text            0x81c834        0x80c build/dsPIC33AK512/production/_ext/1360937237/main.o
                  0x81c834                  _main
 .text            0x81d040        0x780 build/dsPIC33AK512/production/_ext/1360937237/SST26_drv.o
                  0x81d0d8                  _SST26_test
                  0x81d510                  _sst26_read_jedec_id
                  0x81d5a8                  _sst26_read_fast
                  0x81d614                  _sst26_write_enable
                  0x81d624                  _sst26_sector_erase_4k
                  0x81d69c                  _sst26_chip_erase
                  0x81d6fc                  _sst26_verify
                  0x81d798                  _sst26_page_program

.text.qtm_key_sensors_process
                  0x81d7c0        0x740
 .text.qtm_key_sensors_process
                  0x81d7c0        0x740 ..\src\touch\lib\qtm_touch_key_dspic33akmp_0x0002.X.a(pic_touch_key_x_dspic33akmp.o)
                  0x81d7c0                  _qtm_key_sensors_process

.text             0x81df00       0x1ec4
 .text            0x81df00        0x73c build/dsPIC33AK512/production/_ext/1360937237/pwm.o
                  0x81df00                  _pwm_init
                  0x81e490                  _dma4_pwm5_process
                  0x81e4bc                  _dma5_pwm6_process
                  0x81e4e8                  _dma6_pwm7_process
                  0x81e514                  _dma7_pwm8_process
                  0x81e540                  _pwm1_set_duty
                  0x81e594                  _pwm2_set_duty
                  0x81e5e8                  _pwm3_set_duty
 .text            0x81e63c        0x6ac build/dsPIC33AK512/production/_ext/1034234695/button_led.o
                  0x81e63c                  _BUTTON_Init
                  0x81e658                  _BUTTON_IsPressed
                  0x81e6a8                  _BUTTON_DetectReleased
                  0x81e71c                  _TOUCH_IsPressed
                  0x81e770                  _TOUCH_DetectReleased
                  0x81e818                  _LEDs_Init
                  0x81e85c                  _LED_On
                  0x81e900                  _LED_Off
                  0x81e9a4                  _LED_Toggle
                  0x81ebfc                  _LED_Set_Mask
 .text            0x81ece8        0x618 build/dsPIC33AK512/production/_ext/1360937237/osc_drv.o
                  0x81ece8                  _Set_OscSrc_to_CLKGEN1
                  0x81ed48                  _Set_OscSrc_to_CLKGEN5
                  0x81eda8                  _Set_OscSrc_to_CLKGEN6
                  0x81ee0c                  _Set_OscSrc_to_CLKGEN8
                  0x81ee6c                  _Set_OscSrc_to_CLKGEN9
                  0x81eecc                  _Set_OscSrc_to_CLKGEN12
                  0x81ef2c                  _Osc_Configure_PLL1
                  0x81f0dc                  _Osc_Configure_PLL2
 .text            0x81f300        0x5c0 build/dsPIC33AK512/production/_ext/1536116519/eq_benchmark.o
                  0x81f300                  _eq_benchmark_init
                  0x81f3dc                  _eq_benchmark_run
                  0x81f70c                  _eq_benchmark_compare_output
 .text            0x81f8c0        0x504 build/dsPIC33AK512/production/_ext/659850406/adc5.o
                  0x81f8c0                  _ADC5_ChannelCallback
                  0x81f8c4                  _ADC5_Result32BitChannelCallback
                  0x81f8c8                  _ADC5_ComparatorCallback
                  0x81f8cc                  _ADC5_Deinitialize
                  0x81fa7c                  _ADC5_Initialize
                  0x81fb7c                  _ADC5_SharedCorePowerEnable
                  0x81fb98                  _ADC5_SharedCoreCalibration
                  0x81fbb4                  _ADC5_PWMTriggerSourceSet
                  0x81fd50                  _ADC5_ChannelCallbackRegister
                  0x81fd60                  _ADC5_Result32BitChannelCallbackRegister
                  0x81fd70                  _ADC5_ChannelTasks
                  0x81fdc0                  _ADC5_ComparatorCallbackRegister

.text.qtm_itc_config_update
                  0x81fdc4        0x4d8
 .text.qtm_itc_config_update
                  0x81fdc4        0x4d8 ..\src\touch\lib\qtm_acq_dspic33ak_mp_0x0051.X.a(pic_acq_x_dspic33ak_mp.o)
                  0x81fdc4                  _qtm_itc_config_update

.text             0x82029c       0x1db4
 .text            0x82029c        0x4d4 build/dsPIC33AK512/production/_ext/1538408868/gain_ctrl.o
                  0x82029c                  _app_gain_init
                  0x820328                  _app_gain_process
                  0x820474                  _app_mute_set
                  0x820498                  _app_gain_set
                  0x8204c0                  _mute_set
                  0x8204dc                  _gain_set
                  0x8204fc                  _gain_set_db
                  0x820540                  _gain_init
                  0x820658                  _gain_process
 .text            0x820770        0x4b4 build/dsPIC33AK512/production/_ext/335358292/eq_perseus_wrapper.o
                  0x8208a0                  _eq_perseus_init
                  0x820970                  _eq_perseus_process
                  0x8209ac                  _eq_perseus_process_mono
                  0x8209cc                  _eq_perseus_process_stereo
                  0x8209ec                  _eq_perseus_enable
                  0x820a1c                  _eq_perseus_is_enabled
                  0x820a34                  _eq_perseus_set_band
                  0x820a78                  _eq_perseus_get_band
                  0x820a98                  _eq_perseus_set_master_gain
                  0x820ac4                  _eq_perseus_get_master_gain
                  0x820adc                  _eq_perseus_load_preset
                  0x820b68                  _eq_perseus_get_preset_name
                  0x820b8c                  _eq_perseus_reset_to_flat
                  0x820c0c                  _eq_perseus_get_instance
 .text            0x820c24        0x490 build/dsPIC33AK512/production/_ext/1538408868/aec_src.o
                  0x820c24                  _src_init
                  0x820c34                  _src_reset
                  0x820c44                  _src_downsample_mono
                  0x820d4c                  _src_upsample_mono
                  0x820e6c                  _src_downsample
                  0x820f88                  _src_upsample
 .text            0x8210b4        0x478 build/dsPIC33AK512/production/_ext/1521024571/touch.o
                  0x8210c0                  _touch_timer_handler
                  0x8210e8                  _touch_check_node_cc_cal
                  0x82115c                  _touch_init
                  0x821248                  _touch_process
                  0x821404                  _get_sensor_node_signal
                  0x821414                  _update_sensor_node_signal
                  0x821424                  _get_sensor_node_reference
                  0x821438                  _update_sensor_node_reference
                  0x821448                  _get_sensor_cc_val
                  0x821458                  _update_sensor_cc_val
                  0x821468                  _get_sensor_state
                  0x821478                  _get_sensor_threshold
                  0x821488                  _update_sensor_state
                  0x821498                  _calibrate_node
                  0x8214c4                  _get_current_frequency
                  0x8214d0                  _get_filter_frequency
                  0x8214e0                  _get_scroller_state
                  0x8214f0                  _get_scroller_position
                  0x821504                  _get_scroller_contact_size
                  0x821518                  _get_scroller_contact_threshold
 .text            0x82152c        0x3dc build/dsPIC33AK512/production/_ext/1360937237/wm8904.o
                  0x8216e4                  _wm8904_init
 .text            0x821908        0x3a4 build/dsPIC33AK512/production/_ext/1538408868/float_conversion.o
                  0x821908                  _convert_tdm_init
                  0x821994                  _convert_tdm_int32_to_float
                  0x821aa8                  _convert_tdm_float_to_int32
                  0x821bb0                  _convert_float_to_pwm_20bit
 .text            0x821cac        0x3a4 build/dsPIC33AK512/production/_ext/1360937237/SPI_TDM_drv.o
                  0x821cac                  _DMA_BaseInit
                  0x821d50                  _DMA_VaridateInit
                  0x821dc4                  _TDM_Start

.dinit            0x822050        0x39c
 .dinit           0x822050        0x39c data_init

.text             0x8223ec        0xa84
 .text            0x8223ec        0x394 build/dsPIC33AK512/production/_ext/1536116519/dbconsole.o
                  0x8223ec                  _dbc_init
                  0x8223f4                  _dbc_feed_char
 .text            0x822780        0x390 build/dsPIC33AK512/production/_ext/659850406/adc3.o
                  0x822780                  _ADC3in_Start
                  0x822a14                  _ADC3_Cpy_Tdm_Style
                  0x822a4c                  _ADC3_convert_int32_to_float
                  0x822ab8                  _ADC3_Remove_Dc_I32
 .text            0x822b10        0x360 build/dsPIC33AK512/production/_ext/1538408868/aec_33ak.o
                  0x822b10                  _aec_init
                  0x822c18                  _aec_reset
                  0x822cdc                  _aec_process
                  0x822e04                  _aec_enable
                  0x822e28                  _aec_get_erle
                  0x822e38                  _aec_is_near_end_speech
                  0x822e44                  _aec_set_step_size

.text.qtm_freq_hop_autotune
                  0x822e70        0x32c
 .text.qtm_freq_hop_autotune
                  0x822e70        0x32c ..\src\touch\lib\qtm_freq_hop_auto_dspic33akmp_0x0004.X.a(pic_freq_hop_auto_x_dspic33akmp.o)
                  0x822e70                  _qtm_freq_hop_autotune

.text             0x82319c        0x600
 .text            0x82319c        0x318 build/dsPIC33AK512/production/_ext/1538408868/aec_vad_float.o
                  0x82319c                  _vad_init
                  0x8231e8                  _vad_reset
                  0x823234                  _vad_compute_energy
                  0x823258                  _vad_update_noise
                  0x8232c0                  _vad_process
                  0x823458                  _vad_get_speech_probability
                  0x8234ac                  _vad_inhibit_adaptation
 .text            0x8234b4        0x2e8 build/dsPIC33AK512/production/_ext/1538408868/aec_nlms_float.o
                  0x8234b4                  _nlms_init
                  0x8234e4                  _nlms_filter
                  0x823528                  _nlms_update
                  0x8235a0                  _nlms_push_sample
                  0x8235d0                  _nlms_compute_energy
                  0x8235f4                  _nlms_update_energy
                  0x823614                  _nlms_process_sample

860069c193e4_1    0x82379c        0x2d0
 860069c193e4_1
                  0x82379c        0x2d0 build/dsPIC33AK512/production/_ext/1360937237/main.o

.text             0x823a6c        0x54c
 .text            0x823a6c        0x2b0 build/dsPIC33AK512/production/_ext/1538408868/snd_effect_play.o
                  0x823a6c                  _wav_to_tdm_play_se
                  0x823a78                  _wav_to_tdm_float_process
 .text            0x823d1c        0x29c build/dsPIC33AK512/production/_ext/659850406/adc4.o
                  0x823d1c                  _ADC4in_Start

630c69c193f3_1    0x823fb8        0x298
 630c69c193f3_1
                  0x823fb8        0x298 build/dsPIC33AK512/production/_ext/1536116519/eq_benchmark.o

.text             0x824250        0x244
 .text            0x824250        0x244 build/dsPIC33AK512/production/_ext/1018880376/uart1.o
                  0x824250                  _UART1_Initialize
                  0x8242e4                  _UART1_Deinitialize
                  0x824300                  _UART1_Read
                  0x824340                  _UART1_Write
                  0x824360                  _UART1_IsRxReady
                  0x824378                  _UART1_IsTxReady
                  0x824398                  _UART1_IsTxDone
                  0x8243b8                  _UART1_ErrorGet

22c69c193ef_0     0x824494        0x234
 22c69c193ef_0    0x824494        0x234 build/dsPIC33AK512/production/_ext/1360937237/SST26_drv.o

.text.qtm_itc_init_acquisition_module
                  0x8246c8        0x234
 .text.qtm_itc_init_acquisition_module
                  0x8246c8        0x234 ..\src\touch\lib\qtm_acq_dspic33ak_mp_0x0051.X.a(pic_acq_x_dspic33ak_mp.o)
                  0x8246c8                  _qtm_itc_init_acquisition_module

.text             0x8248fc        0x18c
 .text            0x8248fc        0x18c build/dsPIC33AK512/production/_ext/1360937237/SPI3_drv.o
                  0x8248fc                  _spi3_init
                  0x8249cc                  _spi3_CS_assert
                  0x8249d4                  _spi3_CS_deassert
                  0x8249dc                  _spi3_wait_tx_not_full
                  0x8249f4                  _spi3_wait_rx_full
                  0x824a08                  _spi3_xfer8
                  0x824a3c                  _spi3_wait_tx_done

.text.qtm_acquisition_process
                  0x824a88        0x178
 .text.qtm_acquisition_process
                  0x824a88        0x178 ..\src\touch\lib\qtm_acq_dspic33ak_mp_0x0051.X.a(pic_acq_x_dspic33ak_mp.o)
                  0x824a88                  _qtm_acquisition_process

1d0069c193f2_1    0x824c00        0x16c
 1d0069c193f2_1
                  0x824c00        0x16c build/dsPIC33AK512/production/_ext/335358292/eq_perseus_wrapper.o

.text.qtm_itc_start_measurement_seq
                  0x824d6c        0x134
 .text.qtm_itc_start_measurement_seq
                  0x824d6c        0x134 ..\src\touch\lib\qtm_acq_dspic33ak_mp_0x0051.X.a(pic_acq_x_dspic33ak_mp.o)
                  0x824d6c                  _qtm_itc_start_measurement_seq

.text             0x824ea0        0x120
 .text            0x824ea0        0x120 build/dsPIC33AK512/production/_ext/1538408868/LED_level_meter.o
                  0x824ea0                  _level_meter_proc

.text.qtm_measure_node
                  0x824fc0        0x10c
 .text.qtm_measure_node
                  0x824fc0        0x10c ..\src\touch\lib\qtm_acq_dspic33ak_mp_0x0051.X.a(pic_acq_x_dspic33ak_mp.o)

5f0c69c195d0_1    0x8250cc         0xf8
 5f0c69c195d0_1
                  0x8250cc         0xf8 build/dsPIC33AK512/production/_ext/1536116519/app_debug.o

632869c193f7_0    0x8251c4         0xd8
 632869c193f7_0
                  0x8251c4         0xd8 build/dsPIC33AK512/production/_ext/1538408868/aec_src.o

.text.check_for_aks_block
                  0x82529c         0xc4
 .text.check_for_aks_block
                  0x82529c         0xc4 ..\src\touch\lib\qtm_touch_key_dspic33akmp_0x0002.X.a(pic_touch_key_x_dspic33akmp.o)

88e069c193e6_1    0x825360         0xc0
 88e069c193e6_1
                  0x825360         0xc0 build/dsPIC33AK512/production/_ext/1360937237/osc_drv.o

21d869c193ec_1    0x825420         0xc0
 21d869c193ec_1
                  0x825420         0xc0 build/dsPIC33AK512/production/_ext/1360937237/wm8904.o

630c69c193f3_0    0x8254e0         0xb0
 630c69c193f3_0
                  0x8254e0         0xb0 build/dsPIC33AK512/production/_ext/1536116519/eq_benchmark.o

630c69c193f3_2    0x825590         0xa0
 630c69c193f3_2
                  0x825590         0xa0 build/dsPIC33AK512/production/_ext/1536116519/eq_benchmark.o

.text.qtm_dspic33a_touch_handler_eoc
                  0x825630         0x88
 .text.qtm_dspic33a_touch_handler_eoc
                  0x825630         0x88 ..\src\touch\lib\qtm_acq_dspic33ak_mp_0x0051.X.a(pic_acq_x_dspic33ak_mp.o)
                  0x825630                  _qtm_dspic33a_touch_handler_eoc

98d469c193e3_2    0x8256b8         0x80
 98d469c193e3_2
                  0x8256b8         0x80 build/dsPIC33AK512/production/_ext/1360937237/i2c.o

.text             0x825738         0x78
 .text            0x825738         0x78 build/dsPIC33AK512/production/_ext/1360937237/tick_time.o
                  0x825738                  _Timer1_Init
                  0x825768                  _GetTicks
                  0x825770                  _delay_ms
                  0x825788                  _delay_us

bb869c193c2_0     0x8257b0         0x70
 bb869c193c2_0    0x8257b0         0x70 build/dsPIC33AK512/production/_ext/1538408868/float_conversion.o

.text.select_next_channel_to_measure
                  0x825820         0x68
 .text.select_next_channel_to_measure
                  0x825820         0x68 ..\src\touch\lib\qtm_acq_dspic33ak_mp_0x0051.X.a(pic_acq_x_dspic33ak_mp.o)

6c2469c195e3_0    0x825888         0x60
 6c2469c195e3_0
                  0x825888         0x60 build/dsPIC33AK512/production/_ext/1360937237/SPI_TDM_drv.o

22c69c193ef_1     0x8258e8         0x58
 22c69c193ef_1    0x8258e8         0x58 build/dsPIC33AK512/production/_ext/1360937237/SST26_drv.o

98d469c193e3_0    0x825940         0x50
 98d469c193e3_0
                  0x825940         0x50 build/dsPIC33AK512/production/_ext/1360937237/i2c.o

21d869c193ec_0    0x825990         0x48
 21d869c193ec_0
                  0x825990         0x48 build/dsPIC33AK512/production/_ext/1360937237/wm8904.o

5f0c69c195d0_0    0x8259d8         0x44
 5f0c69c195d0_0
                  0x8259d8         0x44 build/dsPIC33AK512/production/_ext/1536116519/app_debug.o

.text.qtm_set_sensor_node_cal
                  0x825a1c         0x44
 .text.qtm_set_sensor_node_cal
                  0x825a1c         0x44 ..\src\touch\lib\qtm_acq_dspic33ak_mp_0x0051.X.a(pic_acq_x_dspic33ak_mp.o)
                  0x825a1c                  _qtm_set_sensor_node_cal

.text.channel_decode
                  0x825a60         0x3c
 .text.channel_decode
                  0x825a60         0x3c ..\src\touch\lib\qtm_acq_dspic33ak_mp_0x0051.X.a(pic_acq_x_dspic33ak_mp.o)

.text.qtm_enable_sensor_node
                  0x825a9c         0x38
 .text.qtm_enable_sensor_node
                  0x825a9c         0x38 ..\src\touch\lib\qtm_acq_dspic33ak_mp_0x0051.X.a(pic_acq_x_dspic33ak_mp.o)
                  0x825a9c                  _qtm_enable_sensor_node

.text.qtm_calibrate_sensor_node
                  0x825ad4         0x34
 .text.qtm_calibrate_sensor_node
                  0x825ad4         0x34 ..\src\touch\lib\qtm_acq_dspic33ak_mp_0x0051.X.a(pic_acq_x_dspic33ak_mp.o)
                  0x825ad4                  _qtm_calibrate_sensor_node

.text.qtm_init_sensor_key
                  0x825b08         0x34
 .text.qtm_init_sensor_key
                  0x825b08         0x34 ..\src\touch\lib\qtm_touch_key_dspic33akmp_0x0002.X.a(pic_touch_key_x_dspic33akmp.o)
                  0x825b08                  _qtm_init_sensor_key

88e069c193e6_0    0x825b3c         0x30
 88e069c193e6_0
                  0x825b3c         0x30 build/dsPIC33AK512/production/_ext/1360937237/osc_drv.o

.text             0x825b6c         0x2c
 .text            0x825b6c         0x2c build/dsPIC33AK512/production/_ext/1034234695/pot.o
                  0x825b6c                  _POT_Initialize
                  0x825b70                  _POT_Read
                  0x825b78                  _POT_Process

860069c193e4_0    0x825b98         0x24
 860069c193e4_0
                  0x825b98         0x24 build/dsPIC33AK512/production/_ext/1360937237/main.o

8a069c193cb_0     0x825bbc         0x20
 8a069c193cb_0    0x825bbc         0x20 build/dsPIC33AK512/production/_ext/1538408868/LED_level_meter.o

32869c193f0_0     0x825bdc         0x20
 32869c193f0_0    0x825bdc         0x20 build/dsPIC33AK512/production/_ext/335358292/eq_api_33AK.o

.text.qtm_itc_qtlib_assign_signal_memory
                  0x825bfc         0x20
 .text.qtm_itc_qtlib_assign_signal_memory
                  0x825bfc         0x20 ..\src\touch\lib\qtm_acq_dspic33ak_mp_0x0051.X.a(pic_acq_x_dspic33ak_mp.o)
                  0x825bfc                  _qtm_itc_qtlib_assign_signal_memory

C:\Windows\TEMP\ccZepluN.s.scn1
                  0x825c1c         0x20
 C:\Windows\TEMP\ccZepluN.s.scn1
                  0x825c1c         0x20 ..\src\touch\lib\qtm_acq_dspic33ak_mp_0x0051.X.a(pic_acq_x_dspic33ak_mp.o)

98d469c193e3_1    0x825c3c         0x1c
 98d469c193e3_1
                  0x825c3c         0x1c build/dsPIC33AK512/production/_ext/1360937237/i2c.o

98d469c193e3_3    0x825c58         0x1c
 98d469c193e3_3
                  0x825c58         0x1c build/dsPIC33AK512/production/_ext/1360937237/i2c.o

66fc69c193dd_0    0x825c74         0x14
 66fc69c193dd_0
                  0x825c74         0x14 build/dsPIC33AK512/production/_ext/1536116519/dbconsole.o

.text.qtm_update_acq_freq_delay
                  0x825c88          0xc
 .text.qtm_update_acq_freq_delay
                  0x825c88          0xc ..\src\touch\lib\qtm_acq_dspic33ak_mp_0x0051.X.a(pic_acq_x_dspic33ak_mp.o)
                  0x825c88                  _qtm_update_acq_freq_delay

.text.qtm_update_qtlib_timer
                  0x825c94          0xc
 .text.qtm_update_qtlib_timer
                  0x825c94          0xc ..\src\touch\lib\qtm_touch_key_dspic33akmp_0x0002.X.a(pic_touch_key_x_dspic33akmp.o)
                  0x825c94                  _qtm_update_qtlib_timer

1d0069c193f2_0    0x825ca0          0x8
 1d0069c193f2_0
                  0x825ca0          0x8 build/dsPIC33AK512/production/_ext/335358292/eq_perseus_wrapper.o

6c2469c195e3_1    0x825ca8          0x4
 6c2469c195e3_1
                  0x825ca8          0x4 build/dsPIC33AK512/production/_ext/1360937237/SPI_TDM_drv.o

Cross Reference Table

Symbol                                            File
_AD3CH0CMPHI                                      build/dsPIC33AK512/production/_ext/659850406/adc3.o
_AD3CH0CMPLO                                      build/dsPIC33AK512/production/_ext/659850406/adc3.o
_AD3CH0CNT                                        build/dsPIC33AK512/production/_ext/659850406/adc3.o
_AD3CH0CON1                                       build/dsPIC33AK512/production/_ext/659850406/adc3.o
_AD3CH0CON1bits                                   build/dsPIC33AK512/production/_ext/659850406/adc3.o
_AD3CH0CON2                                       build/dsPIC33AK512/production/_ext/659850406/adc3.o
_AD3CH0CON2bits                                   build/dsPIC33AK512/production/_ext/659850406/adc3.o
_AD3CH0DATA                                       build/dsPIC33AK512/production/_ext/659850406/adc3.o
_AD3CH0RES                                        build/dsPIC33AK512/production/_ext/659850406/adc3.o
_AD3CH1CMPHI                                      build/dsPIC33AK512/production/_ext/659850406/adc3.o
_AD3CH1CMPLO                                      build/dsPIC33AK512/production/_ext/659850406/adc3.o
_AD3CH1CNT                                        build/dsPIC33AK512/production/_ext/659850406/adc3.o
_AD3CH1CON1                                       build/dsPIC33AK512/production/_ext/659850406/adc3.o
_AD3CH1CON2                                       build/dsPIC33AK512/production/_ext/659850406/adc3.o
_AD3CH1RES                                        build/dsPIC33AK512/production/_ext/659850406/adc3.o
_AD3CH2CMPHI                                      build/dsPIC33AK512/production/_ext/659850406/adc3.o
_AD3CH2CMPLO                                      build/dsPIC33AK512/production/_ext/659850406/adc3.o
_AD3CH2CNT                                        build/dsPIC33AK512/production/_ext/659850406/adc3.o
_AD3CH2CON1                                       build/dsPIC33AK512/production/_ext/659850406/adc3.o
_AD3CH2CON2                                       build/dsPIC33AK512/production/_ext/659850406/adc3.o
_AD3CH2RES                                        build/dsPIC33AK512/production/_ext/659850406/adc3.o
_AD3CH3CMPHI                                      build/dsPIC33AK512/production/_ext/659850406/adc3.o
_AD3CH3CMPLO                                      build/dsPIC33AK512/production/_ext/659850406/adc3.o
_AD3CH3CNT                                        build/dsPIC33AK512/production/_ext/659850406/adc3.o
_AD3CH3CON1                                       build/dsPIC33AK512/production/_ext/659850406/adc3.o
_AD3CH3CON2                                       build/dsPIC33AK512/production/_ext/659850406/adc3.o
_AD3CH3RES                                        build/dsPIC33AK512/production/_ext/659850406/adc3.o
_AD3CH4CMPHI                                      build/dsPIC33AK512/production/_ext/659850406/adc3.o
_AD3CH4CMPLO                                      build/dsPIC33AK512/production/_ext/659850406/adc3.o
_AD3CH4CNT                                        build/dsPIC33AK512/production/_ext/659850406/adc3.o
_AD3CH4CON1                                       build/dsPIC33AK512/production/_ext/659850406/adc3.o
_AD3CH4CON2                                       build/dsPIC33AK512/production/_ext/659850406/adc3.o
_AD3CH4RES                                        build/dsPIC33AK512/production/_ext/659850406/adc3.o
_AD3CH5CMPHI                                      build/dsPIC33AK512/production/_ext/659850406/adc3.o
_AD3CH5CMPLO                                      build/dsPIC33AK512/production/_ext/659850406/adc3.o
_AD3CH5CNT                                        build/dsPIC33AK512/production/_ext/659850406/adc3.o
_AD3CH5CON1                                       build/dsPIC33AK512/production/_ext/659850406/adc3.o
_AD3CH5CON2                                       build/dsPIC33AK512/production/_ext/659850406/adc3.o
_AD3CH5RES                                        build/dsPIC33AK512/production/_ext/659850406/adc3.o
_AD3CH6CMPHI                                      build/dsPIC33AK512/production/_ext/659850406/adc3.o
_AD3CH6CMPLO                                      build/dsPIC33AK512/production/_ext/659850406/adc3.o
_AD3CH6CNT                                        build/dsPIC33AK512/production/_ext/659850406/adc3.o
_AD3CH6CON1                                       build/dsPIC33AK512/production/_ext/659850406/adc3.o
_AD3CH6CON2                                       build/dsPIC33AK512/production/_ext/659850406/adc3.o
_AD3CH6RES                                        build/dsPIC33AK512/production/_ext/659850406/adc3.o
_AD3CH7CMPHI                                      build/dsPIC33AK512/production/_ext/659850406/adc3.o
_AD3CH7CMPLO                                      build/dsPIC33AK512/production/_ext/659850406/adc3.o
_AD3CH7CNT                                        build/dsPIC33AK512/production/_ext/659850406/adc3.o
_AD3CH7CON1                                       build/dsPIC33AK512/production/_ext/659850406/adc3.o
_AD3CH7CON2                                       build/dsPIC33AK512/production/_ext/659850406/adc3.o
_AD3CH7RES                                        build/dsPIC33AK512/production/_ext/659850406/adc3.o
_AD3CMPSTAT                                       build/dsPIC33AK512/production/_ext/659850406/adc3.o
_AD3CON                                           build/dsPIC33AK512/production/_ext/659850406/adc3.o
_AD3CONbits                                       build/dsPIC33AK512/production/_ext/659850406/adc3.o
_AD3DATAOVR                                       build/dsPIC33AK512/production/_ext/659850406/adc3.o
_AD3RSTAT                                         build/dsPIC33AK512/production/_ext/659850406/adc3.o
_AD3STAT                                          build/dsPIC33AK512/production/_ext/659850406/adc3.o
_AD3SWTRG                                         build/dsPIC33AK512/production/_ext/659850406/adc3.o
_AD4CH0CMPHI                                      build/dsPIC33AK512/production/_ext/659850406/adc4.o
_AD4CH0CMPLO                                      build/dsPIC33AK512/production/_ext/659850406/adc4.o
_AD4CH0CNT                                        build/dsPIC33AK512/production/_ext/659850406/adc4.o
_AD4CH0CON1                                       build/dsPIC33AK512/production/_ext/659850406/adc4.o
_AD4CH0CON1bits                                   build/dsPIC33AK512/production/_ext/659850406/adc4.o
_AD4CH0CON2                                       build/dsPIC33AK512/production/_ext/659850406/adc4.o
_AD4CH0CON2bits                                   build/dsPIC33AK512/production/_ext/659850406/adc4.o
_AD4CH0DATA                                       build/dsPIC33AK512/production/_ext/659850406/adc4.o
_AD4CH0RES                                        build/dsPIC33AK512/production/_ext/659850406/adc4.o
_AD4CH1CMPHI                                      build/dsPIC33AK512/production/_ext/659850406/adc4.o
_AD4CH1CMPLO                                      build/dsPIC33AK512/production/_ext/659850406/adc4.o
_AD4CH1CNT                                        build/dsPIC33AK512/production/_ext/659850406/adc4.o
_AD4CH1CON1                                       build/dsPIC33AK512/production/_ext/659850406/adc4.o
_AD4CH1CON2                                       build/dsPIC33AK512/production/_ext/659850406/adc4.o
_AD4CH1RES                                        build/dsPIC33AK512/production/_ext/659850406/adc4.o
_AD4CH2CMPHI                                      build/dsPIC33AK512/production/_ext/659850406/adc4.o
_AD4CH2CMPLO                                      build/dsPIC33AK512/production/_ext/659850406/adc4.o
_AD4CH2CNT                                        build/dsPIC33AK512/production/_ext/659850406/adc4.o
_AD4CH2CON1                                       build/dsPIC33AK512/production/_ext/659850406/adc4.o
_AD4CH2CON2                                       build/dsPIC33AK512/production/_ext/659850406/adc4.o
_AD4CH2RES                                        build/dsPIC33AK512/production/_ext/659850406/adc4.o
_AD4CH3CMPHI                                      build/dsPIC33AK512/production/_ext/659850406/adc4.o
_AD4CH3CMPLO                                      build/dsPIC33AK512/production/_ext/659850406/adc4.o
_AD4CH3CNT                                        build/dsPIC33AK512/production/_ext/659850406/adc4.o
_AD4CH3CON1                                       build/dsPIC33AK512/production/_ext/659850406/adc4.o
_AD4CH3CON2                                       build/dsPIC33AK512/production/_ext/659850406/adc4.o
_AD4CH3RES                                        build/dsPIC33AK512/production/_ext/659850406/adc4.o
_AD4CH4CMPHI                                      build/dsPIC33AK512/production/_ext/659850406/adc4.o
_AD4CH4CMPLO                                      build/dsPIC33AK512/production/_ext/659850406/adc4.o
_AD4CH4CNT                                        build/dsPIC33AK512/production/_ext/659850406/adc4.o
_AD4CH4CON1                                       build/dsPIC33AK512/production/_ext/659850406/adc4.o
_AD4CH4CON2                                       build/dsPIC33AK512/production/_ext/659850406/adc4.o
_AD4CH4RES                                        build/dsPIC33AK512/production/_ext/659850406/adc4.o
_AD4CH5CMPHI                                      build/dsPIC33AK512/production/_ext/659850406/adc4.o
_AD4CH5CMPLO                                      build/dsPIC33AK512/production/_ext/659850406/adc4.o
_AD4CH5CNT                                        build/dsPIC33AK512/production/_ext/659850406/adc4.o
_AD4CH5CON1                                       build/dsPIC33AK512/production/_ext/659850406/adc4.o
_AD4CH5CON2                                       build/dsPIC33AK512/production/_ext/659850406/adc4.o
_AD4CH5RES                                        build/dsPIC33AK512/production/_ext/659850406/adc4.o
_AD4CH6CMPHI                                      build/dsPIC33AK512/production/_ext/659850406/adc4.o
_AD4CH6CMPLO                                      build/dsPIC33AK512/production/_ext/659850406/adc4.o
_AD4CH6CNT                                        build/dsPIC33AK512/production/_ext/659850406/adc4.o
_AD4CH6CON1                                       build/dsPIC33AK512/production/_ext/659850406/adc4.o
_AD4CH6CON2                                       build/dsPIC33AK512/production/_ext/659850406/adc4.o
_AD4CH6RES                                        build/dsPIC33AK512/production/_ext/659850406/adc4.o
_AD4CH7CMPHI                                      build/dsPIC33AK512/production/_ext/659850406/adc4.o
_AD4CH7CMPLO                                      build/dsPIC33AK512/production/_ext/659850406/adc4.o
_AD4CH7CNT                                        build/dsPIC33AK512/production/_ext/659850406/adc4.o
_AD4CH7CON1                                       build/dsPIC33AK512/production/_ext/659850406/adc4.o
_AD4CH7CON2                                       build/dsPIC33AK512/production/_ext/659850406/adc4.o
_AD4CH7RES                                        build/dsPIC33AK512/production/_ext/659850406/adc4.o
_AD4CMPSTAT                                       build/dsPIC33AK512/production/_ext/659850406/adc4.o
_AD4CON                                           build/dsPIC33AK512/production/_ext/659850406/adc4.o
_AD4CONbits                                       build/dsPIC33AK512/production/_ext/659850406/adc4.o
_AD4DATAOVR                                       build/dsPIC33AK512/production/_ext/659850406/adc4.o
_AD4RSTAT                                         build/dsPIC33AK512/production/_ext/659850406/adc4.o
_AD4STAT                                          build/dsPIC33AK512/production/_ext/659850406/adc4.o
_AD4SWTRG                                         build/dsPIC33AK512/production/_ext/659850406/adc4.o
_AD5CH0CMPHI                                      build/dsPIC33AK512/production/_ext/659850406/adc5.o
_AD5CH0CMPLO                                      build/dsPIC33AK512/production/_ext/659850406/adc5.o
_AD5CH0CNT                                        build/dsPIC33AK512/production/_ext/659850406/adc5.o
_AD5CH0CON1                                       build/dsPIC33AK512/production/_ext/659850406/adc5.o
_AD5CH0CON2                                       build/dsPIC33AK512/production/_ext/659850406/adc5.o
_AD5CH0DATA                                       build/dsPIC33AK512/production/_ext/1034234695/pot.o
                                                  build/dsPIC33AK512/production/_ext/659850406/adc5.o
_AD5CH0RES                                        build/dsPIC33AK512/production/_ext/659850406/adc5.o
_AD5CH10CMPHI                                     build/dsPIC33AK512/production/_ext/659850406/adc5.o
_AD5CH10CMPLO                                     build/dsPIC33AK512/production/_ext/659850406/adc5.o
_AD5CH10CNT                                       build/dsPIC33AK512/production/_ext/659850406/adc5.o
_AD5CH10CON1                                      build/dsPIC33AK512/production/_ext/659850406/adc5.o
_AD5CH10CON2                                      build/dsPIC33AK512/production/_ext/659850406/adc5.o
_AD5CH10RES                                       build/dsPIC33AK512/production/_ext/659850406/adc5.o
_AD5CH11CMPHI                                     build/dsPIC33AK512/production/_ext/659850406/adc5.o
_AD5CH11CMPLO                                     build/dsPIC33AK512/production/_ext/659850406/adc5.o
_AD5CH11CNT                                       build/dsPIC33AK512/production/_ext/659850406/adc5.o
_AD5CH11CON1                                      build/dsPIC33AK512/production/_ext/659850406/adc5.o
_AD5CH11CON2                                      build/dsPIC33AK512/production/_ext/659850406/adc5.o
_AD5CH11RES                                       build/dsPIC33AK512/production/_ext/659850406/adc5.o
_AD5CH12CMPHI                                     build/dsPIC33AK512/production/_ext/659850406/adc5.o
_AD5CH12CMPLO                                     build/dsPIC33AK512/production/_ext/659850406/adc5.o
_AD5CH12CNT                                       build/dsPIC33AK512/production/_ext/659850406/adc5.o
_AD5CH12CON1                                      build/dsPIC33AK512/production/_ext/659850406/adc5.o
_AD5CH12CON2                                      build/dsPIC33AK512/production/_ext/659850406/adc5.o
_AD5CH12RES                                       build/dsPIC33AK512/production/_ext/659850406/adc5.o
_AD5CH13CMPHI                                     build/dsPIC33AK512/production/_ext/659850406/adc5.o
_AD5CH13CMPLO                                     build/dsPIC33AK512/production/_ext/659850406/adc5.o
_AD5CH13CNT                                       build/dsPIC33AK512/production/_ext/659850406/adc5.o
_AD5CH13CON1                                      build/dsPIC33AK512/production/_ext/659850406/adc5.o
_AD5CH13CON2                                      build/dsPIC33AK512/production/_ext/659850406/adc5.o
_AD5CH13RES                                       build/dsPIC33AK512/production/_ext/659850406/adc5.o
_AD5CH14CMPHI                                     build/dsPIC33AK512/production/_ext/659850406/adc5.o
_AD5CH14CMPLO                                     build/dsPIC33AK512/production/_ext/659850406/adc5.o
_AD5CH14CNT                                       build/dsPIC33AK512/production/_ext/659850406/adc5.o
_AD5CH14CON1                                      build/dsPIC33AK512/production/_ext/659850406/adc5.o
_AD5CH14CON2                                      build/dsPIC33AK512/production/_ext/659850406/adc5.o
_AD5CH14RES                                       build/dsPIC33AK512/production/_ext/659850406/adc5.o
_AD5CH15CMPHI                                     build/dsPIC33AK512/production/_ext/659850406/adc5.o
_AD5CH15CMPLO                                     build/dsPIC33AK512/production/_ext/659850406/adc5.o
_AD5CH15CNT                                       build/dsPIC33AK512/production/_ext/659850406/adc5.o
_AD5CH15CON1                                      build/dsPIC33AK512/production/_ext/659850406/adc5.o
_AD5CH15CON2                                      build/dsPIC33AK512/production/_ext/659850406/adc5.o
_AD5CH15RES                                       build/dsPIC33AK512/production/_ext/659850406/adc5.o
_AD5CH1CMPHI                                      build/dsPIC33AK512/production/_ext/659850406/adc5.o
_AD5CH1CMPLO                                      build/dsPIC33AK512/production/_ext/659850406/adc5.o
_AD5CH1CNT                                        build/dsPIC33AK512/production/_ext/659850406/adc5.o
_AD5CH1CON1                                       build/dsPIC33AK512/production/_ext/659850406/adc5.o
_AD5CH1CON2                                       build/dsPIC33AK512/production/_ext/659850406/adc5.o
_AD5CH1RES                                        build/dsPIC33AK512/production/_ext/659850406/adc5.o
_AD5CH2CMPHI                                      build/dsPIC33AK512/production/_ext/659850406/adc5.o
_AD5CH2CMPLO                                      build/dsPIC33AK512/production/_ext/659850406/adc5.o
_AD5CH2CNT                                        build/dsPIC33AK512/production/_ext/659850406/adc5.o
_AD5CH2CON1                                       build/dsPIC33AK512/production/_ext/659850406/adc5.o
_AD5CH2CON2                                       build/dsPIC33AK512/production/_ext/659850406/adc5.o
_AD5CH2RES                                        build/dsPIC33AK512/production/_ext/659850406/adc5.o
_AD5CH3CMPHI                                      build/dsPIC33AK512/production/_ext/659850406/adc5.o
_AD5CH3CMPLO                                      build/dsPIC33AK512/production/_ext/659850406/adc5.o
_AD5CH3CNT                                        build/dsPIC33AK512/production/_ext/659850406/adc5.o
_AD5CH3CON1                                       build/dsPIC33AK512/production/_ext/659850406/adc5.o
_AD5CH3CON2                                       build/dsPIC33AK512/production/_ext/659850406/adc5.o
_AD5CH3RES                                        build/dsPIC33AK512/production/_ext/659850406/adc5.o
_AD5CH4CMPHI                                      build/dsPIC33AK512/production/_ext/659850406/adc5.o
_AD5CH4CMPLO                                      build/dsPIC33AK512/production/_ext/659850406/adc5.o
_AD5CH4CNT                                        build/dsPIC33AK512/production/_ext/659850406/adc5.o
_AD5CH4CON1                                       build/dsPIC33AK512/production/_ext/659850406/adc5.o
_AD5CH4CON2                                       build/dsPIC33AK512/production/_ext/659850406/adc5.o
_AD5CH4RES                                        build/dsPIC33AK512/production/_ext/659850406/adc5.o
_AD5CH5CMPHI                                      build/dsPIC33AK512/production/_ext/659850406/adc5.o
_AD5CH5CMPLO                                      build/dsPIC33AK512/production/_ext/659850406/adc5.o
_AD5CH5CNT                                        build/dsPIC33AK512/production/_ext/659850406/adc5.o
_AD5CH5CON1                                       build/dsPIC33AK512/production/_ext/659850406/adc5.o
_AD5CH5CON1bits                                   ..\src\touch\lib\qtm_acq_dspic33ak_mp_0x0051.X.a(pic_acq_x_dspic33ak_mp.o)
_AD5CH5CON2                                       build/dsPIC33AK512/production/_ext/659850406/adc5.o
_AD5CH5RES                                        build/dsPIC33AK512/production/_ext/659850406/adc5.o
_AD5CH6CMPHI                                      build/dsPIC33AK512/production/_ext/659850406/adc5.o
_AD5CH6CMPLO                                      build/dsPIC33AK512/production/_ext/659850406/adc5.o
_AD5CH6CNT                                        build/dsPIC33AK512/production/_ext/659850406/adc5.o
_AD5CH6CON1                                       build/dsPIC33AK512/production/_ext/659850406/adc5.o
_AD5CH6CON2                                       build/dsPIC33AK512/production/_ext/659850406/adc5.o
_AD5CH6RES                                        build/dsPIC33AK512/production/_ext/659850406/adc5.o
_AD5CH7CMPHI                                      build/dsPIC33AK512/production/_ext/659850406/adc5.o
_AD5CH7CMPLO                                      build/dsPIC33AK512/production/_ext/659850406/adc5.o
_AD5CH7CNT                                        build/dsPIC33AK512/production/_ext/659850406/adc5.o
_AD5CH7CON1                                       build/dsPIC33AK512/production/_ext/659850406/adc5.o
_AD5CH7CON2                                       build/dsPIC33AK512/production/_ext/659850406/adc5.o
_AD5CH7RES                                        build/dsPIC33AK512/production/_ext/659850406/adc5.o
_AD5CH8CMPHI                                      build/dsPIC33AK512/production/_ext/659850406/adc5.o
_AD5CH8CMPLO                                      build/dsPIC33AK512/production/_ext/659850406/adc5.o
_AD5CH8CNT                                        build/dsPIC33AK512/production/_ext/659850406/adc5.o
_AD5CH8CON1                                       build/dsPIC33AK512/production/_ext/659850406/adc5.o
_AD5CH8CON2                                       build/dsPIC33AK512/production/_ext/659850406/adc5.o
_AD5CH8RES                                        build/dsPIC33AK512/production/_ext/659850406/adc5.o
_AD5CH9CMPHI                                      build/dsPIC33AK512/production/_ext/659850406/adc5.o
_AD5CH9CMPLO                                      build/dsPIC33AK512/production/_ext/659850406/adc5.o
_AD5CH9CNT                                        build/dsPIC33AK512/production/_ext/659850406/adc5.o
_AD5CH9CON1                                       build/dsPIC33AK512/production/_ext/659850406/adc5.o
_AD5CH9CON2                                       build/dsPIC33AK512/production/_ext/659850406/adc5.o
_AD5CH9RES                                        build/dsPIC33AK512/production/_ext/659850406/adc5.o
_AD5CMPSTAT                                       build/dsPIC33AK512/production/_ext/659850406/adc5.o
_AD5CON                                           build/dsPIC33AK512/production/_ext/659850406/adc5.o
_AD5CONbits                                       ..\src\touch\lib\qtm_acq_dspic33ak_mp_0x0051.X.a(pic_acq_x_dspic33ak_mp.o)
                                                  build/dsPIC33AK512/production/_ext/659850406/adc5.o
_AD5DATAOVR                                       build/dsPIC33AK512/production/_ext/659850406/adc5.o
_AD5RSTAT                                         build/dsPIC33AK512/production/_ext/659850406/adc5.o
_AD5STAT                                          build/dsPIC33AK512/production/_ext/659850406/adc5.o
_AD5STATbits                                      build/dsPIC33AK512/production/_ext/1034234695/pot.o
                                                  build/dsPIC33AK512/production/_ext/659850406/adc5.o
_AD5SWTRG                                         build/dsPIC33AK512/production/_ext/1034234695/pot.o
                                                  build/dsPIC33AK512/production/_ext/659850406/adc5.o
_AD5SWTRGbits                                     build/dsPIC33AK512/production/_ext/659850406/adc5.o
_ADC3_Cpy_Tdm_Style                               build/dsPIC33AK512/production/_ext/659850406/adc3.o
                                                  build/dsPIC33AK512/production/_ext/659850406/adc4.o
_ADC3_Remove_Dc_I32                               build/dsPIC33AK512/production/_ext/659850406/adc3.o
                                                  build/dsPIC33AK512/production/_ext/659850406/adc4.o
_ADC3_convert_int32_to_float                      build/dsPIC33AK512/production/_ext/659850406/adc3.o
_ADC3in_Start                                     build/dsPIC33AK512/production/_ext/659850406/adc3.o
                                                  build/dsPIC33AK512/production/_ext/1360937237/main.o
_ADC4in_Start                                     build/dsPIC33AK512/production/_ext/659850406/adc4.o
                                                  build/dsPIC33AK512/production/_ext/1360937237/main.o
_ADC5_ChannelCallback                             build/dsPIC33AK512/production/_ext/659850406/adc5.o
_ADC5_ChannelCallbackRegister                     build/dsPIC33AK512/production/_ext/659850406/adc5.o
_ADC5_ChannelTasks                                build/dsPIC33AK512/production/_ext/659850406/adc5.o
_ADC5_ComparatorCallback                          build/dsPIC33AK512/production/_ext/659850406/adc5.o
_ADC5_ComparatorCallbackRegister                  build/dsPIC33AK512/production/_ext/659850406/adc5.o
_ADC5_Deinitialize                                build/dsPIC33AK512/production/_ext/659850406/adc5.o
_ADC5_Initialize                                  build/dsPIC33AK512/production/_ext/659850406/adc5.o
                                                  build/dsPIC33AK512/production/_ext/1360937237/main.o
_ADC5_PWMTriggerSourceSet                         build/dsPIC33AK512/production/_ext/659850406/adc5.o
_ADC5_Result32BitChannelCallback                  build/dsPIC33AK512/production/_ext/659850406/adc5.o
_ADC5_Result32BitChannelCallbackRegister          build/dsPIC33AK512/production/_ext/659850406/adc5.o
_ADC5_SharedCoreCalibration                       build/dsPIC33AK512/production/_ext/659850406/adc5.o
_ADC5_SharedCorePowerEnable                       build/dsPIC33AK512/production/_ext/659850406/adc5.o
_ANSELA                                           build/dsPIC33AK512/production/_ext/1360937237/SPI3_drv.o
                                                  build/dsPIC33AK512/production/_ext/1360937237/main.o
                                                  build/dsPIC33AK512/production/_ext/659850406/adc3.o
_ANSELB                                           build/dsPIC33AK512/production/_ext/1360937237/main.o
                                                  build/dsPIC33AK512/production/_ext/1034234695/button_led.o
                                                  build/dsPIC33AK512/production/_ext/659850406/adc4.o
_ANSELC                                           build/dsPIC33AK512/production/_ext/1360937237/main.o
_ANSELD                                           build/dsPIC33AK512/production/_ext/1360937237/SPI3_drv.o
                                                  build/dsPIC33AK512/production/_ext/1360937237/main.o
_ANSELE                                           build/dsPIC33AK512/production/_ext/1360937237/SPI3_drv.o
                                                  build/dsPIC33AK512/production/_ext/1360937237/main.o
                                                  build/dsPIC33AK512/production/_ext/1360937237/SPI_TDM_drv.o
_ANSELF                                           build/dsPIC33AK512/production/_ext/1034234695/button_led.o
_ANSELG                                           build/dsPIC33AK512/production/_ext/1360937237/SPI_TDM_drv.o
_ANSELH                                           build/dsPIC33AK512/production/_ext/1360937237/main.o
_BMXIRAMH                                         c:/program files/microchip/xc-dsc/v3.31/bin/bin/../../lib\libc99-pic30-elf.a(crt0_extendedaa.o)
_BMXIRAML                                         c:/program files/microchip/xc-dsc/v3.31/bin/bin/../../lib\libc99-pic30-elf.a(crt0_extendedaa.o)
_BUTTON_DetectReleased                            build/dsPIC33AK512/production/_ext/1034234695/button_led.o
                                                  build/dsPIC33AK512/production/_ext/1360937237/main.o
_BUTTON_Init                                      build/dsPIC33AK512/production/_ext/1034234695/button_led.o
                                                  build/dsPIC33AK512/production/_ext/1360937237/main.o
_BUTTON_IsPressed                                 build/dsPIC33AK512/production/_ext/1034234695/button_led.o
                                                  build/dsPIC33AK512/production/_ext/1360937237/main.o
_CLK12CONbits                                     build/dsPIC33AK512/production/_ext/1360937237/osc_drv.o
_CLK12DIVbits                                     build/dsPIC33AK512/production/_ext/1360937237/osc_drv.o
_CLK1CONbits                                      build/dsPIC33AK512/production/_ext/1360937237/osc_drv.o
_CLK1DIVbits                                      build/dsPIC33AK512/production/_ext/1360937237/osc_drv.o
_CLK5CONbits                                      build/dsPIC33AK512/production/_ext/1360937237/osc_drv.o
_CLK5DIVbits                                      build/dsPIC33AK512/production/_ext/1360937237/osc_drv.o
_CLK6CONbits                                      build/dsPIC33AK512/production/_ext/1360937237/osc_drv.o
_CLK6DIVbits                                      build/dsPIC33AK512/production/_ext/1360937237/osc_drv.o
_CLK8CONbits                                      build/dsPIC33AK512/production/_ext/1360937237/osc_drv.o
_CLK8DIVbits                                      build/dsPIC33AK512/production/_ext/1360937237/osc_drv.o
_CLK9CONbits                                      build/dsPIC33AK512/production/_ext/1360937237/osc_drv.o
_CLK9DIVbits                                      build/dsPIC33AK512/production/_ext/1360937237/osc_drv.o
_DMA0CH                                           build/dsPIC33AK512/production/_ext/1360937237/SPI_TDM_drv.o
_DMA0CHbits                                       build/dsPIC33AK512/production/_ext/1360937237/SPI_TDM_drv.o
_DMA0CNT                                          build/dsPIC33AK512/production/_ext/1360937237/SPI_TDM_drv.o
_DMA0DST                                          build/dsPIC33AK512/production/_ext/1360937237/SPI_TDM_drv.o
_DMA0SELbits                                      build/dsPIC33AK512/production/_ext/1360937237/SPI_TDM_drv.o
_DMA0SRC                                          build/dsPIC33AK512/production/_ext/1360937237/SPI_TDM_drv.o
_DMA0STAT                                         build/dsPIC33AK512/production/_ext/1360937237/SPI_TDM_drv.o
_DMA1CH                                           build/dsPIC33AK512/production/_ext/1360937237/SPI_TDM_drv.o
_DMA1CHbits                                       build/dsPIC33AK512/production/_ext/1360937237/SPI_TDM_drv.o
_DMA1CNT                                          build/dsPIC33AK512/production/_ext/1360937237/SPI_TDM_drv.o
_DMA1DST                                          build/dsPIC33AK512/production/_ext/1360937237/SPI_TDM_drv.o
_DMA1SELbits                                      build/dsPIC33AK512/production/_ext/1360937237/SPI_TDM_drv.o
_DMA1SRC                                          build/dsPIC33AK512/production/_ext/1360937237/SPI_TDM_drv.o
_DMA1STAT                                         build/dsPIC33AK512/production/_ext/1360937237/SPI_TDM_drv.o
_DMA2CH                                           build/dsPIC33AK512/production/_ext/659850406/adc3.o
_DMA2CHbits                                       build/dsPIC33AK512/production/_ext/659850406/adc3.o
_DMA2CNT                                          build/dsPIC33AK512/production/_ext/659850406/adc3.o
_DMA2DST                                          build/dsPIC33AK512/production/_ext/659850406/adc3.o
_DMA2SELbits                                      build/dsPIC33AK512/production/_ext/659850406/adc3.o
_DMA2SRC                                          build/dsPIC33AK512/production/_ext/659850406/adc3.o
_DMA2STAT                                         build/dsPIC33AK512/production/_ext/659850406/adc3.o
_DMA3CH                                           build/dsPIC33AK512/production/_ext/659850406/adc4.o
_DMA3CHbits                                       build/dsPIC33AK512/production/_ext/659850406/adc4.o
_DMA3CNT                                          build/dsPIC33AK512/production/_ext/659850406/adc4.o
_DMA3DST                                          build/dsPIC33AK512/production/_ext/659850406/adc4.o
_DMA3SELbits                                      build/dsPIC33AK512/production/_ext/659850406/adc4.o
_DMA3SRC                                          build/dsPIC33AK512/production/_ext/659850406/adc4.o
_DMA3STAT                                         build/dsPIC33AK512/production/_ext/659850406/adc4.o
_DMA4CH                                           build/dsPIC33AK512/production/_ext/1360937237/pwm.o
_DMA4CHbits                                       build/dsPIC33AK512/production/_ext/1360937237/pwm.o
_DMA4CNT                                          build/dsPIC33AK512/production/_ext/1360937237/pwm.o
_DMA4DST                                          build/dsPIC33AK512/production/_ext/1360937237/pwm.o
_DMA4SELbits                                      build/dsPIC33AK512/production/_ext/1360937237/pwm.o
_DMA4SRC                                          build/dsPIC33AK512/production/_ext/1360937237/pwm.o
_DMA4STAT                                         build/dsPIC33AK512/production/_ext/1360937237/pwm.o
_DMA5CH                                           build/dsPIC33AK512/production/_ext/1360937237/pwm.o
_DMA5CHbits                                       build/dsPIC33AK512/production/_ext/1360937237/pwm.o
_DMA5CNT                                          build/dsPIC33AK512/production/_ext/1360937237/pwm.o
_DMA5DST                                          build/dsPIC33AK512/production/_ext/1360937237/pwm.o
_DMA5SELbits                                      build/dsPIC33AK512/production/_ext/1360937237/pwm.o
_DMA5SRC                                          build/dsPIC33AK512/production/_ext/1360937237/pwm.o
_DMA5STAT                                         build/dsPIC33AK512/production/_ext/1360937237/pwm.o
_DMA6CH                                           build/dsPIC33AK512/production/_ext/1360937237/pwm.o
_DMA6CHbits                                       build/dsPIC33AK512/production/_ext/1360937237/pwm.o
_DMA6CNT                                          build/dsPIC33AK512/production/_ext/1360937237/pwm.o
_DMA6DST                                          build/dsPIC33AK512/production/_ext/1360937237/pwm.o
_DMA6SELbits                                      build/dsPIC33AK512/production/_ext/1360937237/pwm.o
_DMA6SRC                                          build/dsPIC33AK512/production/_ext/1360937237/pwm.o
_DMA6STAT                                         build/dsPIC33AK512/production/_ext/1360937237/pwm.o
_DMA7CH                                           build/dsPIC33AK512/production/_ext/1360937237/pwm.o
_DMA7CHbits                                       build/dsPIC33AK512/production/_ext/1360937237/pwm.o
_DMA7CNT                                          build/dsPIC33AK512/production/_ext/1360937237/pwm.o
_DMA7DST                                          build/dsPIC33AK512/production/_ext/1360937237/pwm.o
_DMA7SELbits                                      build/dsPIC33AK512/production/_ext/1360937237/pwm.o
_DMA7SRC                                          build/dsPIC33AK512/production/_ext/1360937237/pwm.o
_DMA7STAT                                         build/dsPIC33AK512/production/_ext/1360937237/pwm.o
_DMACONbits                                       build/dsPIC33AK512/production/_ext/1360937237/SPI_TDM_drv.o
_DMAHIGH                                          build/dsPIC33AK512/production/_ext/1360937237/SPI_TDM_drv.o
_DMALOW                                           build/dsPIC33AK512/production/_ext/1360937237/SPI_TDM_drv.o
_DMA_BaseInit                                     build/dsPIC33AK512/production/_ext/1360937237/SPI_TDM_drv.o
                                                  build/dsPIC33AK512/production/_ext/1360937237/main.o
_DMA_VaridateInit                                 build/dsPIC33AK512/production/_ext/1360937237/SPI_TDM_drv.o
                                                  build/dsPIC33AK512/production/_ext/1360937237/pwm.o
                                                  build/dsPIC33AK512/production/_ext/659850406/adc4.o
                                                  build/dsPIC33AK512/production/_ext/659850406/adc3.o
_EQ_Enable                                        build/dsPIC33AK512/production/_ext/335358292/eq_api_33AK.o
                                                  build/dsPIC33AK512/production/_ext/335358292/eq_perseus_wrapper.o
_EQ_GetAllGains                                   build/dsPIC33AK512/production/_ext/335358292/eq_api_33AK.o
_EQ_GetBandGain                                   build/dsPIC33AK512/production/_ext/335358292/eq_api_33AK.o
                                                  build/dsPIC33AK512/production/_ext/335358292/eq_perseus_wrapper.o
_EQ_GetGainsLegacy                                build/dsPIC33AK512/production/_ext/335358292/eq_api_33AK.o
_EQ_GetMasterGain                                 build/dsPIC33AK512/production/_ext/335358292/eq_api_33AK.o
                                                  build/dsPIC33AK512/production/_ext/335358292/eq_perseus_wrapper.o
_EQ_GetMasterGainLegacy                           build/dsPIC33AK512/production/_ext/335358292/eq_api_33AK.o
_EQ_Init                                          build/dsPIC33AK512/production/_ext/335358292/eq_api_33AK.o
                                                  build/dsPIC33AK512/production/_ext/335358292/eq_perseus_wrapper.o
_EQ_IsEnabled                                     build/dsPIC33AK512/production/_ext/335358292/eq_api_33AK.o
                                                  build/dsPIC33AK512/production/_ext/335358292/eq_perseus_wrapper.o
_EQ_Process                                       build/dsPIC33AK512/production/_ext/335358292/eq_api_33AK.o
                                                  build/dsPIC33AK512/production/_ext/335358292/eq_perseus_wrapper.o
_EQ_ProcessQ15                                    build/dsPIC33AK512/production/_ext/335358292/eq_api_33AK.o
_EQ_ProcessSeparate                               build/dsPIC33AK512/production/_ext/335358292/eq_api_33AK.o
_EQ_Reset                                         build/dsPIC33AK512/production/_ext/335358292/eq_api_33AK.o
_EQ_SetAllGains                                   build/dsPIC33AK512/production/_ext/335358292/eq_api_33AK.o
_EQ_SetBandGain                                   build/dsPIC33AK512/production/_ext/335358292/eq_api_33AK.o
                                                  build/dsPIC33AK512/production/_ext/335358292/eq_perseus_wrapper.o
_EQ_SetBandParams                                 build/dsPIC33AK512/production/_ext/335358292/eq_api_33AK.o
_EQ_SetGainsLegacy                                build/dsPIC33AK512/production/_ext/335358292/eq_api_33AK.o
_EQ_SetMasterGain                                 build/dsPIC33AK512/production/_ext/335358292/eq_api_33AK.o
                                                  build/dsPIC33AK512/production/_ext/335358292/eq_perseus_wrapper.o
_EQ_SetMasterGainLegacy                           build/dsPIC33AK512/production/_ext/335358292/eq_api_33AK.o
_Ena_EngineSynth                                  build/dsPIC33AK512/production/_ext/1360937237/SPI_TDM_drv.o
                                                  build/dsPIC33AK512/production/_ext/1360937237/main.o
_EngineBlip_init                                  build/dsPIC33AK512/production/_ext/1538408868/engine_synth.o
_EngineBlip_trigger                               build/dsPIC33AK512/production/_ext/1538408868/engine_synth.o
_EngineBlip_update                                build/dsPIC33AK512/production/_ext/1538408868/engine_synth.o
_EngineRumble_setLFO                              build/dsPIC33AK512/production/_ext/1538408868/engine_synth.o
_EngineSynthWrap_init                             build/dsPIC33AK512/production/_ext/1538408868/engine_synth.o
_EngineSynth_setRPM                               build/dsPIC33AK512/production/_ext/1538408868/engine_synth.o
_EngineSynth_setTargetRPM                         build/dsPIC33AK512/production/_ext/1538408868/engine_synth.o
_EngineSynth_setThrottle                          build/dsPIC33AK512/production/_ext/1538408868/engine_synth.o
_GetTicks                                         build/dsPIC33AK512/production/_ext/1360937237/tick_time.o
                                                  build/dsPIC33AK512/production/_ext/1360937237/osc_drv.o
                                                  build/dsPIC33AK512/production/_ext/1360937237/main.o
                                                  build/dsPIC33AK512/production/_ext/1360937237/i2c.o
_I2C1BITObits                                     build/dsPIC33AK512/production/_ext/1360937237/i2c.o
_I2C1CON1                                         build/dsPIC33AK512/production/_ext/1360937237/i2c.o
_I2C1CON1bits                                     build/dsPIC33AK512/production/_ext/1360937237/i2c.o
_I2C1CON2                                         build/dsPIC33AK512/production/_ext/1360937237/i2c.o
_I2C1CON2bits                                     build/dsPIC33AK512/production/_ext/1360937237/i2c.o
_I2C1HBRG                                         build/dsPIC33AK512/production/_ext/1360937237/i2c.o
_I2C1LBRG                                         build/dsPIC33AK512/production/_ext/1360937237/i2c.o
_I2C1RCV                                          build/dsPIC33AK512/production/_ext/1360937237/i2c.o
_I2C1STAT1                                        build/dsPIC33AK512/production/_ext/1360937237/i2c.o
_I2C1STAT1bits                                    build/dsPIC33AK512/production/_ext/1360937237/i2c.o
_I2C1STAT2                                        build/dsPIC33AK512/production/_ext/1360937237/i2c.o
_I2C1STAT2bits                                    build/dsPIC33AK512/production/_ext/1360937237/i2c.o
_I2C1TRN                                          build/dsPIC33AK512/production/_ext/1360937237/i2c.o
_I2C1_Init                                        build/dsPIC33AK512/production/_ext/1360937237/i2c.o
_I2C2BITObits                                     build/dsPIC33AK512/production/_ext/1360937237/i2c.o
_I2C2CON1                                         build/dsPIC33AK512/production/_ext/1360937237/i2c.o
_I2C2CON1bits                                     build/dsPIC33AK512/production/_ext/1360937237/wm8904.o
                                                  build/dsPIC33AK512/production/_ext/1360937237/i2c.o
_I2C2CON2                                         build/dsPIC33AK512/production/_ext/1360937237/i2c.o
_I2C2CON2bits                                     build/dsPIC33AK512/production/_ext/1360937237/i2c.o
_I2C2HBRG                                         build/dsPIC33AK512/production/_ext/1360937237/i2c.o
_I2C2LBRG                                         build/dsPIC33AK512/production/_ext/1360937237/i2c.o
_I2C2RCV                                          build/dsPIC33AK512/production/_ext/1360937237/wm8904.o
                                                  build/dsPIC33AK512/production/_ext/1360937237/i2c.o
_I2C2STAT1                                        build/dsPIC33AK512/production/_ext/1360937237/wm8904.o
                                                  build/dsPIC33AK512/production/_ext/1360937237/i2c.o
_I2C2STAT1bits                                    build/dsPIC33AK512/production/_ext/1360937237/wm8904.o
                                                  build/dsPIC33AK512/production/_ext/1360937237/i2c.o
_I2C2STAT2                                        build/dsPIC33AK512/production/_ext/1360937237/wm8904.o
                                                  build/dsPIC33AK512/production/_ext/1360937237/i2c.o
_I2C2STAT2bits                                    build/dsPIC33AK512/production/_ext/1360937237/i2c.o
_I2C2TRN                                          build/dsPIC33AK512/production/_ext/1360937237/i2c.o
_I2C2_Init                                        build/dsPIC33AK512/production/_ext/1360937237/i2c.o
                                                  build/dsPIC33AK512/production/_ext/1360937237/main.o
_I2Cx_ReadByte                                    build/dsPIC33AK512/production/_ext/1360937237/i2c.o
_I2Cx_SendACK                                     build/dsPIC33AK512/production/_ext/1360937237/i2c.o
                                                  build/dsPIC33AK512/production/_ext/1360937237/wm8904.o
_I2Cx_Start                                       build/dsPIC33AK512/production/_ext/1360937237/i2c.o
                                                  build/dsPIC33AK512/production/_ext/1360937237/wm8904.o
_I2Cx_Stop                                        build/dsPIC33AK512/production/_ext/1360937237/i2c.o
                                                  build/dsPIC33AK512/production/_ext/1360937237/wm8904.o
_I2Cx_WriteByte                                   build/dsPIC33AK512/production/_ext/1360937237/i2c.o
                                                  build/dsPIC33AK512/production/_ext/1360937237/wm8904.o
_IEC10bits                                        ..\src\touch\lib\qtm_acq_dspic33ak_mp_0x0051.X.a(pic_acq_x_dspic33ak_mp.o)
_IEC1bits                                         build/dsPIC33AK512/production/_ext/1360937237/tick_time.o
_IEC2bits                                         build/dsPIC33AK512/production/_ext/1360937237/SPI_TDM_drv.o
                                                  build/dsPIC33AK512/production/_ext/659850406/adc4.o
                                                  build/dsPIC33AK512/production/_ext/659850406/adc3.o
_IEC3bits                                         build/dsPIC33AK512/production/_ext/1360937237/pwm.o
                                                  build/dsPIC33AK512/production/_ext/1018880376/uart1.o
_IEC6bits                                         build/dsPIC33AK512/production/_ext/659850406/adc4.o
                                                  build/dsPIC33AK512/production/_ext/659850406/adc3.o
_IFS10bits                                        ..\src\touch\lib\qtm_acq_dspic33ak_mp_0x0051.X.a(pic_acq_x_dspic33ak_mp.o)
_IFS1bits                                         build/dsPIC33AK512/production/_ext/1360937237/tick_time.o
_IFS2bits                                         build/dsPIC33AK512/production/_ext/1360937237/SPI3_drv.o
                                                  build/dsPIC33AK512/production/_ext/1360937237/SPI_TDM_drv.o
                                                  build/dsPIC33AK512/production/_ext/659850406/adc4.o
                                                  build/dsPIC33AK512/production/_ext/659850406/adc3.o
_IFS3bits                                         build/dsPIC33AK512/production/_ext/1360937237/pwm.o
                                                  build/dsPIC33AK512/production/_ext/1018880376/uart1.o
_IFS4bits                                         build/dsPIC33AK512/production/_ext/1360937237/pwm.o
_IFS6bits                                         build/dsPIC33AK512/production/_ext/659850406/adc4.o
                                                  build/dsPIC33AK512/production/_ext/659850406/adc3.o
_IFS7bits                                         build/dsPIC33AK512/production/_ext/659850406/adc5.o
_IPC10bits                                        build/dsPIC33AK512/production/_ext/659850406/adc4.o
_IPC9bits                                         build/dsPIC33AK512/production/_ext/1360937237/SPI_TDM_drv.o
                                                  build/dsPIC33AK512/production/_ext/659850406/adc3.o
_ITCCON1bits                                      ..\src\touch\lib\qtm_acq_dspic33ak_mp_0x0051.X.a(pic_acq_x_dspic33ak_mp.o)
_ITCLS0CONbits                                    ..\src\touch\lib\qtm_acq_dspic33ak_mp_0x0051.X.a(pic_acq_x_dspic33ak_mp.o)
_ITCLS0MUL                                        ..\src\touch\lib\qtm_acq_dspic33ak_mp_0x0051.X.a(pic_acq_x_dspic33ak_mp.o)
_ITCLS0SEQbits                                    ..\src\touch\lib\qtm_acq_dspic33ak_mp_0x0051.X.a(pic_acq_x_dspic33ak_mp.o)
_ITCLS0TMRbits                                    ..\src\touch\lib\qtm_acq_dspic33ak_mp_0x0051.X.a(pic_acq_x_dspic33ak_mp.o)
_ITCREC0bits                                      ..\src\touch\lib\qtm_acq_dspic33ak_mp_0x0051.X.a(pic_acq_x_dspic33ak_mp.o)
_ITCRES0                                          ..\src\touch\lib\qtm_acq_dspic33ak_mp_0x0051.X.a(pic_acq_x_dspic33ak_mp.o)
_ITCSTATbits                                      ..\src\touch\lib\qtm_acq_dspic33ak_mp_0x0051.X.a(pic_acq_x_dspic33ak_mp.o)
_ITCTXA                                           ..\src\touch\lib\qtm_acq_dspic33ak_mp_0x0051.X.a(pic_acq_x_dspic33ak_mp.o)
_IVTBASE                                          c:/program files/microchip/xc-dsc/v3.31/bin/bin/../../lib\libc99-pic30-elf.a(crt0_extendedaa.o)
_IVTCREG                                          c:/program files/microchip/xc-dsc/v3.31/bin/bin/../../lib\libc99-pic30-elf.a(crt0_extendedaa.o)
_LATCbits                                         build/dsPIC33AK512/production/_ext/1034234695/button_led.o
_LATDbits                                         build/dsPIC33AK512/production/_ext/1360937237/SPI3_drv.o
_LATEbits                                         build/dsPIC33AK512/production/_ext/1360937237/SPI3_drv.o
                                                  build/dsPIC33AK512/production/_ext/1360937237/main.o
                                                  build/dsPIC33AK512/production/_ext/659850406/adc3.o
_LATHbits                                         build/dsPIC33AK512/production/_ext/1360937237/main.o
                                                  build/dsPIC33AK512/production/_ext/1018880376/uart1.o
                                                  build/dsPIC33AK512/production/_ext/659850406/adc3.o
_LED_Off                                          build/dsPIC33AK512/production/_ext/1034234695/button_led.o
                                                  build/dsPIC33AK512/production/_ext/1360937237/main.o
_LED_On                                           build/dsPIC33AK512/production/_ext/1034234695/button_led.o
                                                  build/dsPIC33AK512/production/_ext/1360937237/main.o
_LED_Set_Mask                                     build/dsPIC33AK512/production/_ext/1034234695/button_led.o
                                                  build/dsPIC33AK512/production/_ext/1538408868/LED_level_meter.o
_LED_Toggle                                       build/dsPIC33AK512/production/_ext/1034234695/button_led.o
_LEDs_Init                                        build/dsPIC33AK512/production/_ext/1034234695/button_led.o
                                                  build/dsPIC33AK512/production/_ext/1360937237/main.o
_MDC                                              build/dsPIC33AK512/production/_ext/1360937237/pwm.o
_MPER                                             build/dsPIC33AK512/production/_ext/1360937237/pwm.o
_My_Gain                                          build/dsPIC33AK512/production/_ext/1538408868/gain_ctrl.o
                                                  build/dsPIC33AK512/production/_ext/1360937237/main.o
_My_ToneBas                                       build/dsPIC33AK512/production/_ext/1538408868/tone_ctrl.o
                                                  build/dsPIC33AK512/production/_ext/1360937237/main.o
_My_ToneMid                                       build/dsPIC33AK512/production/_ext/1538408868/tone_ctrl.o
_My_ToneTre                                       build/dsPIC33AK512/production/_ext/1538408868/tone_ctrl.o
                                                  build/dsPIC33AK512/production/_ext/1360937237/main.o
_NOTIF_ACTION_WAV_SIZE                            build/dsPIC33AK512/production/_ext/1538408868/snd_effect_play.o
                                                  build/dsPIC33AK512/production/_ext/1360937237/SST26_drv.o
_Osc_Configure_PLL1                               build/dsPIC33AK512/production/_ext/1360937237/osc_drv.o
                                                  build/dsPIC33AK512/production/_ext/1360937237/main.o
_Osc_Configure_PLL2                               build/dsPIC33AK512/production/_ext/1360937237/osc_drv.o
                                                  build/dsPIC33AK512/production/_ext/1360937237/pwm.o
_PACCON1                                          c:/program files/microchip/xc-dsc/v3.31/bin/bin/../../lib\libc99-pic30-elf.a(crt0_extendedaa.o)
_PCLKCONbits                                      build/dsPIC33AK512/production/_ext/1360937237/pwm.o
_PG1DCbits                                        build/dsPIC33AK512/production/_ext/1360937237/pwm.o
_PG2DCbits                                        build/dsPIC33AK512/production/_ext/1360937237/pwm.o
_PG3DCbits                                        build/dsPIC33AK512/production/_ext/1360937237/pwm.o
_PG5CON                                           build/dsPIC33AK512/production/_ext/1360937237/pwm.o
_PG5CONbits                                       build/dsPIC33AK512/production/_ext/1360937237/pwm.o
_PG5DC                                            build/dsPIC33AK512/production/_ext/1360937237/pwm.o
_PG5DCbits                                        build/dsPIC33AK512/production/_ext/1360937237/pwm.o
_PG5DTbits                                        build/dsPIC33AK512/production/_ext/1360937237/pwm.o
_PG5EVT1bits                                      build/dsPIC33AK512/production/_ext/1360937237/pwm.o
_PG5IOCON1                                        build/dsPIC33AK512/production/_ext/1360937237/pwm.o
_PG5IOCON1bits                                    build/dsPIC33AK512/production/_ext/1360937237/pwm.o
_PG5PERbits                                       build/dsPIC33AK512/production/_ext/1360937237/pwm.o
_PG5STAT                                          build/dsPIC33AK512/production/_ext/1360937237/pwm.o
_PG6CON                                           build/dsPIC33AK512/production/_ext/1360937237/pwm.o
_PG6CONbits                                       build/dsPIC33AK512/production/_ext/1360937237/pwm.o
_PG6DC                                            build/dsPIC33AK512/production/_ext/1360937237/pwm.o
_PG6DCbits                                        build/dsPIC33AK512/production/_ext/1360937237/pwm.o
_PG6DTbits                                        build/dsPIC33AK512/production/_ext/1360937237/pwm.o
_PG6EVT1bits                                      build/dsPIC33AK512/production/_ext/1360937237/pwm.o
_PG6IOCON1                                        build/dsPIC33AK512/production/_ext/1360937237/pwm.o
_PG6IOCON1bits                                    build/dsPIC33AK512/production/_ext/1360937237/pwm.o
_PG6PERbits                                       build/dsPIC33AK512/production/_ext/1360937237/pwm.o
_PG6STAT                                          build/dsPIC33AK512/production/_ext/1360937237/pwm.o
_PG7CON                                           build/dsPIC33AK512/production/_ext/1360937237/pwm.o
_PG7CONbits                                       build/dsPIC33AK512/production/_ext/1360937237/pwm.o
_PG7DC                                            build/dsPIC33AK512/production/_ext/1360937237/pwm.o
_PG7DCbits                                        build/dsPIC33AK512/production/_ext/1360937237/pwm.o
_PG7DTbits                                        build/dsPIC33AK512/production/_ext/1360937237/pwm.o
_PG7EVT1bits                                      build/dsPIC33AK512/production/_ext/1360937237/pwm.o
_PG7IOCON1                                        build/dsPIC33AK512/production/_ext/1360937237/pwm.o
_PG7IOCON1bits                                    build/dsPIC33AK512/production/_ext/1360937237/pwm.o
_PG7PERbits                                       build/dsPIC33AK512/production/_ext/1360937237/pwm.o
_PG7STAT                                          build/dsPIC33AK512/production/_ext/1360937237/pwm.o
_PG8CON                                           build/dsPIC33AK512/production/_ext/1360937237/pwm.o
_PG8CONbits                                       build/dsPIC33AK512/production/_ext/1360937237/pwm.o
_PG8DC                                            build/dsPIC33AK512/production/_ext/1360937237/pwm.o
_PG8DCbits                                        build/dsPIC33AK512/production/_ext/1360937237/pwm.o
_PG8DTbits                                        build/dsPIC33AK512/production/_ext/1360937237/pwm.o
_PG8EVT1bits                                      build/dsPIC33AK512/production/_ext/1360937237/pwm.o
_PG8IOCON1                                        build/dsPIC33AK512/production/_ext/1360937237/pwm.o
_PG8IOCON1bits                                    build/dsPIC33AK512/production/_ext/1360937237/pwm.o
_PG8PERbits                                       build/dsPIC33AK512/production/_ext/1360937237/pwm.o
_PG8STAT                                          build/dsPIC33AK512/production/_ext/1360937237/pwm.o
_PLL1CONbits                                      build/dsPIC33AK512/production/_ext/1360937237/osc_drv.o
_PLL1DIVbits                                      build/dsPIC33AK512/production/_ext/1360937237/osc_drv.o
_PLL2CONbits                                      build/dsPIC33AK512/production/_ext/1360937237/osc_drv.o
_PLL2DIVbits                                      build/dsPIC33AK512/production/_ext/1360937237/osc_drv.o
_PORTBbits                                        build/dsPIC33AK512/production/_ext/1034234695/button_led.o
_PORTFbits                                        build/dsPIC33AK512/production/_ext/1034234695/button_led.o
_POT_Initialize                                   build/dsPIC33AK512/production/_ext/1034234695/pot.o
                                                  build/dsPIC33AK512/production/_ext/1360937237/main.o
_POT_Process                                      build/dsPIC33AK512/production/_ext/1034234695/pot.o
                                                  build/dsPIC33AK512/production/_ext/1360937237/main.o
_POT_Read                                         build/dsPIC33AK512/production/_ext/1034234695/pot.o
                                                  build/dsPIC33AK512/production/_ext/1360937237/main.o
                                                  build/dsPIC33AK512/production/_ext/1538408868/engine_synth.o
_PR1                                              build/dsPIC33AK512/production/_ext/1536116519/eq_benchmark.o
                                                  build/dsPIC33AK512/production/_ext/1360937237/tick_time.o
_PWM5_Duty                                        build/dsPIC33AK512/production/_ext/1360937237/pwm.o
_PWM6_Duty                                        build/dsPIC33AK512/production/_ext/1360937237/pwm.o
_PWM7_Duty                                        build/dsPIC33AK512/production/_ext/1360937237/pwm.o
_PWM8_Duty                                        build/dsPIC33AK512/production/_ext/1360937237/pwm.o
_Post_Gain_CODEC                                  build/dsPIC33AK512/production/_ext/1538408868/float_conversion.o
_Post_Gain_PWM                                    build/dsPIC33AK512/production/_ext/1538408868/float_conversion.o
_Pre_Gain_CODEC                                   build/dsPIC33AK512/production/_ext/1538408868/float_conversion.o
_Pre_Gain_WAV                                     build/dsPIC33AK512/production/_ext/1538408868/float_conversion.o
                                                  build/dsPIC33AK512/production/_ext/1538408868/snd_effect_play.o
_RCOUNT                                           build/dsPIC33AK512/production/_ext/1360937237/main.o
                                                  build/dsPIC33AK512/production/_ext/1360937237/SPI_TDM_drv.o
                                                  build/dsPIC33AK512/production/_ext/1521024571/touch.o
                                                  build/dsPIC33AK512/production/_ext/659850406/adc4.o
                                                  build/dsPIC33AK512/production/_ext/659850406/adc5.o
_RPINR13bits                                      build/dsPIC33AK512/production/_ext/1018880376/uart1.o
_RPINR14bits                                      build/dsPIC33AK512/production/_ext/1360937237/SPI_TDM_drv.o
_RPINR15bits                                      build/dsPIC33AK512/production/_ext/1360937237/SPI_TDM_drv.o
_RPINR16bits                                      build/dsPIC33AK512/production/_ext/1360937237/SPI3_drv.o
_RPINR18bits                                      build/dsPIC33AK512/production/_ext/1360937237/pwm.o
_RPINR23bits                                      build/dsPIC33AK512/production/_ext/659850406/adc4.o
                                                  build/dsPIC33AK512/production/_ext/659850406/adc3.o
_RPOR12bits                                       build/dsPIC33AK512/production/_ext/1360937237/pwm.o
_RPOR14bits                                       build/dsPIC33AK512/production/_ext/1360937237/pwm.o
_RPOR16bits                                       build/dsPIC33AK512/production/_ext/1360937237/SPI3_drv.o
_RPOR20bits                                       build/dsPIC33AK512/production/_ext/1360937237/pwm.o
_RPOR22bits                                       build/dsPIC33AK512/production/_ext/1360937237/pwm.o
_RPOR24bits                                       build/dsPIC33AK512/production/_ext/1360937237/pwm.o
_RPOR25bits                                       build/dsPIC33AK512/production/_ext/1360937237/SPI_TDM_drv.o
_RPOR28bits                                       build/dsPIC33AK512/production/_ext/1018880376/uart1.o
_RPOR3bits                                        build/dsPIC33AK512/production/_ext/1360937237/SPI3_drv.o
_RPOR6bits                                        build/dsPIC33AK512/production/_ext/1360937237/pwm.o
_RPOR7bits                                        build/dsPIC33AK512/production/_ext/1360937237/pwm.o
_SDATACMD0bits                                    ..\src\touch\lib\qtm_acq_dspic33ak_mp_0x0051.X.a(pic_acq_x_dspic33ak_mp.o)
_SDATACMD1bits                                    ..\src\touch\lib\qtm_acq_dspic33ak_mp_0x0051.X.a(pic_acq_x_dspic33ak_mp.o)
_SDATACMD2bits                                    ..\src\touch\lib\qtm_acq_dspic33ak_mp_0x0051.X.a(pic_acq_x_dspic33ak_mp.o)
_SDATACMD3bits                                    ..\src\touch\lib\qtm_acq_dspic33ak_mp_0x0051.X.a(pic_acq_x_dspic33ak_mp.o)
_SDATACMD4bits                                    ..\src\touch\lib\qtm_acq_dspic33ak_mp_0x0051.X.a(pic_acq_x_dspic33ak_mp.o)
_SDATACMD5bits                                    ..\src\touch\lib\qtm_acq_dspic33ak_mp_0x0051.X.a(pic_acq_x_dspic33ak_mp.o)
_SDATACMD6bits                                    ..\src\touch\lib\qtm_acq_dspic33ak_mp_0x0051.X.a(pic_acq_x_dspic33ak_mp.o)
_SDATACMD7bits                                    ..\src\touch\lib\qtm_acq_dspic33ak_mp_0x0051.X.a(pic_acq_x_dspic33ak_mp.o)
_SDATACMD8bits                                    ..\src\touch\lib\qtm_acq_dspic33ak_mp_0x0051.X.a(pic_acq_x_dspic33ak_mp.o)
_SDATAMAPbits                                     ..\src\touch\lib\qtm_acq_dspic33ak_mp_0x0051.X.a(pic_acq_x_dspic33ak_mp.o)
_SMATHCMD0bits                                    ..\src\touch\lib\qtm_acq_dspic33ak_mp_0x0051.X.a(pic_acq_x_dspic33ak_mp.o)
_SMATHCMD8bits                                    ..\src\touch\lib\qtm_acq_dspic33ak_mp_0x0051.X.a(pic_acq_x_dspic33ak_mp.o)
_SMATHMAPbits                                     ..\src\touch\lib\qtm_acq_dspic33ak_mp_0x0051.X.a(pic_acq_x_dspic33ak_mp.o)
_SPI1BRG                                          build/dsPIC33AK512/production/_ext/1360937237/SPI_TDM_drv.o
_SPI1BUF                                          build/dsPIC33AK512/production/_ext/1360937237/SPI_TDM_drv.o
_SPI1CON1                                         build/dsPIC33AK512/production/_ext/1360937237/SPI_TDM_drv.o
_SPI1CON1bits                                     build/dsPIC33AK512/production/_ext/1360937237/SPI_TDM_drv.o
_SPI1IMSKbits                                     build/dsPIC33AK512/production/_ext/1360937237/SPI_TDM_drv.o
_SPI3BRG                                          build/dsPIC33AK512/production/_ext/1360937237/SPI3_drv.o
_SPI3BUF                                          build/dsPIC33AK512/production/_ext/1360937237/SPI3_drv.o
_SPI3CON1                                         build/dsPIC33AK512/production/_ext/1360937237/SPI3_drv.o
_SPI3CON1bits                                     build/dsPIC33AK512/production/_ext/1360937237/SPI3_drv.o
_SPI3STAT                                         build/dsPIC33AK512/production/_ext/1360937237/SPI3_drv.o
_SPI3STATbits                                     build/dsPIC33AK512/production/_ext/1360937237/SPI3_drv.o
_SPLIM                                            c:/program files/microchip/xc-dsc/v3.31/bin/bin/../../lib\libc99-pic30-elf.a(crt0_extendedaa.o)
_SST26_test                                       build/dsPIC33AK512/production/_ext/1360937237/SST26_drv.o
                                                  build/dsPIC33AK512/production/_ext/1360937237/main.o
_Set_OscSrc_to_CLKGEN1                            build/dsPIC33AK512/production/_ext/1360937237/osc_drv.o
                                                  build/dsPIC33AK512/production/_ext/1360937237/main.o
_Set_OscSrc_to_CLKGEN12                           build/dsPIC33AK512/production/_ext/1360937237/osc_drv.o
_Set_OscSrc_to_CLKGEN5                            build/dsPIC33AK512/production/_ext/1360937237/osc_drv.o
                                                  build/dsPIC33AK512/production/_ext/1360937237/pwm.o
_Set_OscSrc_to_CLKGEN6                            build/dsPIC33AK512/production/_ext/1360937237/osc_drv.o
                                                  build/dsPIC33AK512/production/_ext/1360937237/main.o
_Set_OscSrc_to_CLKGEN8                            build/dsPIC33AK512/production/_ext/1360937237/osc_drv.o
                                                  build/dsPIC33AK512/production/_ext/1360937237/main.o
_Set_OscSrc_to_CLKGEN9                            build/dsPIC33AK512/production/_ext/1360937237/osc_drv.o
                                                  build/dsPIC33AK512/production/_ext/1360937237/main.o
_Start_Blip                                       build/dsPIC33AK512/production/_ext/1538408868/engine_synth.o
                                                  build/dsPIC33AK512/production/_ext/1536116519/app_debug.o
_T1CON                                            build/dsPIC33AK512/production/_ext/1536116519/eq_benchmark.o
_T1CONbits                                        build/dsPIC33AK512/production/_ext/1536116519/eq_benchmark.o
                                                  build/dsPIC33AK512/production/_ext/1360937237/tick_time.o
_TDM_Start                                        build/dsPIC33AK512/production/_ext/1360937237/SPI_TDM_drv.o
                                                  build/dsPIC33AK512/production/_ext/1360937237/main.o
_TMR1                                             build/dsPIC33AK512/production/_ext/1536116519/eq_benchmark.o
                                                  build/dsPIC33AK512/production/_ext/1360937237/tick_time.o
_TOUCH_DetectReleased                             build/dsPIC33AK512/production/_ext/1034234695/button_led.o
                                                  build/dsPIC33AK512/production/_ext/1360937237/main.o
_TOUCH_IsPressed                                  build/dsPIC33AK512/production/_ext/1034234695/button_led.o
                                                  build/dsPIC33AK512/production/_ext/1360937237/main.o
_TRISAbits                                        build/dsPIC33AK512/production/_ext/1360937237/SPI3_drv.o
                                                  build/dsPIC33AK512/production/_ext/659850406/adc3.o
_TRISBbits                                        build/dsPIC33AK512/production/_ext/1034234695/button_led.o
                                                  build/dsPIC33AK512/production/_ext/659850406/adc4.o
_TRISCbits                                        build/dsPIC33AK512/production/_ext/1034234695/button_led.o
_TRISDbits                                        build/dsPIC33AK512/production/_ext/1360937237/SPI3_drv.o
                                                  build/dsPIC33AK512/production/_ext/1018880376/uart1.o
_TRISEbits                                        build/dsPIC33AK512/production/_ext/1360937237/SPI3_drv.o
                                                  build/dsPIC33AK512/production/_ext/1360937237/main.o
                                                  build/dsPIC33AK512/production/_ext/1360937237/SPI_TDM_drv.o
_TRISFbits                                        build/dsPIC33AK512/production/_ext/1034234695/button_led.o
_TRISGbits                                        build/dsPIC33AK512/production/_ext/1360937237/SPI_TDM_drv.o
_TRISHbits                                        build/dsPIC33AK512/production/_ext/1360937237/main.o
                                                  build/dsPIC33AK512/production/_ext/1018880376/uart1.o
_Timer1_Init                                      build/dsPIC33AK512/production/_ext/1360937237/tick_time.o
                                                  build/dsPIC33AK512/production/_ext/1360937237/main.o
_U1BRG                                            build/dsPIC33AK512/production/_ext/1018880376/uart1.o
_U1CON                                            build/dsPIC33AK512/production/_ext/1018880376/uart1.o
_U1CONbits                                        build/dsPIC33AK512/production/_ext/1018880376/uart1.o
_U1RXB                                            build/dsPIC33AK512/production/_ext/1018880376/uart1.o
_U1STAT                                           build/dsPIC33AK512/production/_ext/1018880376/uart1.o
_U1STATbits                                       build/dsPIC33AK512/production/_ext/1018880376/uart1.o
_U1TXB                                            build/dsPIC33AK512/production/_ext/1018880376/uart1.o
_UART1_Deinitialize                               build/dsPIC33AK512/production/_ext/1018880376/uart1.o
_UART1_ErrorGet                                   build/dsPIC33AK512/production/_ext/1018880376/uart1.o
_UART1_Initialize                                 build/dsPIC33AK512/production/_ext/1018880376/uart1.o
                                                  build/dsPIC33AK512/production/_ext/1360937237/main.o
_UART1_IsRxReady                                  build/dsPIC33AK512/production/_ext/1018880376/uart1.o
                                                  build/dsPIC33AK512/production/_ext/1360937237/main.o
                                                  build/dsPIC33AK512/production/_ext/1536116519/app_debug.o
_UART1_IsTxDone                                   build/dsPIC33AK512/production/_ext/1018880376/uart1.o
_UART1_IsTxReady                                  build/dsPIC33AK512/production/_ext/1018880376/uart1.o
_UART1_Read                                       build/dsPIC33AK512/production/_ext/1018880376/uart1.o
                                                  build/dsPIC33AK512/production/_ext/1536116519/app_debug.o
_UART1_Write                                      build/dsPIC33AK512/production/_ext/1018880376/uart1.o
__AD3CH0Interrupt                                 build/dsPIC33AK512/production/_ext/659850406/adc3.o
__AD4CH0Interrupt                                 build/dsPIC33AK512/production/_ext/659850406/adc4.o
__AD5CH0Interrupt                                 build/dsPIC33AK512/production/_ext/659850406/adc5.o
__DMA0Interrupt                                   build/dsPIC33AK512/production/_ext/1360937237/SPI_TDM_drv.o
__DMA1Interrupt                                   build/dsPIC33AK512/production/_ext/1360937237/SPI_TDM_drv.o
__DMA2Interrupt                                   build/dsPIC33AK512/production/_ext/659850406/adc3.o
__DMA3Interrupt                                   build/dsPIC33AK512/production/_ext/659850406/adc4.o
__DMA4Interrupt                                   build/dsPIC33AK512/production/_ext/1360937237/pwm.o
__DMA5Interrupt                                   build/dsPIC33AK512/production/_ext/1360937237/pwm.o
__DMA6Interrupt                                   build/dsPIC33AK512/production/_ext/1360937237/pwm.o
__DMA7Interrupt                                   build/dsPIC33AK512/production/_ext/1360937237/pwm.o
__DefaultInterrupt                                build/dsPIC33AK512/production/_ext/1360937237/main.o
__IO_putc                                         c:/program files/microchip/xc-dsc/v3.31/bin/bin/../../lib\libc99-elf.a(putc.AA_o)
__ITCInterrupt                                    build/dsPIC33AK512/production/_ext/1521024571/touch.o
__IVTBASE_INIT                                    dist/dsPIC33AK512/production/perseus_512.X.production.elf
                                                  c:/program files/microchip/xc-dsc/v3.31/bin/bin/../../lib\libc99-pic30-elf.a(crt0_extendedaa.o)
__IVTCBIT_INIT                                    dist/dsPIC33AK512/production/perseus_512.X.production.elf
                                                  c:/program files/microchip/xc-dsc/v3.31/bin/bin/../../lib\libc99-pic30-elf.a(crt0_extendedaa.o)
__MIN_STACK_SIZE                                  dist/dsPIC33AK512/production/perseus_512.X.production.elf
__PWM5Interrupt                                   build/dsPIC33AK512/production/_ext/1360937237/pwm.o
__PWM6Interrupt                                   build/dsPIC33AK512/production/_ext/1360937237/pwm.o
__PWM7Interrupt                                   build/dsPIC33AK512/production/_ext/1360937237/pwm.o
__PWM8Interrupt                                   build/dsPIC33AK512/production/_ext/1360937237/pwm.o
__RAMFUNC_END                                     c:/program files/microchip/xc-dsc/v3.31/bin/bin/../../lib\libc99-pic30-elf.a(crt0_extendedaa.o)
__RAMFUNC_START                                   c:/program files/microchip/xc-dsc/v3.31/bin/bin/../../lib\libc99-pic30-elf.a(crt0_extendedaa.o)
__SPLIM_init                                      dist/dsPIC33AK512/production/perseus_512.X.production.elf
                                                  c:/program files/microchip/xc-dsc/v3.31/bin/bin/../../lib\libc99-pic30-elf.a(crt0_extendedaa.o)
__SP_init                                         dist/dsPIC33AK512/production/perseus_512.X.production.elf
                                                  c:/program files/microchip/xc-dsc/v3.31/bin/bin/../../lib\libc99-pic30-elf.a(crt0_extendedaa.o)
__STACKGUARD_SIZE                                 dist/dsPIC33AK512/production/perseus_512.X.production.elf
__T1Interrupt                                     build/dsPIC33AK512/production/_ext/1360937237/tick_time.o
__U1RXInterrupt                                   build/dsPIC33AK512/production/_ext/1018880376/uart1.o
___cvt_u                                          c:/program files/microchip/xc-dsc/v3.31/bin/bin/../../lib\libc99-elf.a(__cvt_u.AA_o)
                                                  c:/program files/microchip/xc-dsc/v3.31/bin/bin/../../lib\libc99-elf.a(__fmt_u.AA_o)
                                                  c:/program files/microchip/xc-dsc/v3.31/bin/bin/../../lib\libc99-elf.a(__fmt_o.AA_o)
                                                  c:/program files/microchip/xc-dsc/v3.31/bin/bin/../../lib\libc99-elf.a(__fmt_d.AA_o)
___delay32                                        c:/program files/microchip/xc-dsc/v3.31/bin/bin/../../lib\libc99-pic30-elf.a(delay32.AAMeo)
                                                  build/dsPIC33AK512/production/_ext/1360937237/tick_time.o
___divdi3                                         c:/program files/microchip/xc-dsc/v3.31/bin/bin/../../lib\libc99-pic30-elf.a(divmoddi3.AA_eo)
___dso_handle                                     c:/program files/microchip/xc-dsc/v3.31/bin/bin/../../lib\libc99-pic30-elf.a(crt_ctor.aa.AAMeo)
___errno_val                                      c:/program files/microchip/xc-dsc/v3.31/bin/bin/../../lib\libc99-elf.a(__errno_location.AA_o)
                                                  c:/program files/microchip/xc-dsc/v3.31/bin/bin/../../lib\libc99-elf.a(syscall_ret.AA_o)
                                                  c:/program files/microchip/xc-dsc/v3.31/bin/bin/../../lib\libc99-elf.a(__printf_core.AA_o)
                                                  c:/program files/microchip/xc-dsc/v3.31/bin/bin/../../lib\libm-elf.a(expm1f.AA_o)
                                                  c:/program files/microchip/xc-dsc/v3.31/bin/bin/../../lib\libm-elf.a(sqrtf.AA_o)
                                                  c:/program files/microchip/xc-dsc/v3.31/bin/bin/../../lib\libm-elf.a(powf.AA_o)
                                                  c:/program files/microchip/xc-dsc/v3.31/bin/bin/../../lib\libm-elf.a(logf.AA_o)
                                                  c:/program files/microchip/xc-dsc/v3.31/bin/bin/../../lib\libm-elf.a(log10f.AA_o)
                                                  c:/program files/microchip/xc-dsc/v3.31/bin/bin/../../lib\libm-elf.a(expf.AA_o)
___extendsfdf2                                    c:/program files/microchip/xc-dsc/v3.31/bin/bin/../../lib\libc99-pic30-elf.a(extendsfdf.aa.AA_eo)
                                                  c:/program files/microchip/xc-dsc/v3.31/bin/bin/../../lib\libc99-elf.a(__pop_float.AA_o)
___fmt_0_needed                                   c:/program files/microchip/xc-dsc/v3.31/bin/bin/../../lib\libc99-elf.a(__fmt_s.AA_o)
___fmt_a                                          c:/program files/microchip/xc-dsc/v3.31/bin/bin/../../lib\libc99-elf.a(__printf_core.AA_o)
___fmt_d                                          c:/program files/microchip/xc-dsc/v3.31/bin/bin/../../lib\libc99-elf.a(__fmt_d.AA_o)
___fmt_d_needed                                   c:/program files/microchip/xc-dsc/v3.31/bin/bin/../../lib\libc99-elf.a(__fmt_d.AA_o)
                                                  c:/program files/microchip/xc-dsc/v3.31/bin/bin/../../lib\libc99-elf.a(__sio_printf_doux.AA_o)
                                                  c:/program files/microchip/xc-dsc/v3.31/bin/bin/../../lib\libc99-elf.a(__sio_printf_dfoux.AA_o)
                                                  c:/program files/microchip/xc-dsc/v3.31/bin/bin/../../lib\libc99-elf.a(__sio_printf_dfosux.AA_o)
___fmt_f_needed                                   c:/program files/microchip/xc-dsc/v3.31/bin/bin/../../lib\libc99-elf.a(__fmt_fp.AA_o)
                                                  c:/program files/microchip/xc-dsc/v3.31/bin/bin/../../lib\libc99-elf.a(__sio_printf_f.AA_o)
                                                  c:/program files/microchip/xc-dsc/v3.31/bin/bin/../../lib\libc99-elf.a(__sio_printf_dfoux.AA_o)
                                                  c:/program files/microchip/xc-dsc/v3.31/bin/bin/../../lib\libc99-elf.a(__sio_printf_dfosux.AA_o)
___fmt_fp                                         c:/program files/microchip/xc-dsc/v3.31/bin/bin/../../lib\libc99-elf.a(__fmt_fp.AA_o)
___fmt_o                                          c:/program files/microchip/xc-dsc/v3.31/bin/bin/../../lib\libc99-elf.a(__fmt_o.AA_o)
___fmt_o_needed                                   c:/program files/microchip/xc-dsc/v3.31/bin/bin/../../lib\libc99-elf.a(__fmt_o.AA_o)
                                                  c:/program files/microchip/xc-dsc/v3.31/bin/bin/../../lib\libc99-elf.a(__sio_printf_doux.AA_o)
                                                  c:/program files/microchip/xc-dsc/v3.31/bin/bin/../../lib\libc99-elf.a(__sio_printf_dfoux.AA_o)
                                                  c:/program files/microchip/xc-dsc/v3.31/bin/bin/../../lib\libc99-elf.a(__sio_printf_dfosux.AA_o)
___fmt_s                                          c:/program files/microchip/xc-dsc/v3.31/bin/bin/../../lib\libc99-elf.a(__fmt_s.AA_o)
___fmt_s_needed                                   c:/program files/microchip/xc-dsc/v3.31/bin/bin/../../lib\libc99-elf.a(__fmt_s.AA_o)
                                                  c:/program files/microchip/xc-dsc/v3.31/bin/bin/../../lib\libc99-elf.a(__sio_printf_doux.AA_o)
                                                  c:/program files/microchip/xc-dsc/v3.31/bin/bin/../../lib\libc99-elf.a(__sio_printf_dfoux.AA_o)
                                                  c:/program files/microchip/xc-dsc/v3.31/bin/bin/../../lib\libc99-elf.a(__sio_printf_dfosux.AA_o)
___fmt_state                                      c:/program files/microchip/xc-dsc/v3.31/bin/bin/../../lib\libc99-elf.a(__printf_core.AA_o)
___fmt_u                                          c:/program files/microchip/xc-dsc/v3.31/bin/bin/../../lib\libc99-elf.a(__fmt_u.AA_o)
___fmt_u_needed                                   c:/program files/microchip/xc-dsc/v3.31/bin/bin/../../lib\libc99-elf.a(__fmt_u.AA_o)
                                                  c:/program files/microchip/xc-dsc/v3.31/bin/bin/../../lib\libc99-elf.a(__sio_printf_doux.AA_o)
                                                  c:/program files/microchip/xc-dsc/v3.31/bin/bin/../../lib\libc99-elf.a(__sio_printf_dfoux.AA_o)
                                                  c:/program files/microchip/xc-dsc/v3.31/bin/bin/../../lib\libc99-elf.a(__sio_printf_dfosux.AA_o)
___fmt_x                                          c:/program files/microchip/xc-dsc/v3.31/bin/bin/../../lib\libc99-elf.a(__fmt_x.AA_o)
___fmt_x_needed                                   c:/program files/microchip/xc-dsc/v3.31/bin/bin/../../lib\libc99-elf.a(__fmt_x.AA_o)
                                                  c:/program files/microchip/xc-dsc/v3.31/bin/bin/../../lib\libc99-elf.a(__sio_printf_doux.AA_o)
                                                  c:/program files/microchip/xc-dsc/v3.31/bin/bin/../../lib\libc99-elf.a(__sio_printf_dfoux.AA_o)
                                                  c:/program files/microchip/xc-dsc/v3.31/bin/bin/../../lib\libc99-elf.a(__sio_printf_dfosux.AA_o)
___fwrite                                         c:/program files/microchip/xc-dsc/v3.31/bin/bin/../../lib\libc99-elf.a(__out.AA_o)
                                                  c:/program files/microchip/xc-dsc/v3.31/bin/bin/../../lib\libc99-elf.a(putc.AA_o)
___get_stdout                                     c:/program files/microchip/xc-dsc/v3.31/bin/bin/../../lib\libc99-elf.a(stdout.AA_o)
___init_stderr                                    c:/program files/microchip/xc-dsc/v3.31/bin/bin/../../lib\libc99-elf.a(__init_stdio.AA_o)
___init_stdin                                     c:/program files/microchip/xc-dsc/v3.31/bin/bin/../../lib\libc99-elf.a(__init_stdio.AA_o)
___init_stdio                                     c:/program files/microchip/xc-dsc/v3.31/bin/bin/../../lib\libc99-elf.a(__init_stdio.AA_o)
___init_stdio_needed                              c:/program files/microchip/xc-dsc/v3.31/bin/bin/../../lib\libc99-elf.a(__init_stdio.AA_o)
                                                  c:/program files/microchip/xc-dsc/v3.31/bin/bin/../../lib\libc99-elf.a(__io_init_needed.AA_o)
___init_stdout                                    c:/program files/microchip/xc-dsc/v3.31/bin/bin/../../lib\libc99-elf.a(stdout.AA_o)
___io_file_needed                                 c:/program files/microchip/xc-dsc/v3.31/bin/bin/../../lib\libc99-elf.a(__io_file_needed.AA_o)
                                                  c:/program files/microchip/xc-dsc/v3.31/bin/bin/../../lib\libc99-elf.a(__io_init_needed.AA_o)
___io_init_needed                                 c:/program files/microchip/xc-dsc/v3.31/bin/bin/../../lib\libc99-elf.a(__io_init_needed.AA_o)
                                                  c:/program files/microchip/xc-dsc/v3.31/bin/bin/../../lib\libc99-elf.a(stdout.AA_o)
___io_init_needs_file                             c:/program files/microchip/xc-dsc/v3.31/bin/bin/../../lib\libc99-elf.a(__io_init_needed.AA_o)
___lseek                                          c:/program files/microchip/xc-dsc/v3.31/bin/bin/../../lib\libc99-elf.a(lseek.AA_o)
___moddi3                                         c:/program files/microchip/xc-dsc/v3.31/bin/bin/../../lib\libc99-pic30-elf.a(divmoddi3.AA_eo)
___out                                            c:/program files/microchip/xc-dsc/v3.31/bin/bin/../../lib\libc99-elf.a(__out.AA_o)
___out_needed                                     c:/program files/microchip/xc-dsc/v3.31/bin/bin/../../lib\libc99-elf.a(__out.AA_o)
                                                  c:/program files/microchip/xc-dsc/v3.31/bin/bin/../../lib\libc99-elf.a(__io_file_needed.AA_o)
                                                  c:/program files/microchip/xc-dsc/v3.31/bin/bin/../../lib\libc99-elf.a(putc.AA_o)
___pad                                            c:/program files/microchip/xc-dsc/v3.31/bin/bin/../../lib\libc99-elf.a(__printf_core.AA_o)
                                                  c:/program files/microchip/xc-dsc/v3.31/bin/bin/../../lib\libc99-elf.a(__fmt_x.AA_o)
                                                  c:/program files/microchip/xc-dsc/v3.31/bin/bin/../../lib\libc99-elf.a(__fmt_u.AA_o)
                                                  c:/program files/microchip/xc-dsc/v3.31/bin/bin/../../lib\libc99-elf.a(__fmt_s.AA_o)
                                                  c:/program files/microchip/xc-dsc/v3.31/bin/bin/../../lib\libc99-elf.a(__fmt_o.AA_o)
                                                  c:/program files/microchip/xc-dsc/v3.31/bin/bin/../../lib\libc99-elf.a(__fmt_fp.AA_o)
                                                  c:/program files/microchip/xc-dsc/v3.31/bin/bin/../../lib\libc99-elf.a(__fmt_d.AA_o)
___pop_float                                      c:/program files/microchip/xc-dsc/v3.31/bin/bin/../../lib\libc99-elf.a(__pop_float.AA_o)
                                                  c:/program files/microchip/xc-dsc/v3.31/bin/bin/../../lib\libc99-elf.a(__printf_core.AA_o)
___pop_float_needed                               c:/program files/microchip/xc-dsc/v3.31/bin/bin/../../lib\libc99-elf.a(__pop_float.AA_o)
                                                  c:/program files/microchip/xc-dsc/v3.31/bin/bin/../../lib\libc99-elf.a(__sio_printf_f.AA_o)
                                                  c:/program files/microchip/xc-dsc/v3.31/bin/bin/../../lib\libc99-elf.a(__sio_printf_dfoux.AA_o)
                                                  c:/program files/microchip/xc-dsc/v3.31/bin/bin/../../lib\libc99-elf.a(__sio_printf_dfosux.AA_o)
___pop_int                                        c:/program files/microchip/xc-dsc/v3.31/bin/bin/../../lib\libc99-elf.a(__pop_int.AA_o)
                                                  c:/program files/microchip/xc-dsc/v3.31/bin/bin/../../lib\libc99-elf.a(__printf_core.AA_o)
___pop_int_needed                                 c:/program files/microchip/xc-dsc/v3.31/bin/bin/../../lib\libc99-elf.a(__pop_int.AA_o)
                                                  c:/program files/microchip/xc-dsc/v3.31/bin/bin/../../lib\libc99-elf.a(__sio_printf_doux.AA_o)
                                                  c:/program files/microchip/xc-dsc/v3.31/bin/bin/../../lib\libc99-elf.a(__sio_printf_dfoux.AA_o)
                                                  c:/program files/microchip/xc-dsc/v3.31/bin/bin/../../lib\libc99-elf.a(__sio_printf_dfosux.AA_o)
___pop_ptr                                        c:/program files/microchip/xc-dsc/v3.31/bin/bin/../../lib\libc99-elf.a(__pop_ptr.AA_o)
                                                  c:/program files/microchip/xc-dsc/v3.31/bin/bin/../../lib\libc99-elf.a(__printf_core.AA_o)
___pop_ptr_needed                                 c:/program files/microchip/xc-dsc/v3.31/bin/bin/../../lib\libc99-elf.a(__pop_ptr.AA_o)
                                                  c:/program files/microchip/xc-dsc/v3.31/bin/bin/../../lib\libc99-elf.a(__sio_printf_doux.AA_o)
                                                  c:/program files/microchip/xc-dsc/v3.31/bin/bin/../../lib\libc99-elf.a(__sio_printf_dfoux.AA_o)
                                                  c:/program files/microchip/xc-dsc/v3.31/bin/bin/../../lib\libc99-elf.a(__sio_printf_dfosux.AA_o)
___printf_core                                    c:/program files/microchip/xc-dsc/v3.31/bin/bin/../../lib\libc99-elf.a(__printf_core.AA_o)
                                                  c:/program files/microchip/xc-dsc/v3.31/bin/bin/../../lib\libc99-elf.a(__int_vfprintf.AA_o)
___putc                                           c:/program files/microchip/xc-dsc/v3.31/bin/bin/../../lib\libc99-elf.a(putc.AA_o)
___putc_needs_out                                 c:/program files/microchip/xc-dsc/v3.31/bin/bin/../../lib\libc99-elf.a(putc.AA_o)
___putc_unbuffered                                c:/program files/microchip/xc-dsc/v3.31/bin/bin/../../lib\libc99-elf.a(putc.AA_o)
___sio_printf_dfosux                              c:/program files/microchip/xc-dsc/v3.31/bin/bin/../../lib\libc99-elf.a(__sio_printf_dfosux.AA_o)
___sio_printf_dfoux                               c:/program files/microchip/xc-dsc/v3.31/bin/bin/../../lib\libc99-elf.a(__sio_printf_dfoux.AA_o)
___sio_printf_doux                                c:/program files/microchip/xc-dsc/v3.31/bin/bin/../../lib\libc99-elf.a(__sio_printf_doux.AA_o)
___sio_printf_f                                   c:/program files/microchip/xc-dsc/v3.31/bin/bin/../../lib\libc99-elf.a(__sio_printf_f.AA_o)
___stdio_close                                    c:/program files/microchip/xc-dsc/v3.31/bin/bin/../../lib\libc99-elf.a(__stdio_close.AA_o)
___stdio_close_rw                                 c:/program files/microchip/xc-dsc/v3.31/bin/bin/../../lib\libc99-elf.a(__stdio_close.AA_o)
                                                  c:/program files/microchip/xc-dsc/v3.31/bin/bin/../../lib\libc99-elf.a(stdout.AA_o)
___stdio_seek                                     c:/program files/microchip/xc-dsc/v3.31/bin/bin/../../lib\libc99-elf.a(stdout.AA_o)
___stdio_write                                    c:/program files/microchip/xc-dsc/v3.31/bin/bin/../../lib\libc99-elf.a(__out.AA_o)
___stdio_write_unbuffered                         c:/program files/microchip/xc-dsc/v3.31/bin/bin/../../lib\libc99-elf.a(__out.AA_o)
                                                  c:/program files/microchip/xc-dsc/v3.31/bin/bin/../../lib\libc99-elf.a(stdout.AA_o)
___stdout_needs_init                              c:/program files/microchip/xc-dsc/v3.31/bin/bin/../../lib\libc99-elf.a(stdout.AA_o)
___stdout_used                                    c:/program files/microchip/xc-dsc/v3.31/bin/bin/../../lib\libc99-elf.a(stdout.AA_o)
___stpcpy                                         c:/program files/microchip/xc-dsc/v3.31/bin/bin/../../lib\libc99-elf.a(stpcpy.AA_o)
                                                  c:/program files/microchip/xc-dsc/v3.31/bin/bin/../../lib\libc99-elf.a(strcpy.AA_o)
___syscall_ret                                    c:/program files/microchip/xc-dsc/v3.31/bin/bin/../../lib\libc99-elf.a(syscall_ret.AA_o)
                                                  c:/program files/microchip/xc-dsc/v3.31/bin/bin/../../lib\libc99-elf.a(lseek.AA_o)
___tls_align                                      dist/dsPIC33AK512/production/perseus_512.X.production.elf
___tls_crt_init                                   dist/dsPIC33AK512/production/perseus_512.X.production.elf
                                                  c:/program files/microchip/xc-dsc/v3.31/bin/bin/../../lib\libc99-pic30-elf.a(crt0_extendedaa.o)
___tls_size                                       dist/dsPIC33AK512/production/perseus_512.X.production.elf
___tls_start                                      dist/dsPIC33AK512/production/perseus_512.X.production.elf
___tolower_l                                      c:/program files/microchip/xc-dsc/v3.31/bin/bin/../../lib\libc99-elf.a(tolower.AA_o)
___toupper_l                                      c:/program files/microchip/xc-dsc/v3.31/bin/bin/../../lib\libc99-elf.a(toupper.AA_o)
___udivdi3                                        c:/program files/microchip/xc-dsc/v3.31/bin/bin/../../lib\libc99-pic30-elf.a(divmoddi3.AA_eo)
                                                  c:/program files/microchip/xc-dsc/v3.31/bin/bin/../../lib\libc99-elf.a(__cvt_u.AA_o)
___udivmoddi3                                     c:/program files/microchip/xc-dsc/v3.31/bin/bin/../../lib\libc99-pic30-elf.a(divmoddi3.AA_eo)
___umoddi3                                        c:/program files/microchip/xc-dsc/v3.31/bin/bin/../../lib\libc99-pic30-elf.a(divmoddi3.AA_eo)
                                                  c:/program files/microchip/xc-dsc/v3.31/bin/bin/../../lib\libc99-elf.a(__cvt_u.AA_o)
___vfprintf                                       c:/program files/microchip/xc-dsc/v3.31/bin/bin/../../lib\libc99-elf.a(__int_vfprintf.AA_o)
                                                  c:/program files/microchip/xc-dsc/v3.31/bin/bin/../../lib\libc99-elf.a(__sio_printf_f.AA_o)
                                                  c:/program files/microchip/xc-dsc/v3.31/bin/bin/../../lib\libc99-elf.a(__sio_printf_doux.AA_o)
                                                  c:/program files/microchip/xc-dsc/v3.31/bin/bin/../../lib\libc99-elf.a(__sio_printf_dfoux.AA_o)
                                                  c:/program files/microchip/xc-dsc/v3.31/bin/bin/../../lib\libc99-elf.a(__sio_printf_dfosux.AA_o)
__crt_return_stmt                                 c:/program files/microchip/xc-dsc/v3.31/bin/bin/../../lib\libc99-pic30-elf.a(crt0_extendedaa.o)
__crt_start_mode                                  c:/program files/microchip/xc-dsc/v3.31/bin/bin/../../lib\libc99-pic30-elf.a(crt_start_mode_normal.AAMeo)
                                                  c:/program files/microchip/xc-dsc/v3.31/bin/bin/../../lib\libc99-pic30-elf.a(crt0_extendedaa.o)
__crt_start_mode_normal                           c:/program files/microchip/xc-dsc/v3.31/bin/bin/../../lib\libc99-pic30-elf.a(crt_start_mode_normal.AAMeo)
__ctor                                            c:/program files/microchip/xc-dsc/v3.31/bin/bin/../../lib\libc99-pic30-elf.a(crt_ctor.aa.AAMeo)
                                                  c:/program files/microchip/xc-dsc/v3.31/bin/bin/../../lib\libc99-pic30-elf.a(crt0_extendedaa.o)
__ctors_size                                      dist/dsPIC33AK512/production/perseus_512.X.production.elf
                                                  c:/program files/microchip/xc-dsc/v3.31/bin/bin/../../lib\libc99-pic30-elf.a(crt_ctor.aa.AAMeo)
__ctors_start_offset                              dist/dsPIC33AK512/production/perseus_512.X.production.elf
                                                  c:/program files/microchip/xc-dsc/v3.31/bin/bin/../../lib\libc99-pic30-elf.a(crt_ctor.aa.AAMeo)
__ctors_start_page                                dist/dsPIC33AK512/production/perseus_512.X.production.elf
__data_init                                       c:/program files/microchip/xc-dsc/v3.31/bin/bin/../../lib\libc99-pic30-elf.a(data_init_extendedaa.o)
__data_init_extended                              c:/program files/microchip/xc-dsc/v3.31/bin/bin/../../lib\libc99-pic30-elf.a(data_init_extendedaa.o)
                                                  c:/program files/microchip/xc-dsc/v3.31/bin/bin/../../lib\libc99-pic30-elf.a(crt0_extendedaa.o)
__dinit_tbloffset                                 dist/dsPIC33AK512/production/perseus_512.X.production.elf
                                                  c:/program files/microchip/xc-dsc/v3.31/bin/bin/../../lib\libc99-pic30-elf.a(crt0_extendedaa.o)
__dinit_tblpage                                   dist/dsPIC33AK512/production/perseus_512.X.production.elf
__dprintf_cdeEfFgGnopsuxX                         c:/program files/microchip/xc-dsc/v3.31/bin/bin/../../lib\libc99-elf.a(__sio_printf_dfosux.AA_o)
__dprintf_cdeEfFgGnopuxX                          c:/program files/microchip/xc-dsc/v3.31/bin/bin/../../lib\libc99-elf.a(__sio_printf_dfoux.AA_o)
__dprintf_cdeEfFnopsuxX                           c:/program files/microchip/xc-dsc/v3.31/bin/bin/../../lib\libc99-elf.a(__sio_printf_dfosux.AA_o)
__dprintf_cdeEfFnopuxX                            c:/program files/microchip/xc-dsc/v3.31/bin/bin/../../lib\libc99-elf.a(__sio_printf_dfoux.AA_o)
__dprintf_cdeEgGnopsuxX                           c:/program files/microchip/xc-dsc/v3.31/bin/bin/../../lib\libc99-elf.a(__sio_printf_dfosux.AA_o)
__dprintf_cdeEgGnopuxX                            c:/program files/microchip/xc-dsc/v3.31/bin/bin/../../lib\libc99-elf.a(__sio_printf_dfoux.AA_o)
__dprintf_cdeEnopsuxX                             c:/program files/microchip/xc-dsc/v3.31/bin/bin/../../lib\libc99-elf.a(__sio_printf_dfosux.AA_o)
__dprintf_cdeEnopuxX                              c:/program files/microchip/xc-dsc/v3.31/bin/bin/../../lib\libc99-elf.a(__sio_printf_dfoux.AA_o)
__dprintf_cdfFgGnopsuxX                           c:/program files/microchip/xc-dsc/v3.31/bin/bin/../../lib\libc99-elf.a(__sio_printf_dfosux.AA_o)
__dprintf_cdfFgGnopuxX                            c:/program files/microchip/xc-dsc/v3.31/bin/bin/../../lib\libc99-elf.a(__sio_printf_dfoux.AA_o)
__dprintf_cdfFnopsuxX                             c:/program files/microchip/xc-dsc/v3.31/bin/bin/../../lib\libc99-elf.a(__sio_printf_dfosux.AA_o)
__dprintf_cdfFnopuxX                              c:/program files/microchip/xc-dsc/v3.31/bin/bin/../../lib\libc99-elf.a(__sio_printf_dfoux.AA_o)
__dprintf_cdgGnopsuxX                             c:/program files/microchip/xc-dsc/v3.31/bin/bin/../../lib\libc99-elf.a(__sio_printf_dfosux.AA_o)
__dprintf_cdgGnopuxX                              c:/program files/microchip/xc-dsc/v3.31/bin/bin/../../lib\libc99-elf.a(__sio_printf_dfoux.AA_o)
__dprintf_cdnopuxX                                c:/program files/microchip/xc-dsc/v3.31/bin/bin/../../lib\libc99-elf.a(__sio_printf_doux.AA_o)
__dprintf_eE                                      c:/program files/microchip/xc-dsc/v3.31/bin/bin/../../lib\libc99-elf.a(__sio_printf_f.AA_o)
__dprintf_eEfF                                    c:/program files/microchip/xc-dsc/v3.31/bin/bin/../../lib\libc99-elf.a(__sio_printf_f.AA_o)
__dprintf_eEfFgG                                  c:/program files/microchip/xc-dsc/v3.31/bin/bin/../../lib\libc99-elf.a(__sio_printf_f.AA_o)
__dprintf_eEgG                                    c:/program files/microchip/xc-dsc/v3.31/bin/bin/../../lib\libc99-elf.a(__sio_printf_f.AA_o)
__dprintf_fF                                      c:/program files/microchip/xc-dsc/v3.31/bin/bin/../../lib\libc99-elf.a(__sio_printf_f.AA_o)
__dprintf_fFgG                                    c:/program files/microchip/xc-dsc/v3.31/bin/bin/../../lib\libc99-elf.a(__sio_printf_f.AA_o)
__dprintf_gG                                      c:/program files/microchip/xc-dsc/v3.31/bin/bin/../../lib\libc99-elf.a(__sio_printf_f.AA_o)
__dtor                                            c:/program files/microchip/xc-dsc/v3.31/bin/bin/../../lib\libc99-pic30-elf.a(crt_ctor.aa.AAMeo)
                                                  c:/program files/microchip/xc-dsc/v3.31/bin/bin/../../lib\libc99-pic30-elf.a(crt0_extendedaa.o)
__dtors_size                                      dist/dsPIC33AK512/production/perseus_512.X.production.elf
                                                  c:/program files/microchip/xc-dsc/v3.31/bin/bin/../../lib\libc99-pic30-elf.a(crt_ctor.aa.AAMeo)
__dtors_start_offset                              dist/dsPIC33AK512/production/perseus_512.X.production.elf
                                                  c:/program files/microchip/xc-dsc/v3.31/bin/bin/../../lib\libc99-pic30-elf.a(crt_ctor.aa.AAMeo)
__dtors_start_page                                dist/dsPIC33AK512/production/perseus_512.X.production.elf
__eheap                                           dist/dsPIC33AK512/production/perseus_512.X.production.elf
__funpack                                         c:/program files/microchip/xc-dsc/v3.31/bin/bin/../../lib\libc99-pic30-elf.a(funpack.aa.AA_eo)
                                                  c:/program files/microchip/xc-dsc/v3.31/bin/bin/../../lib\libc99-pic30-elf.a(extendsfdf.aa.AA_eo)
__has_user_init                                   c:/program files/microchip/xc-dsc/v3.31/bin/bin/../../lib\libc99-pic30-elf.a(crt0_extendedaa.o)
__heap                                            dist/dsPIC33AK512/production/perseus_512.X.production.elf
__ivt_0                                           __ivt_0
__linked_.bss                                     dist/dsPIC33AK512/production/perseus_512.X.production.elf
__linked_.comment                                 dist/dsPIC33AK512/production/perseus_512.X.production.elf
__linked_.config_BKUP_SPI2PIN                     dist/dsPIC33AK512/production/perseus_512.X.production.elf
__linked_.config_SPI2PIN                          dist/dsPIC33AK512/production/perseus_512.X.production.elf
__linked_.data                                    dist/dsPIC33AK512/production/perseus_512.X.production.elf
__linked_.debug_abbrev                            dist/dsPIC33AK512/production/perseus_512.X.production.elf
__linked_.debug_aranges                           dist/dsPIC33AK512/production/perseus_512.X.production.elf
__linked_.debug_frame                             dist/dsPIC33AK512/production/perseus_512.X.production.elf
__linked_.debug_info                              dist/dsPIC33AK512/production/perseus_512.X.production.elf
__linked_.debug_line                              dist/dsPIC33AK512/production/perseus_512.X.production.elf
__linked_.debug_loc                               dist/dsPIC33AK512/production/perseus_512.X.production.elf
__linked_.debug_ranges                            dist/dsPIC33AK512/production/perseus_512.X.production.elf
__linked_.debug_str                               dist/dsPIC33AK512/production/perseus_512.X.production.elf
__linked_.dinit                                   dist/dsPIC33AK512/production/perseus_512.X.production.elf
__linked_.nbss                                    dist/dsPIC33AK512/production/perseus_512.X.production.elf
__linked_.ndata                                   dist/dsPIC33AK512/production/perseus_512.X.production.elf
__linked_.reset                                   dist/dsPIC33AK512/production/perseus_512.X.production.elf
__linked_.text                                    dist/dsPIC33AK512/production/perseus_512.X.production.elf
__linked_.text.channel_decode                     dist/dsPIC33AK512/production/perseus_512.X.production.elf
__linked_.text.check_for_aks_block                dist/dsPIC33AK512/production/perseus_512.X.production.elf
__linked_.text.qtm_acquisition_process            dist/dsPIC33AK512/production/perseus_512.X.production.elf
__linked_.text.qtm_calibrate_sensor_node          dist/dsPIC33AK512/production/perseus_512.X.production.elf
__linked_.text.qtm_dspic33a_touch_handler_eoc     dist/dsPIC33AK512/production/perseus_512.X.production.elf
__linked_.text.qtm_enable_sensor_node             dist/dsPIC33AK512/production/perseus_512.X.production.elf
__linked_.text.qtm_freq_hop_autotune              dist/dsPIC33AK512/production/perseus_512.X.production.elf
__linked_.text.qtm_init_sensor_key                dist/dsPIC33AK512/production/perseus_512.X.production.elf
__linked_.text.qtm_itc_config_update              dist/dsPIC33AK512/production/perseus_512.X.production.elf
__linked_.text.qtm_itc_init_acquisition_module    dist/dsPIC33AK512/production/perseus_512.X.production.elf
__linked_.text.qtm_itc_qtlib_assign_signal_memory dist/dsPIC33AK512/production/perseus_512.X.production.elf
__linked_.text.qtm_itc_start_measurement_seq      dist/dsPIC33AK512/production/perseus_512.X.production.elf
__linked_.text.qtm_key_sensors_process            dist/dsPIC33AK512/production/perseus_512.X.production.elf
__linked_.text.qtm_measure_node                   dist/dsPIC33AK512/production/perseus_512.X.production.elf
__linked_.text.qtm_set_sensor_node_cal            dist/dsPIC33AK512/production/perseus_512.X.production.elf
__linked_.text.qtm_update_acq_freq_delay          dist/dsPIC33AK512/production/perseus_512.X.production.elf
__linked_.text.qtm_update_qtlib_timer             dist/dsPIC33AK512/production/perseus_512.X.production.elf
__linked_.text.select_next_channel_to_measure     dist/dsPIC33AK512/production/perseus_512.X.production.elf
__linked_1d0069c193f2_0                           dist/dsPIC33AK512/production/perseus_512.X.production.elf
__linked_1d0069c193f2_1                           dist/dsPIC33AK512/production/perseus_512.X.production.elf
__linked_21d869c193ec_0                           dist/dsPIC33AK512/production/perseus_512.X.production.elf
__linked_21d869c193ec_1                           dist/dsPIC33AK512/production/perseus_512.X.production.elf
__linked_22c69c193ef_0                            dist/dsPIC33AK512/production/perseus_512.X.production.elf
__linked_22c69c193ef_1                            dist/dsPIC33AK512/production/perseus_512.X.production.elf
__linked_32869c193f0_0                            dist/dsPIC33AK512/production/perseus_512.X.production.elf
__linked_380469c193ce_0                           dist/dsPIC33AK512/production/perseus_512.X.production.elf
__linked_5f0c69c195d0_0                           dist/dsPIC33AK512/production/perseus_512.X.production.elf
__linked_5f0c69c195d0_1                           dist/dsPIC33AK512/production/perseus_512.X.production.elf
__linked_630c69c193f3_0                           dist/dsPIC33AK512/production/perseus_512.X.production.elf
__linked_630c69c193f3_1                           dist/dsPIC33AK512/production/perseus_512.X.production.elf
__linked_630c69c193f3_2                           dist/dsPIC33AK512/production/perseus_512.X.production.elf
__linked_632869c193f7_0                           dist/dsPIC33AK512/production/perseus_512.X.production.elf
__linked_66fc69c193dd_0                           dist/dsPIC33AK512/production/perseus_512.X.production.elf
__linked_6c2469c195e3_0                           dist/dsPIC33AK512/production/perseus_512.X.production.elf
__linked_6c2469c195e3_1                           dist/dsPIC33AK512/production/perseus_512.X.production.elf
__linked_860069c193e4_0                           dist/dsPIC33AK512/production/perseus_512.X.production.elf
__linked_860069c193e4_1                           dist/dsPIC33AK512/production/perseus_512.X.production.elf
__linked_88e069c193e6_0                           dist/dsPIC33AK512/production/perseus_512.X.production.elf
__linked_88e069c193e6_1                           dist/dsPIC33AK512/production/perseus_512.X.production.elf
__linked_8a069c193cb_0                            dist/dsPIC33AK512/production/perseus_512.X.production.elf
__linked_98d469c193e3_0                           dist/dsPIC33AK512/production/perseus_512.X.production.elf
__linked_98d469c193e3_1                           dist/dsPIC33AK512/production/perseus_512.X.production.elf
__linked_98d469c193e3_2                           dist/dsPIC33AK512/production/perseus_512.X.production.elf
__linked_98d469c193e3_3                           dist/dsPIC33AK512/production/perseus_512.X.production.elf
__linked_C:\Windows\TEMP\ccZepluN.s.scn1          dist/dsPIC33AK512/production/perseus_512.X.production.elf
__linked__0000000007643A2069c193c0                dist/dsPIC33AK512/production/perseus_512.X.production.elf
__linked__00000000076F3A2069c193bf                dist/dsPIC33AK512/production/perseus_512.X.production.elf
__linked__0000000007739D8069c193ea                dist/dsPIC33AK512/production/perseus_512.X.production.elf
__linked__0000000007739E1069c193ea                dist/dsPIC33AK512/production/perseus_512.X.production.elf
__linked__0000000007739EA069c193ea                dist/dsPIC33AK512/production/perseus_512.X.production.elf
__linked__0000000007739F3069c193ea                dist/dsPIC33AK512/production/perseus_512.X.production.elf
__linked__000000000782E00069c195e2                dist/dsPIC33AK512/production/perseus_512.X.production.elf
__linked__000000000782E09069c195e2                dist/dsPIC33AK512/production/perseus_512.X.production.elf
__linked___c30_signature                          dist/dsPIC33AK512/production/perseus_512.X.production.elf
__linked___ivt_0                                  dist/dsPIC33AK512/production/perseus_512.X.production.elf
__linked_bb869c193c2_0                            dist/dsPIC33AK512/production/perseus_512.X.production.elf
__printf_cdeEfFgGnopsuxX                          c:/program files/microchip/xc-dsc/v3.31/bin/bin/../../lib\libc99-elf.a(__sio_printf_dfosux.AA_o)
__printf_cdeEfFgGnopuxX                           c:/program files/microchip/xc-dsc/v3.31/bin/bin/../../lib\libc99-elf.a(__sio_printf_dfoux.AA_o)
__printf_cdeEfFnopsuxX                            c:/program files/microchip/xc-dsc/v3.31/bin/bin/../../lib\libc99-elf.a(__sio_printf_dfosux.AA_o)
__printf_cdeEfFnopuxX                             c:/program files/microchip/xc-dsc/v3.31/bin/bin/../../lib\libc99-elf.a(__sio_printf_dfoux.AA_o)
__printf_cdeEgGnopsuxX                            c:/program files/microchip/xc-dsc/v3.31/bin/bin/../../lib\libc99-elf.a(__sio_printf_dfosux.AA_o)
__printf_cdeEgGnopuxX                             c:/program files/microchip/xc-dsc/v3.31/bin/bin/../../lib\libc99-elf.a(__sio_printf_dfoux.AA_o)
__printf_cdeEnopsuxX                              c:/program files/microchip/xc-dsc/v3.31/bin/bin/../../lib\libc99-elf.a(__sio_printf_dfosux.AA_o)
__printf_cdeEnopuxX                               c:/program files/microchip/xc-dsc/v3.31/bin/bin/../../lib\libc99-elf.a(__sio_printf_dfoux.AA_o)
__printf_cdfFgGnopsuxX                            c:/program files/microchip/xc-dsc/v3.31/bin/bin/../../lib\libc99-elf.a(__sio_printf_dfosux.AA_o)
__printf_cdfFgGnopuxX                             c:/program files/microchip/xc-dsc/v3.31/bin/bin/../../lib\libc99-elf.a(__sio_printf_dfoux.AA_o)
__printf_cdfFnopsuxX                              c:/program files/microchip/xc-dsc/v3.31/bin/bin/../../lib\libc99-elf.a(__sio_printf_dfosux.AA_o)
                                                  build/dsPIC33AK512/production/_ext/1360937237/main.o
                                                  build/dsPIC33AK512/production/_ext/1536116519/app_debug.o
__printf_cdfFnopuxX                               c:/program files/microchip/xc-dsc/v3.31/bin/bin/../../lib\libc99-elf.a(__sio_printf_dfoux.AA_o)
                                                  build/dsPIC33AK512/production/_ext/1536116519/eq_benchmark.o
__printf_cdgGnopsuxX                              c:/program files/microchip/xc-dsc/v3.31/bin/bin/../../lib\libc99-elf.a(__sio_printf_dfosux.AA_o)
__printf_cdgGnopuxX                               c:/program files/microchip/xc-dsc/v3.31/bin/bin/../../lib\libc99-elf.a(__sio_printf_dfoux.AA_o)
__printf_cdnopuxX                                 c:/program files/microchip/xc-dsc/v3.31/bin/bin/../../lib\libc99-elf.a(__sio_printf_doux.AA_o)
                                                  build/dsPIC33AK512/production/_ext/1536116519/eq_benchmark.o
                                                  build/dsPIC33AK512/production/_ext/1360937237/SST26_drv.o
                                                  build/dsPIC33AK512/production/_ext/1360937237/wm8904.o
                                                  build/dsPIC33AK512/production/_ext/1360937237/i2c.o
                                                  build/dsPIC33AK512/production/_ext/1360937237/SPI_TDM_drv.o
__printf_eE                                       c:/program files/microchip/xc-dsc/v3.31/bin/bin/../../lib\libc99-elf.a(__sio_printf_f.AA_o)
__printf_eEfF                                     c:/program files/microchip/xc-dsc/v3.31/bin/bin/../../lib\libc99-elf.a(__sio_printf_f.AA_o)
__printf_eEfFgG                                   c:/program files/microchip/xc-dsc/v3.31/bin/bin/../../lib\libc99-elf.a(__sio_printf_f.AA_o)
__printf_eEgG                                     c:/program files/microchip/xc-dsc/v3.31/bin/bin/../../lib\libc99-elf.a(__sio_printf_f.AA_o)
__printf_fF                                       c:/program files/microchip/xc-dsc/v3.31/bin/bin/../../lib\libc99-elf.a(__sio_printf_f.AA_o)
                                                  build/dsPIC33AK512/production/_ext/1536116519/app_debug.o
                                                  build/dsPIC33AK512/production/_ext/1538408868/float_conversion.o
__printf_fFgG                                     c:/program files/microchip/xc-dsc/v3.31/bin/bin/../../lib\libc99-elf.a(__sio_printf_f.AA_o)
__printf_gG                                       c:/program files/microchip/xc-dsc/v3.31/bin/bin/../../lib\libc99-elf.a(__sio_printf_f.AA_o)
__reset                                           c:/program files/microchip/xc-dsc/v3.31/bin/bin/../../lib\libc99-pic30-elf.a(crt0_extendedaa.o)
__resetALT                                        dist/dsPIC33AK512/production/perseus_512.X.production.elf
__resetPRI                                        c:/program files/microchip/xc-dsc/v3.31/bin/bin/../../lib\libc99-pic30-elf.a(crt0_extendedaa.o)
__restart_dinit_tbloffset                         dist/dsPIC33AK512/production/perseus_512.X.production.elf
                                                  c:/program files/microchip/xc-dsc/v3.31/bin/bin/../../lib\libc99-pic30-elf.a(crt0_extendedaa.o)
__restart_dinit_tblpage                           dist/dsPIC33AK512/production/perseus_512.X.production.elf
__restart_shared_dinit_addr                       dist/dsPIC33AK512/production/perseus_512.X.production.elf
__shared_dinit_addr                               dist/dsPIC33AK512/production/perseus_512.X.production.elf
__stdout                                          c:/program files/microchip/xc-dsc/v3.31/bin/bin/../../lib\libc99-elf.a(stdout.AA_o)
                                                  c:/program files/microchip/xc-dsc/v3.31/bin/bin/../../lib\libc99-elf.a(puts.AA_o)
                                                  c:/program files/microchip/xc-dsc/v3.31/bin/bin/../../lib\libc99-elf.a(putchar.AA_o)
                                                  c:/program files/microchip/xc-dsc/v3.31/bin/bin/../../lib\libc99-elf.a(__sio_printf_f.AA_o)
                                                  c:/program files/microchip/xc-dsc/v3.31/bin/bin/../../lib\libc99-elf.a(__sio_printf_doux.AA_o)
                                                  c:/program files/microchip/xc-dsc/v3.31/bin/bin/../../lib\libc99-elf.a(__sio_printf_dfoux.AA_o)
                                                  c:/program files/microchip/xc-dsc/v3.31/bin/bin/../../lib\libc99-elf.a(__sio_printf_dfosux.AA_o)
__tls_dinit_tbloffset                             dist/dsPIC33AK512/production/perseus_512.X.production.elf
__tls_dinit_tblpage                               dist/dsPIC33AK512/production/perseus_512.X.production.elf
__user_init                                       c:/program files/microchip/xc-dsc/v3.31/bin/bin/../../lib\libc99-pic30-elf.a(crt0_extendedaa.o)
_adc_qtlib_acq_gen1                               build/dsPIC33AK512/production/_ext/1521024571/touch.o
_adc_qtlib_node_stat1                             build/dsPIC33AK512/production/_ext/1521024571/touch.o
_adc_seq_node_cfg1                                build/dsPIC33AK512/production/_ext/1521024571/touch.o
_aec_enable                                       build/dsPIC33AK512/production/_ext/1538408868/aec_33ak.o
                                                  build/dsPIC33AK512/production/_ext/1536116519/app_debug.o
_aec_get_erle                                     build/dsPIC33AK512/production/_ext/1538408868/aec_33ak.o
                                                  build/dsPIC33AK512/production/_ext/1360937237/main.o
                                                  build/dsPIC33AK512/production/_ext/1536116519/app_debug.o
_aec_init                                         build/dsPIC33AK512/production/_ext/1538408868/aec_33ak.o
                                                  build/dsPIC33AK512/production/_ext/1360937237/main.o
_aec_is_near_end_speech                           build/dsPIC33AK512/production/_ext/1538408868/aec_33ak.o
                                                  build/dsPIC33AK512/production/_ext/1536116519/app_debug.o
_aec_process                                      build/dsPIC33AK512/production/_ext/1538408868/aec_33ak.o
                                                  build/dsPIC33AK512/production/_ext/1360937237/SPI_TDM_drv.o
_aec_reset                                        build/dsPIC33AK512/production/_ext/1538408868/aec_33ak.o
                                                  build/dsPIC33AK512/production/_ext/1536116519/app_debug.o
_aec_set_step_size                                build/dsPIC33AK512/production/_ext/1538408868/aec_33ak.o
                                                  build/dsPIC33AK512/production/_ext/1536116519/app_debug.o
_app_bassh_enable                                 build/dsPIC33AK512/production/_ext/1538408868/bass_enhancer.o
                                                  build/dsPIC33AK512/production/_ext/1360937237/main.o
_app_bassh_init                                   build/dsPIC33AK512/production/_ext/1538408868/bass_enhancer.o
                                                  build/dsPIC33AK512/production/_ext/1360937237/main.o
_app_bassh_is_enabled                             build/dsPIC33AK512/production/_ext/1538408868/bass_enhancer.o
_app_bassh_preset_speaker_A                       build/dsPIC33AK512/production/_ext/1538408868/bass_enhancer.o
_app_bassh_process                                build/dsPIC33AK512/production/_ext/1538408868/bass_enhancer.o
                                                  build/dsPIC33AK512/production/_ext/1360937237/SPI_TDM_drv.o
_app_ccsynth_init                                 build/dsPIC33AK512/production/_ext/1538408868/click_crack_synth.o
                                                  build/dsPIC33AK512/production/_ext/1360937237/main.o
_app_ccsynth_process                              build/dsPIC33AK512/production/_ext/1538408868/click_crack_synth.o
                                                  build/dsPIC33AK512/production/_ext/1360937237/SPI_TDM_drv.o
_app_ccsynth_set_enable                           build/dsPIC33AK512/production/_ext/1538408868/click_crack_synth.o
                                                  build/dsPIC33AK512/production/_ext/1360937237/main.o
_app_engine_synth_init                            build/dsPIC33AK512/production/_ext/1538408868/engine_synth.o
                                                  build/dsPIC33AK512/production/_ext/1360937237/main.o
_app_engine_synth_process                         build/dsPIC33AK512/production/_ext/1538408868/engine_synth.o
                                                  build/dsPIC33AK512/production/_ext/1360937237/SPI_TDM_drv.o
_app_gain_init                                    build/dsPIC33AK512/production/_ext/1538408868/gain_ctrl.o
                                                  build/dsPIC33AK512/production/_ext/1360937237/main.o
_app_gain_process                                 build/dsPIC33AK512/production/_ext/1538408868/gain_ctrl.o
                                                  build/dsPIC33AK512/production/_ext/1360937237/SPI_TDM_drv.o
_app_gain_set                                     build/dsPIC33AK512/production/_ext/1538408868/gain_ctrl.o
                                                  build/dsPIC33AK512/production/_ext/1360937237/main.o
_app_mute_set                                     build/dsPIC33AK512/production/_ext/1538408868/gain_ctrl.o
                                                  build/dsPIC33AK512/production/_ext/1360937237/main.o
_app_onmsg                                        build/dsPIC33AK512/production/_ext/1536116519/app_debug.o
                                                  build/dsPIC33AK512/production/_ext/1536116519/dbconsole.o
_app_tone_init                                    build/dsPIC33AK512/production/_ext/1538408868/tone_ctrl.o
                                                  build/dsPIC33AK512/production/_ext/1360937237/main.o
_app_tone_process_bas                             build/dsPIC33AK512/production/_ext/1538408868/tone_ctrl.o
                                                  build/dsPIC33AK512/production/_ext/1536116519/eq_benchmark.o
                                                  build/dsPIC33AK512/production/_ext/1360937237/SPI_TDM_drv.o
_app_tone_process_mid                             build/dsPIC33AK512/production/_ext/1538408868/tone_ctrl.o
                                                  build/dsPIC33AK512/production/_ext/1536116519/eq_benchmark.o
                                                  build/dsPIC33AK512/production/_ext/1360937237/SPI_TDM_drv.o
_app_tone_process_tre                             build/dsPIC33AK512/production/_ext/1538408868/tone_ctrl.o
                                                  build/dsPIC33AK512/production/_ext/1536116519/eq_benchmark.o
                                                  build/dsPIC33AK512/production/_ext/1360937237/SPI_TDM_drv.o
_app_tone_set_coeffs_bas                          build/dsPIC33AK512/production/_ext/1538408868/tone_ctrl.o
                                                  build/dsPIC33AK512/production/_ext/1536116519/eq_benchmark.o
                                                  build/dsPIC33AK512/production/_ext/1360937237/main.o
_app_tone_set_coeffs_mid                          build/dsPIC33AK512/production/_ext/1538408868/tone_ctrl.o
                                                  build/dsPIC33AK512/production/_ext/1536116519/eq_benchmark.o
_app_tone_set_coeffs_tre                          build/dsPIC33AK512/production/_ext/1538408868/tone_ctrl.o
                                                  build/dsPIC33AK512/production/_ext/1536116519/eq_benchmark.o
                                                  build/dsPIC33AK512/production/_ext/1360937237/main.o
_app_uart_rx_available                            build/dsPIC33AK512/production/_ext/1536116519/app_debug.o
                                                  build/dsPIC33AK512/production/_ext/1360937237/main.o
_app_widen_disable                                build/dsPIC33AK512/production/_ext/1538408868/widen_ctrl.o
                                                  build/dsPIC33AK512/production/_ext/1360937237/main.o
_app_widen_enable                                 build/dsPIC33AK512/production/_ext/1538408868/widen_ctrl.o
                                                  build/dsPIC33AK512/production/_ext/1360937237/main.o
_app_widen_init                                   build/dsPIC33AK512/production/_ext/1538408868/widen_ctrl.o
                                                  build/dsPIC33AK512/production/_ext/1360937237/main.o
_app_widen_process                                build/dsPIC33AK512/production/_ext/1538408868/widen_ctrl.o
                                                  build/dsPIC33AK512/production/_ext/1360937237/SPI_TDM_drv.o
_atoi                                             c:/program files/microchip/xc-dsc/v3.31/bin/bin/../../lib\libc99-elf.a(atoi.AA_o)
                                                  c:/program files/microchip/xc-dsc/v3.31/bin/bin/../../lib\libc99-elf.a(__printf_core.AA_o)
_bassh_init                                       build/dsPIC33AK512/production/_ext/1538408868/bass_enhancer.o
_bassh_process                                    build/dsPIC33AK512/production/_ext/1538408868/bass_enhancer.o
_bassh_set_default_params                         build/dsPIC33AK512/production/_ext/1538408868/bass_enhancer.o
_breakpoint                                       build/dsPIC33AK512/production/_ext/1360937237/pwm.o
_cal_count                                        build/dsPIC33AK512/production/_ext/1521024571/touch.o
_calibrate_node                                   build/dsPIC33AK512/production/_ext/1521024571/touch.o
_ccs_init                                         build/dsPIC33AK512/production/_ext/1538408868/click_crack_synth.o
_ccs_preset                                       build/dsPIC33AK512/production/_ext/1538408868/click_crack_synth.o
_ccs_process_stereo_add                           build/dsPIC33AK512/production/_ext/1538408868/click_crack_synth.o
_ccs_reset                                        build/dsPIC33AK512/production/_ext/1538408868/click_crack_synth.o
_ccs_set_enabled                                  build/dsPIC33AK512/production/_ext/1538408868/click_crack_synth.o
_ccs_set_interval                                 build/dsPIC33AK512/production/_ext/1538408868/click_crack_synth.o
_ccs_set_output_slots                             build/dsPIC33AK512/production/_ext/1538408868/click_crack_synth.o
_ccs_set_pan                                      build/dsPIC33AK512/production/_ext/1538408868/click_crack_synth.o
_ccs_set_po                                       build/dsPIC33AK512/production/_ext/1538408868/click_crack_synth.o
_ccs_trigger                                      build/dsPIC33AK512/production/_ext/1538408868/click_crack_synth.o
_close                                            c:/program files/microchip/xc-dsc/v3.31/bin/bin/../../lib\libc99-pic30-elf.a(close.AAMeo)
                                                  c:/program files/microchip/xc-dsc/v3.31/bin/bin/../../lib\libc99-elf.a(__stdio_close.AA_o)
_convert_float_to_pwm_20bit                       build/dsPIC33AK512/production/_ext/1538408868/float_conversion.o
                                                  build/dsPIC33AK512/production/_ext/1360937237/pwm.o
_convert_tdm_float_to_int32                       build/dsPIC33AK512/production/_ext/1538408868/float_conversion.o
                                                  build/dsPIC33AK512/production/_ext/1360937237/SPI_TDM_drv.o
_convert_tdm_init                                 build/dsPIC33AK512/production/_ext/1538408868/float_conversion.o
                                                  build/dsPIC33AK512/production/_ext/1360937237/main.o
_convert_tdm_int32_to_float                       build/dsPIC33AK512/production/_ext/1538408868/float_conversion.o
                                                  build/dsPIC33AK512/production/_ext/1360937237/SPI_TDM_drv.o
_dbc_feed_char                                    build/dsPIC33AK512/production/_ext/1536116519/dbconsole.o
                                                  build/dsPIC33AK512/production/_ext/1536116519/app_debug.o
_dbc_init                                         build/dsPIC33AK512/production/_ext/1536116519/dbconsole.o
                                                  build/dsPIC33AK512/production/_ext/1360937237/main.o
_delay_ms                                         build/dsPIC33AK512/production/_ext/1360937237/tick_time.o
                                                  build/dsPIC33AK512/production/_ext/1360937237/SPI3_drv.o
                                                  build/dsPIC33AK512/production/_ext/1360937237/wm8904.o
                                                  build/dsPIC33AK512/production/_ext/1360937237/main.o
_delay_us                                         build/dsPIC33AK512/production/_ext/1360937237/tick_time.o
                                                  build/dsPIC33AK512/production/_ext/1360937237/i2c.o
_device_config                                    build/dsPIC33AK512/production/_ext/1521024571/touch.o
_dma4_pwm5_process                                build/dsPIC33AK512/production/_ext/1360937237/pwm.o
                                                  build/dsPIC33AK512/production/_ext/1360937237/SPI_TDM_drv.o
_dma5_pwm6_process                                build/dsPIC33AK512/production/_ext/1360937237/pwm.o
                                                  build/dsPIC33AK512/production/_ext/1360937237/SPI_TDM_drv.o
_dma6_pwm7_process                                build/dsPIC33AK512/production/_ext/1360937237/pwm.o
                                                  build/dsPIC33AK512/production/_ext/1360937237/SPI_TDM_drv.o
_dma7_pwm8_process                                build/dsPIC33AK512/production/_ext/1360937237/pwm.o
                                                  build/dsPIC33AK512/production/_ext/1360937237/SPI_TDM_drv.o
_engine_process                                   build/dsPIC33AK512/production/_ext/1538408868/engine_synth.o
_eq_benchmark_compare_output                      build/dsPIC33AK512/production/_ext/1536116519/eq_benchmark.o
                                                  build/dsPIC33AK512/production/_ext/1536116519/app_debug.o
_eq_benchmark_init                                build/dsPIC33AK512/production/_ext/1536116519/eq_benchmark.o
                                                  build/dsPIC33AK512/production/_ext/1536116519/app_debug.o
_eq_benchmark_run                                 build/dsPIC33AK512/production/_ext/1536116519/eq_benchmark.o
                                                  build/dsPIC33AK512/production/_ext/1536116519/app_debug.o
_eq_perseus_enable                                build/dsPIC33AK512/production/_ext/335358292/eq_perseus_wrapper.o
                                                  build/dsPIC33AK512/production/_ext/1536116519/app_debug.o
_eq_perseus_get_band                              build/dsPIC33AK512/production/_ext/335358292/eq_perseus_wrapper.o
                                                  build/dsPIC33AK512/production/_ext/1536116519/app_debug.o
_eq_perseus_get_instance                          build/dsPIC33AK512/production/_ext/335358292/eq_perseus_wrapper.o
_eq_perseus_get_master_gain                       build/dsPIC33AK512/production/_ext/335358292/eq_perseus_wrapper.o
                                                  build/dsPIC33AK512/production/_ext/1536116519/app_debug.o
_eq_perseus_get_preset_name                       build/dsPIC33AK512/production/_ext/335358292/eq_perseus_wrapper.o
                                                  build/dsPIC33AK512/production/_ext/1536116519/app_debug.o
_eq_perseus_init                                  build/dsPIC33AK512/production/_ext/335358292/eq_perseus_wrapper.o
                                                  build/dsPIC33AK512/production/_ext/1360937237/main.o
_eq_perseus_is_enabled                            build/dsPIC33AK512/production/_ext/335358292/eq_perseus_wrapper.o
                                                  build/dsPIC33AK512/production/_ext/1536116519/app_debug.o
_eq_perseus_load_preset                           build/dsPIC33AK512/production/_ext/335358292/eq_perseus_wrapper.o
                                                  build/dsPIC33AK512/production/_ext/1360937237/main.o
                                                  build/dsPIC33AK512/production/_ext/1536116519/app_debug.o
_eq_perseus_process                               build/dsPIC33AK512/production/_ext/335358292/eq_perseus_wrapper.o
_eq_perseus_process_mono                          build/dsPIC33AK512/production/_ext/335358292/eq_perseus_wrapper.o
                                                  build/dsPIC33AK512/production/_ext/1536116519/eq_benchmark.o
                                                  build/dsPIC33AK512/production/_ext/1360937237/SPI_TDM_drv.o
_eq_perseus_process_stereo                        build/dsPIC33AK512/production/_ext/335358292/eq_perseus_wrapper.o
_eq_perseus_reset_to_flat                         build/dsPIC33AK512/production/_ext/335358292/eq_perseus_wrapper.o
_eq_perseus_set_band                              build/dsPIC33AK512/production/_ext/335358292/eq_perseus_wrapper.o
                                                  build/dsPIC33AK512/production/_ext/1536116519/eq_benchmark.o
                                                  build/dsPIC33AK512/production/_ext/1536116519/app_debug.o
_eq_perseus_set_master_gain                       build/dsPIC33AK512/production/_ext/335358292/eq_perseus_wrapper.o
                                                  build/dsPIC33AK512/production/_ext/1536116519/app_debug.o
_expf                                             c:/program files/microchip/xc-dsc/v3.31/bin/bin/../../lib\libm-elf.a(expf.AA_o)
                                                  build/dsPIC33AK512/production/_ext/1538408868/click_crack_synth.o
                                                  build/dsPIC33AK512/production/_ext/1538408868/bass_enhancer.o
                                                  build/dsPIC33AK512/production/_ext/1538408868/widen_ctrl.o
                                                  build/dsPIC33AK512/production/_ext/1538408868/engine_synth.o
_expm1f                                           c:/program files/microchip/xc-dsc/v3.31/bin/bin/../../lib\libm-elf.a(expm1f.AA_o)
                                                  c:/program files/microchip/xc-dsc/v3.31/bin/bin/../../lib\libm-elf.a(tanhf.AA_o)
_fabsf                                            c:/program files/microchip/xc-dsc/v3.31/bin/bin/../../lib\libm-elf.a(fabsf.AA_o)
                                                  c:/program files/microchip/xc-dsc/v3.31/bin/bin/../../lib\libm-elf.a(powf.AA_o)
_floorl                                           c:/program files/microchip/xc-dsc/v3.31/bin/bin/../../lib\libm-elf.a(floorl.AA_o)
                                                  c:/program files/microchip/xc-dsc/v3.31/bin/bin/../../lib\libc99-elf.a(__fmt_fp.AA_o)
_fputc                                            c:/program files/microchip/xc-dsc/v3.31/bin/bin/../../lib\libc99-elf.a(putc.AA_o)
                                                  c:/program files/microchip/xc-dsc/v3.31/bin/bin/../../lib\libc99-elf.a(putchar.AA_o)
_fputs                                            c:/program files/microchip/xc-dsc/v3.31/bin/bin/../../lib\libc99-elf.a(fputs.AA_o)
                                                  c:/program files/microchip/xc-dsc/v3.31/bin/bin/../../lib\libc99-elf.a(puts.AA_o)
_fputs_unlocked                                   c:/program files/microchip/xc-dsc/v3.31/bin/bin/../../lib\libc99-elf.a(fputs.AA_o)
_freq_hop_autotune_counters                       build/dsPIC33AK512/production/_ext/1521024571/touch.o
_freq_hop_delay_selection                         build/dsPIC33AK512/production/_ext/1521024571/touch.o
_fwrite                                           c:/program files/microchip/xc-dsc/v3.31/bin/bin/../../lib\libc99-elf.a(fwrite.AA_o)
                                                  c:/program files/microchip/xc-dsc/v3.31/bin/bin/../../lib\libc99-elf.a(fputs.AA_o)
_fwrite_unlocked                                  c:/program files/microchip/xc-dsc/v3.31/bin/bin/../../lib\libc99-elf.a(fwrite.AA_o)
_g_aec_enabled                                    build/dsPIC33AK512/production/_ext/1360937237/SPI_TDM_drv.o
                                                  build/dsPIC33AK512/production/_ext/1360937237/main.o
                                                  build/dsPIC33AK512/production/_ext/1536116519/app_debug.o
_g_aec_state                                      build/dsPIC33AK512/production/_ext/1360937237/SPI_TDM_drv.o
                                                  build/dsPIC33AK512/production/_ext/1360937237/main.o
                                                  build/dsPIC33AK512/production/_ext/1536116519/app_debug.o
_g_audio_level_in                                 build/dsPIC33AK512/production/_ext/1360937237/SPI_TDM_drv.o
                                                  build/dsPIC33AK512/production/_ext/1360937237/main.o
                                                  build/dsPIC33AK512/production/_ext/1536116519/app_debug.o
_g_audio_level_out                                build/dsPIC33AK512/production/_ext/1360937237/SPI_TDM_drv.o
                                                  build/dsPIC33AK512/production/_ext/1360937237/main.o
                                                  build/dsPIC33AK512/production/_ext/1536116519/app_debug.o
_g_bassh                                          build/dsPIC33AK512/production/_ext/1538408868/bass_enhancer.o
                                                  build/dsPIC33AK512/production/_ext/1536116519/app_debug.o
_g_echo_sim_enabled                               build/dsPIC33AK512/production/_ext/1360937237/SPI_TDM_drv.o
                                                  build/dsPIC33AK512/production/_ext/1536116519/app_debug.o
_g_echo_sim_gain                                  build/dsPIC33AK512/production/_ext/1360937237/SPI_TDM_drv.o
                                                  build/dsPIC33AK512/production/_ext/1536116519/app_debug.o
_g_us_wm8731_reg_active_control_value             build/dsPIC33AK512/production/_ext/1360937237/wm8731.o
_g_us_wm8731_reg_analogue_audio_path_control_value build/dsPIC33AK512/production/_ext/1360937237/wm8731.o
_g_us_wm8731_reg_digital_audio_interface_format_value build/dsPIC33AK512/production/_ext/1360937237/wm8731.o
_g_us_wm8731_reg_digital_audio_path_control_value build/dsPIC33AK512/production/_ext/1360937237/wm8731.o
_g_us_wm8731_reg_left_headphone_out_value         build/dsPIC33AK512/production/_ext/1360937237/wm8731.o
_g_us_wm8731_reg_left_line_in_value               build/dsPIC33AK512/production/_ext/1360937237/wm8731.o
_g_us_wm8731_reg_power_down_control_value         build/dsPIC33AK512/production/_ext/1360937237/wm8731.o
_g_us_wm8731_reg_right_headphone_out_value        build/dsPIC33AK512/production/_ext/1360937237/wm8731.o
_g_us_wm8731_reg_right_line_in_value              build/dsPIC33AK512/production/_ext/1360937237/wm8731.o
_g_us_wm8731_reg_sampling_control_value           build/dsPIC33AK512/production/_ext/1360937237/wm8731.o
_gain_init                                        build/dsPIC33AK512/production/_ext/1538408868/gain_ctrl.o
_gain_process                                     build/dsPIC33AK512/production/_ext/1538408868/gain_ctrl.o
_gain_set                                         build/dsPIC33AK512/production/_ext/1538408868/gain_ctrl.o
_gain_set_db                                      build/dsPIC33AK512/production/_ext/1538408868/gain_ctrl.o
_get_current_frequency                            build/dsPIC33AK512/production/_ext/1521024571/touch.o
_get_filter_frequency                             build/dsPIC33AK512/production/_ext/1521024571/touch.o
_get_scroller_contact_size                        build/dsPIC33AK512/production/_ext/1521024571/touch.o
_get_scroller_contact_threshold                   build/dsPIC33AK512/production/_ext/1521024571/touch.o
_get_scroller_position                            build/dsPIC33AK512/production/_ext/1521024571/touch.o
_get_scroller_state                               build/dsPIC33AK512/production/_ext/1521024571/touch.o
_get_sensor_cc_val                                build/dsPIC33AK512/production/_ext/1521024571/touch.o
_get_sensor_node_reference                        build/dsPIC33AK512/production/_ext/1521024571/touch.o
_get_sensor_node_signal                           build/dsPIC33AK512/production/_ext/1521024571/touch.o
_get_sensor_state                                 build/dsPIC33AK512/production/_ext/1521024571/touch.o
                                                  build/dsPIC33AK512/production/_ext/1034234695/button_led.o
_get_sensor_threshold                             build/dsPIC33AK512/production/_ext/1521024571/touch.o
_interrupt_cnt                                    build/dsPIC33AK512/production/_ext/1521024571/touch.o
_level_meter_proc                                 build/dsPIC33AK512/production/_ext/1538408868/LED_level_meter.o
                                                  build/dsPIC33AK512/production/_ext/1360937237/SPI_TDM_drv.o
_log10f                                           c:/program files/microchip/xc-dsc/v3.31/bin/bin/../../lib\libm-elf.a(log10f.AA_o)
                                                  build/dsPIC33AK512/production/_ext/1538408868/bass_enhancer.o
_logf                                             c:/program files/microchip/xc-dsc/v3.31/bin/bin/../../lib\libm-elf.a(logf.AA_o)
                                                  build/dsPIC33AK512/production/_ext/1538408868/engine_synth.o
_lrintf                                           c:/program files/microchip/xc-dsc/v3.31/bin/bin/../../lib\libm-elf.a(lrintf.AA_o)
                                                  build/dsPIC33AK512/production/_ext/1538408868/widen_ctrl.o
_lseek                                            c:/program files/microchip/xc-dsc/v3.31/bin/bin/../../lib\libc99-elf.a(lseek.AA_o)
                                                  c:/program files/microchip/xc-dsc/v3.31/bin/bin/../../lib\libc99-elf.a(__stdio_close.AA_o)
_main                                             build/dsPIC33AK512/production/_ext/1360937237/main.o
                                                  c:/program files/microchip/xc-dsc/v3.31/bin/bin/../../lib\libc99-pic30-elf.a(crt0_extendedaa.o)
_measurement_done_touch                           build/dsPIC33AK512/production/_ext/1521024571/touch.o
_memcpy                                           c:/program files/microchip/xc-dsc/v3.31/bin/bin/../../lib\libc99-elf.a(memcpy.AA_o)
                                                  c:/program files/microchip/xc-dsc/v3.31/bin/bin/../../lib\libc99-elf.a(__printf_core.AA_o)
                                                  c:/program files/microchip/xc-dsc/v3.31/bin/bin/../../lib\libc99-elf.a(__out.AA_o)
                                                  build/dsPIC33AK512/production/_ext/1538408868/aec_33ak.o
                                                  build/dsPIC33AK512/production/_ext/335358292/eq_api_33AK.o
                                                  build/dsPIC33AK512/production/_ext/1538408868/click_crack_synth.o
_memset                                           c:/program files/microchip/xc-dsc/v3.31/bin/bin/../../lib\libc99-elf.a(memset.AA_o)
                                                  c:/program files/microchip/xc-dsc/v3.31/bin/bin/../../lib\libc99-elf.a(__printf_core.AA_o)
                                                  c:/program files/microchip/xc-dsc/v3.31/bin/bin/../../lib\libc99-elf.a(__fmt_fp.AA_o)
                                                  build/dsPIC33AK512/production/_ext/1538408868/aec_nlms_float.o
_module_error_code                                build/dsPIC33AK512/production/_ext/1521024571/touch.o
_mute_set                                         build/dsPIC33AK512/production/_ext/1538408868/gain_ctrl.o
_nlms_compute_energy                              build/dsPIC33AK512/production/_ext/1538408868/aec_nlms_float.o
_nlms_filter                                      build/dsPIC33AK512/production/_ext/1538408868/aec_nlms_float.o
_nlms_init                                        build/dsPIC33AK512/production/_ext/1538408868/aec_nlms_float.o
                                                  build/dsPIC33AK512/production/_ext/1538408868/aec_33ak.o
_nlms_process_sample                              build/dsPIC33AK512/production/_ext/1538408868/aec_nlms_float.o
                                                  build/dsPIC33AK512/production/_ext/1538408868/aec_33ak.o
_nlms_push_sample                                 build/dsPIC33AK512/production/_ext/1538408868/aec_nlms_float.o
_nlms_update                                      build/dsPIC33AK512/production/_ext/1538408868/aec_nlms_float.o
_nlms_update_energy                               build/dsPIC33AK512/production/_ext/1538408868/aec_nlms_float.o
_noise_filter_buffer                              build/dsPIC33AK512/production/_ext/1521024571/touch.o
_notif_action_i16                                 build/dsPIC33AK512/production/_ext/1538408868/snd_effect_play.o
                                                  build/dsPIC33AK512/production/_ext/1360937237/SST26_drv.o
_pI2CxBITObits                                    build/dsPIC33AK512/production/_ext/1360937237/i2c.o
_pI2CxCON1                                        build/dsPIC33AK512/production/_ext/1360937237/i2c.o
_pI2CxCON1bits                                    build/dsPIC33AK512/production/_ext/1360937237/i2c.o
_pI2CxCON2                                        build/dsPIC33AK512/production/_ext/1360937237/i2c.o
_pI2CxCON2bits                                    build/dsPIC33AK512/production/_ext/1360937237/i2c.o
_pI2CxHBRG                                        build/dsPIC33AK512/production/_ext/1360937237/i2c.o
_pI2CxLBRG                                        build/dsPIC33AK512/production/_ext/1360937237/i2c.o
_pI2CxRCV                                         build/dsPIC33AK512/production/_ext/1360937237/i2c.o
_pI2CxSTAT1                                       build/dsPIC33AK512/production/_ext/1360937237/i2c.o
_pI2CxSTAT1bits                                   build/dsPIC33AK512/production/_ext/1360937237/i2c.o
_pI2CxSTAT2                                       build/dsPIC33AK512/production/_ext/1360937237/i2c.o
_pI2CxSTAT2bits                                   build/dsPIC33AK512/production/_ext/1360937237/i2c.o
_pI2CxTRN                                         build/dsPIC33AK512/production/_ext/1360937237/i2c.o
_powf                                             c:/program files/microchip/xc-dsc/v3.31/bin/bin/../../lib\libm-elf.a(powf.AA_o)
                                                  build/dsPIC33AK512/production/_ext/335358292/eq_api_33AK.o
                                                  build/dsPIC33AK512/production/_ext/1538408868/bass_enhancer.o
                                                  build/dsPIC33AK512/production/_ext/1538408868/engine_synth.o
                                                  build/dsPIC33AK512/production/_ext/1538408868/tone_ctrl.o
                                                  build/dsPIC33AK512/production/_ext/1538408868/gain_ctrl.o
_putc                                             c:/program files/microchip/xc-dsc/v3.31/bin/bin/../../lib\libc99-elf.a(putc.AA_o)
_putc_unlocked                                    c:/program files/microchip/xc-dsc/v3.31/bin/bin/../../lib\libc99-elf.a(putc.AA_o)
                                                  c:/program files/microchip/xc-dsc/v3.31/bin/bin/../../lib\libc99-elf.a(puts.AA_o)
_putchar                                          c:/program files/microchip/xc-dsc/v3.31/bin/bin/../../lib\libc99-elf.a(putchar.AA_o)
                                                  build/dsPIC33AK512/production/_ext/1536116519/eq_benchmark.o
                                                  build/dsPIC33AK512/production/_ext/1536116519/dbconsole.o
_puts                                             c:/program files/microchip/xc-dsc/v3.31/bin/bin/../../lib\libc99-elf.a(puts.AA_o)
                                                  build/dsPIC33AK512/production/_ext/1536116519/eq_benchmark.o
                                                  build/dsPIC33AK512/production/_ext/1360937237/SST26_drv.o
                                                  build/dsPIC33AK512/production/_ext/1360937237/wm8904.o
                                                  build/dsPIC33AK512/production/_ext/1360937237/osc_drv.o
                                                  build/dsPIC33AK512/production/_ext/1360937237/main.o
                                                  build/dsPIC33AK512/production/_ext/1536116519/app_debug.o
_pwm1_set_duty                                    build/dsPIC33AK512/production/_ext/1360937237/pwm.o
                                                  build/dsPIC33AK512/production/_ext/1360937237/main.o
_pwm2_set_duty                                    build/dsPIC33AK512/production/_ext/1360937237/pwm.o
                                                  build/dsPIC33AK512/production/_ext/1360937237/main.o
_pwm3_set_duty                                    build/dsPIC33AK512/production/_ext/1360937237/pwm.o
                                                  build/dsPIC33AK512/production/_ext/1360937237/main.o
_pwm_init                                         build/dsPIC33AK512/production/_ext/1360937237/pwm.o
                                                  build/dsPIC33AK512/production/_ext/1360937237/main.o
_qtlib_acq_set1                                   build/dsPIC33AK512/production/_ext/1521024571/touch.o
_qtlib_key_configs_set1                           build/dsPIC33AK512/production/_ext/1521024571/touch.o
_qtlib_key_data_set1                              build/dsPIC33AK512/production/_ext/1521024571/touch.o
_qtlib_key_grp_config_set1                        build/dsPIC33AK512/production/_ext/1521024571/touch.o
_qtlib_key_grp_data_set1                          build/dsPIC33AK512/production/_ext/1521024571/touch.o
_qtlib_key_set1                                   build/dsPIC33AK512/production/_ext/1521024571/touch.o
_qtm_acquisition_process                          ..\src\touch\lib\qtm_acq_dspic33ak_mp_0x0051.X.a(pic_acq_x_dspic33ak_mp.o)
                                                  build/dsPIC33AK512/production/_ext/1521024571/touch.o
_qtm_calibrate_sensor_node                        ..\src\touch\lib\qtm_acq_dspic33ak_mp_0x0051.X.a(pic_acq_x_dspic33ak_mp.o)
                                                  build/dsPIC33AK512/production/_ext/1521024571/touch.o
_qtm_disable_sensor_node                          ..\src\touch\lib\qtm_acq_dspic33ak_mp_0x0051.X.a(pic_acq_x_dspic33ak_mp.o)
_qtm_disable_touch                                ..\src\touch\lib\qtm_acq_dspic33ak_mp_0x0051.X.a(pic_acq_x_dspic33ak_mp.o)
_qtm_dspic33a_acq_module_get_id                   ..\src\touch\lib\qtm_acq_dspic33ak_mp_0x0051.X.a(pic_acq_x_dspic33ak_mp.o)
_qtm_dspic33a_acq_module_get_ver                  ..\src\touch\lib\qtm_acq_dspic33ak_mp_0x0051.X.a(pic_acq_x_dspic33ak_mp.o)
_qtm_dspic33a_touch_handler_eoc                   ..\src\touch\lib\qtm_acq_dspic33ak_mp_0x0051.X.a(pic_acq_x_dspic33ak_mp.o)
                                                  build/dsPIC33AK512/production/_ext/1521024571/touch.o
_qtm_enable_sensor_node                           ..\src\touch\lib\qtm_acq_dspic33ak_mp_0x0051.X.a(pic_acq_x_dspic33ak_mp.o)
                                                  build/dsPIC33AK512/production/_ext/1521024571/touch.o
_qtm_enable_touch                                 ..\src\touch\lib\qtm_acq_dspic33ak_mp_0x0051.X.a(pic_acq_x_dspic33ak_mp.o)
_qtm_freq_hop_autotune                            ..\src\touch\lib\qtm_freq_hop_auto_dspic33akmp_0x0004.X.a(pic_freq_hop_auto_x_dspic33akmp.o)
                                                  build/dsPIC33AK512/production/_ext/1521024571/touch.o
_qtm_freq_hop_autotune_config1                    build/dsPIC33AK512/production/_ext/1521024571/touch.o
_qtm_freq_hop_autotune_control1                   build/dsPIC33AK512/production/_ext/1521024571/touch.o
_qtm_freq_hop_autotune_data1                      build/dsPIC33AK512/production/_ext/1521024571/touch.o
_qtm_get_current_measure_channel                  ..\src\touch\lib\qtm_acq_dspic33ak_mp_0x0051.X.a(pic_acq_x_dspic33ak_mp.o)
_qtm_get_freq_auto_module_id                      ..\src\touch\lib\qtm_freq_hop_auto_dspic33akmp_0x0004.X.a(pic_freq_hop_auto_x_dspic33akmp.o)
_qtm_get_freq_auto_module_ver                     ..\src\touch\lib\qtm_freq_hop_auto_dspic33akmp_0x0004.X.a(pic_freq_hop_auto_x_dspic33akmp.o)
_qtm_get_touch_keys_module_id                     ..\src\touch\lib\qtm_touch_key_dspic33akmp_0x0002.X.a(pic_touch_key_x_dspic33akmp.o)
_qtm_get_touch_keys_module_ver                    ..\src\touch\lib\qtm_touch_key_dspic33akmp_0x0002.X.a(pic_touch_key_x_dspic33akmp.o)
_qtm_init_sensor_key                              ..\src\touch\lib\qtm_touch_key_dspic33akmp_0x0002.X.a(pic_touch_key_x_dspic33akmp.o)
                                                  build/dsPIC33AK512/production/_ext/1521024571/touch.o
_qtm_itc_config_update                            ..\src\touch\lib\qtm_acq_dspic33ak_mp_0x0051.X.a(pic_acq_x_dspic33ak_mp.o)
_qtm_itc_de_init                                  ..\src\touch\lib\qtm_acq_dspic33ak_mp_0x0051.X.a(pic_acq_x_dspic33ak_mp.o)
_qtm_itc_init_acquisition_module                  ..\src\touch\lib\qtm_acq_dspic33ak_mp_0x0051.X.a(pic_acq_x_dspic33ak_mp.o)
                                                  build/dsPIC33AK512/production/_ext/1521024571/touch.o
_qtm_itc_qtlib_assign_signal_memory               ..\src\touch\lib\qtm_acq_dspic33ak_mp_0x0051.X.a(pic_acq_x_dspic33ak_mp.o)
                                                  build/dsPIC33AK512/production/_ext/1521024571/touch.o
_qtm_itc_start_measurement_seq                    ..\src\touch\lib\qtm_acq_dspic33ak_mp_0x0051.X.a(pic_acq_x_dspic33ak_mp.o)
                                                  build/dsPIC33AK512/production/_ext/1521024571/touch.o
_qtm_key_resume                                   ..\src\touch\lib\qtm_touch_key_dspic33akmp_0x0002.X.a(pic_touch_key_x_dspic33akmp.o)
_qtm_key_sensors_process                          ..\src\touch\lib\qtm_touch_key_dspic33akmp_0x0002.X.a(pic_touch_key_x_dspic33akmp.o)
                                                  build/dsPIC33AK512/production/_ext/1521024571/touch.o
_qtm_key_suspend                                  ..\src\touch\lib\qtm_touch_key_dspic33akmp_0x0002.X.a(pic_touch_key_x_dspic33akmp.o)
_qtm_local_ms_timecount                           ..\src\touch\lib\qtm_touch_key_dspic33akmp_0x0002.X.a(pic_touch_key_x_dspic33akmp.o)
_qtm_scroller_config1                             build/dsPIC33AK512/production/_ext/1521024571/touch.o
_qtm_scroller_control1                            build/dsPIC33AK512/production/_ext/1521024571/touch.o
_qtm_scroller_data1                               build/dsPIC33AK512/production/_ext/1521024571/touch.o
_qtm_scroller_group_config1                       build/dsPIC33AK512/production/_ext/1521024571/touch.o
_qtm_scroller_group_data1                         build/dsPIC33AK512/production/_ext/1521024571/touch.o
_qtm_set_sensor_node_cal                          ..\src\touch\lib\qtm_acq_dspic33ak_mp_0x0051.X.a(pic_acq_x_dspic33ak_mp.o)
                                                  build/dsPIC33AK512/production/_ext/1521024571/touch.o
_qtm_update_acq_freq_delay                        ..\src\touch\lib\qtm_acq_dspic33ak_mp_0x0051.X.a(pic_acq_x_dspic33ak_mp.o)
                                                  build/dsPIC33AK512/production/_ext/1521024571/touch.o
_qtm_update_qtlib_timer                           ..\src\touch\lib\qtm_touch_key_dspic33akmp_0x0002.X.a(pic_touch_key_x_dspic33akmp.o)
                                                  build/dsPIC33AK512/production/_ext/1521024571/touch.o
_read                                             build/dsPIC33AK512/production/_ext/1018880376/uart1.o
_rintf                                            c:/program files/microchip/xc-dsc/v3.31/bin/bin/../../lib\libm-elf.a(rintf.AA_o)
                                                  c:/program files/microchip/xc-dsc/v3.31/bin/bin/../../lib\libm-elf.a(lrintf.AA_o)
_scalbnf                                          c:/program files/microchip/xc-dsc/v3.31/bin/bin/../../lib\libm-elf.a(scalbnf.AA_o)
                                                  c:/program files/microchip/xc-dsc/v3.31/bin/bin/../../lib\libm-elf.a(powf.AA_o)
                                                  c:/program files/microchip/xc-dsc/v3.31/bin/bin/../../lib\libm-elf.a(expf.AA_o)
_spi3_CS_assert                                   build/dsPIC33AK512/production/_ext/1360937237/SPI3_drv.o
                                                  build/dsPIC33AK512/production/_ext/1360937237/SST26_drv.o
_spi3_CS_deassert                                 build/dsPIC33AK512/production/_ext/1360937237/SPI3_drv.o
                                                  build/dsPIC33AK512/production/_ext/1360937237/SST26_drv.o
_spi3_init                                        build/dsPIC33AK512/production/_ext/1360937237/SPI3_drv.o
                                                  build/dsPIC33AK512/production/_ext/1360937237/main.o
_spi3_wait_rx_full                                build/dsPIC33AK512/production/_ext/1360937237/SPI3_drv.o
_spi3_wait_tx_done                                build/dsPIC33AK512/production/_ext/1360937237/SPI3_drv.o
                                                  build/dsPIC33AK512/production/_ext/1360937237/SST26_drv.o
_spi3_wait_tx_not_full                            build/dsPIC33AK512/production/_ext/1360937237/SPI3_drv.o
_spi3_xfer8                                       build/dsPIC33AK512/production/_ext/1360937237/SPI3_drv.o
                                                  build/dsPIC33AK512/production/_ext/1360937237/SST26_drv.o
_sqrtf                                            c:/program files/microchip/xc-dsc/v3.31/bin/bin/../../lib\libm-elf.a(sqrtf.AA_o)
                                                  c:/program files/microchip/xc-dsc/v3.31/bin/bin/../../lib\libm-elf.a(powf.AA_o)
_src_downsample                                   build/dsPIC33AK512/production/_ext/1538408868/aec_src.o
_src_downsample_mono                              build/dsPIC33AK512/production/_ext/1538408868/aec_src.o
_src_init                                         build/dsPIC33AK512/production/_ext/1538408868/aec_src.o
                                                  build/dsPIC33AK512/production/_ext/1538408868/aec_33ak.o
_src_reset                                        build/dsPIC33AK512/production/_ext/1538408868/aec_src.o
_src_upsample                                     build/dsPIC33AK512/production/_ext/1538408868/aec_src.o
_src_upsample_mono                                build/dsPIC33AK512/production/_ext/1538408868/aec_src.o
_sst26_chip_erase                                 build/dsPIC33AK512/production/_ext/1360937237/SST26_drv.o
_sst26_page_program                               build/dsPIC33AK512/production/_ext/1360937237/SST26_drv.o
_sst26_read_fast                                  build/dsPIC33AK512/production/_ext/1360937237/SST26_drv.o
                                                  build/dsPIC33AK512/production/_ext/1538408868/snd_effect_play.o
_sst26_read_jedec_id                              build/dsPIC33AK512/production/_ext/1360937237/SST26_drv.o
                                                  build/dsPIC33AK512/production/_ext/1360937237/main.o
_sst26_sector_erase_4k                            build/dsPIC33AK512/production/_ext/1360937237/SST26_drv.o
_sst26_verify                                     build/dsPIC33AK512/production/_ext/1360937237/SST26_drv.o
_sst26_write_enable                               build/dsPIC33AK512/production/_ext/1360937237/SST26_drv.o
_stpcpy                                           c:/program files/microchip/xc-dsc/v3.31/bin/bin/../../lib\libc99-elf.a(stpcpy.AA_o)
_strcpy                                           c:/program files/microchip/xc-dsc/v3.31/bin/bin/../../lib\libc99-elf.a(strcpy.AA_o)
                                                  c:/program files/microchip/xc-dsc/v3.31/bin/bin/../../lib\libc99-elf.a(__fmt_fp.AA_o)
_strlen                                           c:/program files/microchip/xc-dsc/v3.31/bin/bin/../../lib\libc99-elf.a(strlen.AA_o)
                                                  c:/program files/microchip/xc-dsc/v3.31/bin/bin/../../lib\libc99-elf.a(fputs.AA_o)
                                                  c:/program files/microchip/xc-dsc/v3.31/bin/bin/../../lib\libc99-elf.a(__printf_core.AA_o)
                                                  c:/program files/microchip/xc-dsc/v3.31/bin/bin/../../lib\libc99-elf.a(__fmt_s.AA_o)
                                                  c:/program files/microchip/xc-dsc/v3.31/bin/bin/../../lib\libc99-elf.a(__fmt_fp.AA_o)
_systemTick                                       build/dsPIC33AK512/production/_ext/1360937237/tick_time.o
_tanhf                                            c:/program files/microchip/xc-dsc/v3.31/bin/bin/../../lib\libm-elf.a(tanhf.AA_o)
                                                  build/dsPIC33AK512/production/_ext/1538408868/engine_synth.o
_time_to_measure_touch_flag                       build/dsPIC33AK512/production/_ext/1521024571/touch.o
_tolower                                          c:/program files/microchip/xc-dsc/v3.31/bin/bin/../../lib\libc99-elf.a(tolower.AA_o)
                                                  c:/program files/microchip/xc-dsc/v3.31/bin/bin/../../lib\libc99-elf.a(__printf_core.AA_o)
                                                  c:/program files/microchip/xc-dsc/v3.31/bin/bin/../../lib\libc99-elf.a(__fmt_fp.AA_o)
_tolower_l                                        c:/program files/microchip/xc-dsc/v3.31/bin/bin/../../lib\libc99-elf.a(tolower.AA_o)
_tone_init                                        build/dsPIC33AK512/production/_ext/1538408868/tone_ctrl.o
_tone_process                                     build/dsPIC33AK512/production/_ext/1538408868/tone_ctrl.o
_tone_set_coeffs                                  build/dsPIC33AK512/production/_ext/1538408868/tone_ctrl.o
_touch_acq_signals_raw                            build/dsPIC33AK512/production/_ext/1521024571/touch.o
_touch_check_node_cc_cal                          build/dsPIC33AK512/production/_ext/1521024571/touch.o
_touch_in_progress                                build/dsPIC33AK512/production/_ext/1521024571/touch.o
_touch_init                                       build/dsPIC33AK512/production/_ext/1521024571/touch.o
                                                  build/dsPIC33AK512/production/_ext/1360937237/main.o
_touch_postprocess_request                        build/dsPIC33AK512/production/_ext/1521024571/touch.o
_touch_process                                    build/dsPIC33AK512/production/_ext/1521024571/touch.o
                                                  build/dsPIC33AK512/production/_ext/1360937237/main.o
_touch_timer_handler                              build/dsPIC33AK512/production/_ext/1521024571/touch.o
_toupper                                          c:/program files/microchip/xc-dsc/v3.31/bin/bin/../../lib\libc99-elf.a(toupper.AA_o)
                                                  c:/program files/microchip/xc-dsc/v3.31/bin/bin/../../lib\libc99-elf.a(__fmt_x.AA_o)
_toupper_l                                        c:/program files/microchip/xc-dsc/v3.31/bin/bin/../../lib\libc99-elf.a(toupper.AA_o)
_update_sensor_cc_val                             build/dsPIC33AK512/production/_ext/1521024571/touch.o
_update_sensor_node_reference                     build/dsPIC33AK512/production/_ext/1521024571/touch.o
_update_sensor_node_signal                        build/dsPIC33AK512/production/_ext/1521024571/touch.o
_update_sensor_state                              build/dsPIC33AK512/production/_ext/1521024571/touch.o
_vad_compute_energy                               build/dsPIC33AK512/production/_ext/1538408868/aec_vad_float.o
_vad_get_speech_probability                       build/dsPIC33AK512/production/_ext/1538408868/aec_vad_float.o
_vad_inhibit_adaptation                           build/dsPIC33AK512/production/_ext/1538408868/aec_vad_float.o
_vad_init                                         build/dsPIC33AK512/production/_ext/1538408868/aec_vad_float.o
                                                  build/dsPIC33AK512/production/_ext/1538408868/aec_33ak.o
_vad_process                                      build/dsPIC33AK512/production/_ext/1538408868/aec_vad_float.o
_vad_reset                                        build/dsPIC33AK512/production/_ext/1538408868/aec_vad_float.o
_vad_update_noise                                 build/dsPIC33AK512/production/_ext/1538408868/aec_vad_float.o
_wav_to_tdm_float_process                         build/dsPIC33AK512/production/_ext/1538408868/snd_effect_play.o
                                                  build/dsPIC33AK512/production/_ext/1360937237/SPI_TDM_drv.o
_wav_to_tdm_play_se                               build/dsPIC33AK512/production/_ext/1538408868/snd_effect_play.o
                                                  build/dsPIC33AK512/production/_ext/1360937237/main.o
_widen_init                                       build/dsPIC33AK512/production/_ext/1538408868/widen_ctrl.o
_widen_process                                    build/dsPIC33AK512/production/_ext/1538408868/widen_ctrl.o
_widen_set_params                                 build/dsPIC33AK512/production/_ext/1538408868/widen_ctrl.o
_wm8731_adc_input_select                          build/dsPIC33AK512/production/_ext/1360937237/wm8731.o
_wm8731_dac_select                                build/dsPIC33AK512/production/_ext/1360937237/wm8731.o
_wm8731_enable_adc_high_pass_filter               build/dsPIC33AK512/production/_ext/1360937237/wm8731.o
_wm8731_left_headphone_volume_set                 build/dsPIC33AK512/production/_ext/1360937237/wm8731.o
_wm8731_left_line_in_volume_set                   build/dsPIC33AK512/production/_ext/1360937237/wm8731.o
_wm8731_power_mode_adc_line_in                    build/dsPIC33AK512/production/_ext/1360937237/wm8731.o
_wm8731_power_mode_adc_mic                        build/dsPIC33AK512/production/_ext/1360937237/wm8731.o
_wm8731_power_mode_all_active                     build/dsPIC33AK512/production/_ext/1360937237/wm8731.o
_wm8731_power_mode_dac                            build/dsPIC33AK512/production/_ext/1360937237/wm8731.o
_wm8731_power_mode_standby                        build/dsPIC33AK512/production/_ext/1360937237/wm8731.o
_wm8731_reset                                     build/dsPIC33AK512/production/_ext/1360937237/wm8731.o
_wm8731_right_headphone_volume_set                build/dsPIC33AK512/production/_ext/1360937237/wm8731.o
_wm8731_right_line_in_volume_set                  build/dsPIC33AK512/production/_ext/1360937237/wm8731.o
_wm8731_set_active                                build/dsPIC33AK512/production/_ext/1360937237/wm8731.o
_wm8731_set_bypass_enable                         build/dsPIC33AK512/production/_ext/1360937237/wm8731.o
_wm8731_set_dac_phase                             build/dsPIC33AK512/production/_ext/1360937237/wm8731.o
_wm8731_set_dac_soft_mute                         build/dsPIC33AK512/production/_ext/1360937237/wm8731.o
_wm8731_set_deemphasis                            build/dsPIC33AK512/production/_ext/1360937237/wm8731.o
_wm8731_set_digital_audio_data_bit_length         build/dsPIC33AK512/production/_ext/1360937237/wm8731.o
_wm8731_set_digital_audio_interface_format        build/dsPIC33AK512/production/_ext/1360937237/wm8731.o
_wm8731_set_left_line_in_mute                     build/dsPIC33AK512/production/_ext/1360937237/wm8731.o
_wm8731_set_master_or_slave_mode                  build/dsPIC33AK512/production/_ext/1360937237/wm8731.o
_wm8731_set_mic_boost                             build/dsPIC33AK512/production/_ext/1360937237/wm8731.o
_wm8731_set_mic_mute                              build/dsPIC33AK512/production/_ext/1360937237/wm8731.o
_wm8731_set_power_down_adc                        build/dsPIC33AK512/production/_ext/1360937237/wm8731.o
_wm8731_set_power_down_clkout                     build/dsPIC33AK512/production/_ext/1360937237/wm8731.o
_wm8731_set_power_down_dac                        build/dsPIC33AK512/production/_ext/1360937237/wm8731.o
_wm8731_set_power_down_line_in                    build/dsPIC33AK512/production/_ext/1360937237/wm8731.o
_wm8731_set_power_down_mic                        build/dsPIC33AK512/production/_ext/1360937237/wm8731.o
_wm8731_set_power_down_osc                        build/dsPIC33AK512/production/_ext/1360937237/wm8731.o
_wm8731_set_power_down_output                     build/dsPIC33AK512/production/_ext/1360937237/wm8731.o
_wm8731_set_power_off                             build/dsPIC33AK512/production/_ext/1360937237/wm8731.o
_wm8731_set_right_line_in_mute                    build/dsPIC33AK512/production/_ext/1360937237/wm8731.o
_wm8731_set_sampling_ctrl_reg1000                 build/dsPIC33AK512/production/_ext/1360937237/wm8731.o
_wm8904_init                                      build/dsPIC33AK512/production/_ext/1360937237/wm8904.o
                                                  build/dsPIC33AK512/production/_ext/1360937237/main.o
_write                                            build/dsPIC33AK512/production/_ext/1018880376/uart1.o
                                                  c:/program files/microchip/xc-dsc/v3.31/bin/bin/../../lib\libc99-elf.a(fwrite.AA_o)
                                                  c:/program files/microchip/xc-dsc/v3.31/bin/bin/../../lib\libc99-elf.a(__out.AA_o)
